
org2-bluetooth-adapter.elf:     file format elf32-littlearm

Sections:
Idx Name          Size      VMA       LMA       File off  Algn
  0 .boot2        00000100  10000000  10000000  00010000  2**0
                  CONTENTS, ALLOC, LOAD, READONLY, CODE
  1 .text         00005300  10000100  10000100  00010100  2**3
                  CONTENTS, ALLOC, LOAD, READONLY, CODE
  2 .rodata       00001264  10005400  10005400  00015400  2**3
                  CONTENTS, ALLOC, LOAD, READONLY, DATA
  3 .binary_info  00000028  10006664  10006664  00016664  2**2
                  CONTENTS, ALLOC, LOAD, DATA
  4 .ram_vector_table 000000c0  20000000  20000000  00025b68  2**2
                  CONTENTS
  5 .data         00005aa8  200000c0  1000668c  000200c0  2**4
                  CONTENTS, ALLOC, LOAD, CODE
  6 .uninitialized_data 00000000  20005b68  20005b68  00025c28  2**0
                  CONTENTS
  7 .scratch_x    00000000  20040000  20040000  00025c28  2**0
                  CONTENTS
  8 .scratch_y    00000000  20041000  20041000  00025c28  2**0
                  CONTENTS
  9 .bss          00002868  20005b68  20005b68  00025b68  2**3
                  ALLOC
 10 .heap         00000800  200083d0  200083d0  00025c28  2**2
                  CONTENTS, READONLY
 11 .stack1_dummy 00000800  20040000  20040000  00026428  2**2
                  CONTENTS
 12 .stack_dummy  00000800  20041000  20041000  00026c40  2**5
                  CONTENTS, READONLY
 13 .ARM.attributes 00000028  00000000  00000000  00027440  2**0
                  CONTENTS, READONLY
 14 .comment      000000a7  00000000  00000000  00027468  2**0
                  CONTENTS, READONLY
 15 .debug_info   0002057b  00000000  00000000  0002750f  2**0
                  CONTENTS, READONLY, DEBUGGING, OCTETS
 16 .debug_abbrev 000058ea  00000000  00000000  00047a8a  2**0
                  CONTENTS, READONLY, DEBUGGING, OCTETS
 17 .debug_loc    00011ff9  00000000  00000000  0004d374  2**0
                  CONTENTS, READONLY, DEBUGGING, OCTETS
 18 .debug_aranges 00000fd0  00000000  00000000  0005f370  2**3
                  CONTENTS, READONLY, DEBUGGING, OCTETS
 19 .debug_ranges 000034f0  00000000  00000000  00060340  2**3
                  CONTENTS, READONLY, DEBUGGING, OCTETS
 20 .debug_line   00010b29  00000000  00000000  00063830  2**0
                  CONTENTS, READONLY, DEBUGGING, OCTETS
 21 .debug_str    00004a97  00000000  00000000  00074359  2**0
                  CONTENTS, READONLY, DEBUGGING, OCTETS
 22 .debug_frame  00001cb4  00000000  00000000  00078df0  2**2
                  CONTENTS, READONLY, DEBUGGING, OCTETS
 23 .stabstr      00000075  00000000  00000000  0007aaa4  2**0
                  CONTENTS, READONLY, DEBUGGING

org2-bluetooth-adapter.elf:     file format elf32-littlearm


Disassembly of section .boot2:

10000000 <__boot2_start__>:
10000000:	4b32b500 	.word	0x4b32b500
10000004:	60582021 	.word	0x60582021
10000008:	21026898 	.word	0x21026898
1000000c:	60984388 	.word	0x60984388
10000010:	611860d8 	.word	0x611860d8
10000014:	4b2e6158 	.word	0x4b2e6158
10000018:	60992100 	.word	0x60992100
1000001c:	61592102 	.word	0x61592102
10000020:	22f02101 	.word	0x22f02101
10000024:	492b5099 	.word	0x492b5099
10000028:	21016019 	.word	0x21016019
1000002c:	20356099 	.word	0x20356099
10000030:	f844f000 	.word	0xf844f000
10000034:	42902202 	.word	0x42902202
10000038:	2106d014 	.word	0x2106d014
1000003c:	f0006619 	.word	0xf0006619
10000040:	6e19f834 	.word	0x6e19f834
10000044:	66192101 	.word	0x66192101
10000048:	66182000 	.word	0x66182000
1000004c:	f000661a 	.word	0xf000661a
10000050:	6e19f82c 	.word	0x6e19f82c
10000054:	6e196e19 	.word	0x6e196e19
10000058:	f0002005 	.word	0xf0002005
1000005c:	2101f82f 	.word	0x2101f82f
10000060:	d1f94208 	.word	0xd1f94208
10000064:	60992100 	.word	0x60992100
10000068:	6019491b 	.word	0x6019491b
1000006c:	60592100 	.word	0x60592100
10000070:	481b491a 	.word	0x481b491a
10000074:	21016001 	.word	0x21016001
10000078:	21eb6099 	.word	0x21eb6099
1000007c:	21a06619 	.word	0x21a06619
10000080:	f0006619 	.word	0xf0006619
10000084:	2100f812 	.word	0x2100f812
10000088:	49166099 	.word	0x49166099
1000008c:	60014814 	.word	0x60014814
10000090:	60992101 	.word	0x60992101
10000094:	2800bc01 	.word	0x2800bc01
10000098:	4700d000 	.word	0x4700d000
1000009c:	49134812 	.word	0x49134812
100000a0:	c8036008 	.word	0xc8036008
100000a4:	8808f380 	.word	0x8808f380
100000a8:	b5034708 	.word	0xb5034708
100000ac:	20046a99 	.word	0x20046a99
100000b0:	d0fb4201 	.word	0xd0fb4201
100000b4:	42012001 	.word	0x42012001
100000b8:	bd03d1f8 	.word	0xbd03d1f8
100000bc:	6618b502 	.word	0x6618b502
100000c0:	f7ff6618 	.word	0xf7ff6618
100000c4:	6e18fff2 	.word	0x6e18fff2
100000c8:	bd026e18 	.word	0xbd026e18
100000cc:	40020000 	.word	0x40020000
100000d0:	18000000 	.word	0x18000000
100000d4:	00070000 	.word	0x00070000
100000d8:	005f0300 	.word	0x005f0300
100000dc:	00002221 	.word	0x00002221
100000e0:	180000f4 	.word	0x180000f4
100000e4:	a0002022 	.word	0xa0002022
100000e8:	10000100 	.word	0x10000100
100000ec:	e000ed08 	.word	0xe000ed08
	...
100000fc:	7a4eb274 	.word	0x7a4eb274

Disassembly of section .text:

10000100 <__VECTOR_TABLE>:
10000100:	20042000 	.word	0x20042000
10000104:	100001f7 	.word	0x100001f7
10000108:	100001c3 	.word	0x100001c3
1000010c:	100001c5 	.word	0x100001c5
10000110:	100001c1 	.word	0x100001c1
10000114:	100001c1 	.word	0x100001c1
10000118:	100001c1 	.word	0x100001c1
1000011c:	100001c1 	.word	0x100001c1
10000120:	100001c1 	.word	0x100001c1
10000124:	100001c1 	.word	0x100001c1
10000128:	100001c1 	.word	0x100001c1
1000012c:	100001c7 	.word	0x100001c7
10000130:	100001c1 	.word	0x100001c1
10000134:	100001c1 	.word	0x100001c1
10000138:	100001c9 	.word	0x100001c9
1000013c:	100001cb 	.word	0x100001cb
10000140:	100001cd 	.word	0x100001cd
10000144:	100001cd 	.word	0x100001cd
10000148:	100001cd 	.word	0x100001cd
1000014c:	100001cd 	.word	0x100001cd
10000150:	100001cd 	.word	0x100001cd
10000154:	100001cd 	.word	0x100001cd
10000158:	100001cd 	.word	0x100001cd
1000015c:	100001cd 	.word	0x100001cd
10000160:	100001cd 	.word	0x100001cd
10000164:	100001cd 	.word	0x100001cd
10000168:	100001cd 	.word	0x100001cd
1000016c:	100001cd 	.word	0x100001cd
10000170:	100001cd 	.word	0x100001cd
10000174:	100001cd 	.word	0x100001cd
10000178:	100001cd 	.word	0x100001cd
1000017c:	100001cd 	.word	0x100001cd
10000180:	100001cd 	.word	0x100001cd
10000184:	100001cd 	.word	0x100001cd
10000188:	100001cd 	.word	0x100001cd
1000018c:	100001cd 	.word	0x100001cd
10000190:	100001cd 	.word	0x100001cd
10000194:	100001cd 	.word	0x100001cd
10000198:	100001cd 	.word	0x100001cd
1000019c:	100001cd 	.word	0x100001cd
100001a0:	100001cd 	.word	0x100001cd
100001a4:	100001cd 	.word	0x100001cd
100001a8:	100001cd 	.word	0x100001cd
100001ac:	100001cd 	.word	0x100001cd
100001b0:	100001cd 	.word	0x100001cd
100001b4:	100001cd 	.word	0x100001cd
100001b8:	100001cd 	.word	0x100001cd
100001bc:	100001cd 	.word	0x100001cd

100001c0 <isr_invalid>:
100001c0:	be00      	bkpt	0x0000

100001c2 <isr_nmi>:
100001c2:	be00      	bkpt	0x0000

100001c4 <isr_hardfault>:
100001c4:	be00      	bkpt	0x0000

100001c6 <isr_svcall>:
100001c6:	be00      	bkpt	0x0000

100001c8 <isr_pendsv>:
100001c8:	be00      	bkpt	0x0000

100001ca <isr_systick>:
100001ca:	be00      	bkpt	0x0000

100001cc <__unhandled_user_irq>:
100001cc:	f000 f84b 	bl	10000266 <__get_current_exception>
100001d0:	3810      	subs	r0, #16

100001d2 <unhandled_user_irq_num_in_r0>:
100001d2:	be00      	bkpt	0x0000

100001d4 <binary_info_header>:
100001d4:	7188ebf2 	.word	0x7188ebf2
100001d8:	10006664 	.word	0x10006664
100001dc:	1000668c 	.word	0x1000668c
100001e0:	10000234 	.word	0x10000234
100001e4:	e71aa390 	.word	0xe71aa390

100001e8 <_entry_point>:
100001e8:	2000      	movs	r0, #0
100001ea:	4921      	ldr	r1, [pc, #132]	; (10000270 <__get_current_exception+0xa>)
100001ec:	6008      	str	r0, [r1, #0]
100001ee:	c806      	ldmia	r0!, {r1, r2}
100001f0:	f381 8808 	msr	MSP, r1
100001f4:	4710      	bx	r2

100001f6 <_reset_handler>:
100001f6:	481f      	ldr	r0, [pc, #124]	; (10000274 <__get_current_exception+0xe>)
100001f8:	6800      	ldr	r0, [r0, #0]
100001fa:	2800      	cmp	r0, #0
100001fc:	d12f      	bne.n	1000025e <hold_non_core0_in_bootrom>
100001fe:	a40d      	add	r4, pc, #52	; (adr r4, 10000234 <data_cpy_table>)
10000200:	cc0e      	ldmia	r4!, {r1, r2, r3}
10000202:	2900      	cmp	r1, #0
10000204:	d002      	beq.n	1000020c <_reset_handler+0x16>
10000206:	f000 f812 	bl	1000022e <data_cpy>
1000020a:	e7f9      	b.n	10000200 <_reset_handler+0xa>
1000020c:	491a      	ldr	r1, [pc, #104]	; (10000278 <__get_current_exception+0x12>)
1000020e:	4a1b      	ldr	r2, [pc, #108]	; (1000027c <__get_current_exception+0x16>)
10000210:	2000      	movs	r0, #0
10000212:	e000      	b.n	10000216 <bss_fill_test>

10000214 <bss_fill_loop>:
10000214:	c101      	stmia	r1!, {r0}

10000216 <bss_fill_test>:
10000216:	4291      	cmp	r1, r2
10000218:	d1fc      	bne.n	10000214 <bss_fill_loop>

1000021a <platform_entry>:
1000021a:	4919      	ldr	r1, [pc, #100]	; (10000280 <__get_current_exception+0x1a>)
1000021c:	4788      	blx	r1
1000021e:	4919      	ldr	r1, [pc, #100]	; (10000284 <__get_current_exception+0x1e>)
10000220:	4788      	blx	r1
10000222:	4919      	ldr	r1, [pc, #100]	; (10000288 <__get_current_exception+0x22>)
10000224:	4788      	blx	r1
10000226:	be00      	bkpt	0x0000
10000228:	e7fd      	b.n	10000226 <platform_entry+0xc>

1000022a <data_cpy_loop>:
1000022a:	c901      	ldmia	r1!, {r0}
1000022c:	c201      	stmia	r2!, {r0}

1000022e <data_cpy>:
1000022e:	429a      	cmp	r2, r3
10000230:	d3fb      	bcc.n	1000022a <data_cpy_loop>
10000232:	4770      	bx	lr

10000234 <data_cpy_table>:
10000234:	1000668c 	.word	0x1000668c
10000238:	200000c0 	.word	0x200000c0
1000023c:	20005b68 	.word	0x20005b68
10000240:	1000c134 	.word	0x1000c134
10000244:	20040000 	.word	0x20040000
10000248:	20040000 	.word	0x20040000
1000024c:	1000c134 	.word	0x1000c134
10000250:	20041000 	.word	0x20041000
10000254:	20041000 	.word	0x20041000
10000258:	00000000 	.word	0x00000000
1000025c:	4770      	bx	lr

1000025e <hold_non_core0_in_bootrom>:
1000025e:	480b      	ldr	r0, [pc, #44]	; (1000028c <__get_current_exception+0x26>)
10000260:	f003 fcfe 	bl	10003c60 <rom_func_lookup>
10000264:	4700      	bx	r0

10000266 <__get_current_exception>:
10000266:	f3ef 8005 	mrs	r0, IPSR
1000026a:	b2c0      	uxtb	r0, r0
1000026c:	4770      	bx	lr
1000026e:	0000      	.short	0x0000
10000270:	e000ed08 	.word	0xe000ed08
10000274:	d0000000 	.word	0xd0000000
10000278:	20005b68 	.word	0x20005b68
1000027c:	200083d0 	.word	0x200083d0
10000280:	10002245 	.word	0x10002245
10000284:	10000971 	.word	0x10000971
10000288:	10002321 	.word	0x10002321
1000028c:	00005657 	.word	0x00005657

10000290 <__bi_50>:
10000290:	50520006 5360b3ab 1000646c              ..RP..`Sld..

1000029c <__bi_38>:
1000029c:	50520006 02031c86 1000647c              ..RP....|d..

100002a8 <__bi_30>:
100002a8:	50520006 9da22254 10006494              ..RPT"...d..

100002b4 <__bi_22>:
100002b4:	50520005 68f465de 1000c134              ..RP.e.h4...

100002c0 <_init>:
100002c0:	b5f8      	push	{r3, r4, r5, r6, r7, lr}
100002c2:	46c0      	nop			; (mov r8, r8)

100002c4 <deregister_tm_clones>:
100002c4:	4804      	ldr	r0, [pc, #16]	; (100002d8 <deregister_tm_clones+0x14>)
100002c6:	4b05      	ldr	r3, [pc, #20]	; (100002dc <deregister_tm_clones+0x18>)
100002c8:	b510      	push	{r4, lr}
100002ca:	4283      	cmp	r3, r0
100002cc:	d003      	beq.n	100002d6 <deregister_tm_clones+0x12>
100002ce:	4b04      	ldr	r3, [pc, #16]	; (100002e0 <deregister_tm_clones+0x1c>)
100002d0:	2b00      	cmp	r3, #0
100002d2:	d000      	beq.n	100002d6 <deregister_tm_clones+0x12>
100002d4:	4798      	blx	r3
100002d6:	bd10      	pop	{r4, pc}
100002d8:	20005b68 	.word	0x20005b68
100002dc:	20005b68 	.word	0x20005b68
100002e0:	00000000 	.word	0x00000000

100002e4 <register_tm_clones>:
100002e4:	4806      	ldr	r0, [pc, #24]	; (10000300 <register_tm_clones+0x1c>)
100002e6:	4907      	ldr	r1, [pc, #28]	; (10000304 <register_tm_clones+0x20>)
100002e8:	1a09      	subs	r1, r1, r0
100002ea:	108b      	asrs	r3, r1, #2
100002ec:	0fc9      	lsrs	r1, r1, #31
100002ee:	18c9      	adds	r1, r1, r3
100002f0:	b510      	push	{r4, lr}
100002f2:	1049      	asrs	r1, r1, #1
100002f4:	d003      	beq.n	100002fe <register_tm_clones+0x1a>
100002f6:	4b04      	ldr	r3, [pc, #16]	; (10000308 <register_tm_clones+0x24>)
100002f8:	2b00      	cmp	r3, #0
100002fa:	d000      	beq.n	100002fe <register_tm_clones+0x1a>
100002fc:	4798      	blx	r3
100002fe:	bd10      	pop	{r4, pc}
10000300:	20005b68 	.word	0x20005b68
10000304:	20005b68 	.word	0x20005b68
10000308:	00000000 	.word	0x00000000

1000030c <__do_global_dtors_aux>:
1000030c:	b510      	push	{r4, lr}
1000030e:	4c07      	ldr	r4, [pc, #28]	; (1000032c <__do_global_dtors_aux+0x20>)
10000310:	7823      	ldrb	r3, [r4, #0]
10000312:	2b00      	cmp	r3, #0
10000314:	d109      	bne.n	1000032a <__do_global_dtors_aux+0x1e>
10000316:	f7ff ffd5 	bl	100002c4 <deregister_tm_clones>
1000031a:	4b05      	ldr	r3, [pc, #20]	; (10000330 <__do_global_dtors_aux+0x24>)
1000031c:	2b00      	cmp	r3, #0
1000031e:	d002      	beq.n	10000326 <__do_global_dtors_aux+0x1a>
10000320:	4804      	ldr	r0, [pc, #16]	; (10000334 <__do_global_dtors_aux+0x28>)
10000322:	e000      	b.n	10000326 <__do_global_dtors_aux+0x1a>
10000324:	bf00      	nop
10000326:	2301      	movs	r3, #1
10000328:	7023      	strb	r3, [r4, #0]
1000032a:	bd10      	pop	{r4, pc}
1000032c:	20005c68 	.word	0x20005c68
10000330:	00000000 	.word	0x00000000
10000334:	10005400 	.word	0x10005400

10000338 <frame_dummy>:
10000338:	4b05      	ldr	r3, [pc, #20]	; (10000350 <frame_dummy+0x18>)
1000033a:	b510      	push	{r4, lr}
1000033c:	2b00      	cmp	r3, #0
1000033e:	d003      	beq.n	10000348 <frame_dummy+0x10>
10000340:	4904      	ldr	r1, [pc, #16]	; (10000354 <frame_dummy+0x1c>)
10000342:	4805      	ldr	r0, [pc, #20]	; (10000358 <frame_dummy+0x20>)
10000344:	e000      	b.n	10000348 <frame_dummy+0x10>
10000346:	bf00      	nop
10000348:	f7ff ffcc 	bl	100002e4 <register_tm_clones>
1000034c:	bd10      	pop	{r4, pc}
1000034e:	46c0      	nop			; (mov r8, r8)
10000350:	00000000 	.word	0x00000000
10000354:	20005c6c 	.word	0x20005c6c
10000358:	10005400 	.word	0x10005400

1000035c <handle_address>:
1000035c:	b5f0      	push	{r4, r5, r6, r7, lr}
1000035e:	46de      	mov	lr, fp
10000360:	4657      	mov	r7, sl
10000362:	464e      	mov	r6, r9
10000364:	4645      	mov	r5, r8
10000366:	b5e0      	push	{r5, r6, r7, lr}
10000368:	b085      	sub	sp, #20
1000036a:	23d0      	movs	r3, #208	; 0xd0
1000036c:	061b      	lsls	r3, r3, #24
1000036e:	685a      	ldr	r2, [r3, #4]
10000370:	685d      	ldr	r5, [r3, #4]
10000372:	0d2d      	lsrs	r5, r5, #20
10000374:	2701      	movs	r7, #1
10000376:	403d      	ands	r5, r7
10000378:	685a      	ldr	r2, [r3, #4]
1000037a:	685a      	ldr	r2, [r3, #4]
1000037c:	09d2      	lsrs	r2, r2, #7
1000037e:	403a      	ands	r2, r7
10000380:	9200      	str	r2, [sp, #0]
10000382:	685b      	ldr	r3, [r3, #4]
10000384:	089b      	lsrs	r3, r3, #2
10000386:	401f      	ands	r7, r3
10000388:	9701      	str	r7, [sp, #4]
1000038a:	4bbc      	ldr	r3, [pc, #752]	; (1000067c <handle_address+0x320>)
1000038c:	681a      	ldr	r2, [r3, #0]
1000038e:	4bbc      	ldr	r3, [pc, #752]	; (10000680 <handle_address+0x324>)
10000390:	429a      	cmp	r2, r3
10000392:	d008      	beq.n	100003a6 <handle_address+0x4a>
10000394:	1c53      	adds	r3, r2, #1
10000396:	49bb      	ldr	r1, [pc, #748]	; (10000684 <handle_address+0x328>)
10000398:	2049      	movs	r0, #73	; 0x49
1000039a:	5488      	strb	r0, [r1, r2]
1000039c:	4aba      	ldr	r2, [pc, #744]	; (10000688 <handle_address+0x32c>)
1000039e:	4013      	ands	r3, r2
100003a0:	d42d      	bmi.n	100003fe <handle_address+0xa2>
100003a2:	4ab6      	ldr	r2, [pc, #728]	; (1000067c <handle_address+0x320>)
100003a4:	6013      	str	r3, [r2, #0]
100003a6:	4bb5      	ldr	r3, [pc, #724]	; (1000067c <handle_address+0x320>)
100003a8:	681a      	ldr	r2, [r3, #0]
100003aa:	4bb5      	ldr	r3, [pc, #724]	; (10000680 <handle_address+0x324>)
100003ac:	429a      	cmp	r2, r3
100003ae:	d008      	beq.n	100003c2 <handle_address+0x66>
100003b0:	1c53      	adds	r3, r2, #1
100003b2:	49b4      	ldr	r1, [pc, #720]	; (10000684 <handle_address+0x328>)
100003b4:	204e      	movs	r0, #78	; 0x4e
100003b6:	5488      	strb	r0, [r1, r2]
100003b8:	4ab3      	ldr	r2, [pc, #716]	; (10000688 <handle_address+0x32c>)
100003ba:	4013      	ands	r3, r2
100003bc:	d424      	bmi.n	10000408 <handle_address+0xac>
100003be:	4aaf      	ldr	r2, [pc, #700]	; (1000067c <handle_address+0x320>)
100003c0:	6013      	str	r3, [r2, #0]
100003c2:	4bae      	ldr	r3, [pc, #696]	; (1000067c <handle_address+0x320>)
100003c4:	681a      	ldr	r2, [r3, #0]
100003c6:	4bae      	ldr	r3, [pc, #696]	; (10000680 <handle_address+0x324>)
100003c8:	429a      	cmp	r2, r3
100003ca:	d008      	beq.n	100003de <handle_address+0x82>
100003cc:	1c53      	adds	r3, r2, #1
100003ce:	49ad      	ldr	r1, [pc, #692]	; (10000684 <handle_address+0x328>)
100003d0:	2049      	movs	r0, #73	; 0x49
100003d2:	5488      	strb	r0, [r1, r2]
100003d4:	4aac      	ldr	r2, [pc, #688]	; (10000688 <handle_address+0x32c>)
100003d6:	4013      	ands	r3, r2
100003d8:	d41b      	bmi.n	10000412 <handle_address+0xb6>
100003da:	4aa8      	ldr	r2, [pc, #672]	; (1000067c <handle_address+0x320>)
100003dc:	6013      	str	r3, [r2, #0]
100003de:	4ba7      	ldr	r3, [pc, #668]	; (1000067c <handle_address+0x320>)
100003e0:	681a      	ldr	r2, [r3, #0]
100003e2:	4ba7      	ldr	r3, [pc, #668]	; (10000680 <handle_address+0x324>)
100003e4:	429a      	cmp	r2, r3
100003e6:	d100      	bne.n	100003ea <handle_address+0x8e>
100003e8:	e0d3      	b.n	10000592 <handle_address+0x236>
100003ea:	1c53      	adds	r3, r2, #1
100003ec:	49a5      	ldr	r1, [pc, #660]	; (10000684 <handle_address+0x328>)
100003ee:	2054      	movs	r0, #84	; 0x54
100003f0:	5488      	strb	r0, [r1, r2]
100003f2:	4aa5      	ldr	r2, [pc, #660]	; (10000688 <handle_address+0x32c>)
100003f4:	4013      	ands	r3, r2
100003f6:	d411      	bmi.n	1000041c <handle_address+0xc0>
100003f8:	4aa0      	ldr	r2, [pc, #640]	; (1000067c <handle_address+0x320>)
100003fa:	6013      	str	r3, [r2, #0]
100003fc:	e0c9      	b.n	10000592 <handle_address+0x236>
100003fe:	3b01      	subs	r3, #1
10000400:	4aa2      	ldr	r2, [pc, #648]	; (1000068c <handle_address+0x330>)
10000402:	4313      	orrs	r3, r2
10000404:	3301      	adds	r3, #1
10000406:	e7cc      	b.n	100003a2 <handle_address+0x46>
10000408:	3b01      	subs	r3, #1
1000040a:	4aa0      	ldr	r2, [pc, #640]	; (1000068c <handle_address+0x330>)
1000040c:	4313      	orrs	r3, r2
1000040e:	3301      	adds	r3, #1
10000410:	e7d5      	b.n	100003be <handle_address+0x62>
10000412:	3b01      	subs	r3, #1
10000414:	4a9d      	ldr	r2, [pc, #628]	; (1000068c <handle_address+0x330>)
10000416:	4313      	orrs	r3, r2
10000418:	3301      	adds	r3, #1
1000041a:	e7de      	b.n	100003da <handle_address+0x7e>
1000041c:	3b01      	subs	r3, #1
1000041e:	4a9b      	ldr	r2, [pc, #620]	; (1000068c <handle_address+0x330>)
10000420:	4313      	orrs	r3, r2
10000422:	3301      	adds	r3, #1
10000424:	e7e8      	b.n	100003f8 <handle_address+0x9c>
10000426:	2a00      	cmp	r2, #0
10000428:	d000      	beq.n	1000042c <handle_address+0xd0>
1000042a:	e0cf      	b.n	100005cc <handle_address+0x270>
1000042c:	2e00      	cmp	r6, #0
1000042e:	d134      	bne.n	1000049a <handle_address+0x13e>
10000430:	4f92      	ldr	r7, [pc, #584]	; (1000067c <handle_address+0x320>)
10000432:	683f      	ldr	r7, [r7, #0]
10000434:	46b9      	mov	r9, r7
10000436:	4f92      	ldr	r7, [pc, #584]	; (10000680 <handle_address+0x324>)
10000438:	45b9      	cmp	r9, r7
1000043a:	d015      	beq.n	10000468 <handle_address+0x10c>
1000043c:	2401      	movs	r4, #1
1000043e:	444c      	add	r4, r9
10000440:	46a3      	mov	fp, r4
10000442:	4c90      	ldr	r4, [pc, #576]	; (10000684 <handle_address+0x328>)
10000444:	464f      	mov	r7, r9
10000446:	2369      	movs	r3, #105	; 0x69
10000448:	55e3      	strb	r3, [r4, r7]
1000044a:	465b      	mov	r3, fp
1000044c:	17db      	asrs	r3, r3, #31
1000044e:	0cdb      	lsrs	r3, r3, #19
10000450:	469a      	mov	sl, r3
10000452:	46d9      	mov	r9, fp
10000454:	44d1      	add	r9, sl
10000456:	464b      	mov	r3, r9
10000458:	04db      	lsls	r3, r3, #19
1000045a:	0cdb      	lsrs	r3, r3, #19
1000045c:	4654      	mov	r4, sl
1000045e:	1b1b      	subs	r3, r3, r4
10000460:	4699      	mov	r9, r3
10000462:	4b86      	ldr	r3, [pc, #536]	; (1000067c <handle_address+0x320>)
10000464:	464c      	mov	r4, r9
10000466:	601c      	str	r4, [r3, #0]
10000468:	4f89      	ldr	r7, [pc, #548]	; (10000690 <handle_address+0x334>)
1000046a:	46b9      	mov	r9, r7
1000046c:	683f      	ldr	r7, [r7, #0]
1000046e:	46ba      	mov	sl, r7
10000470:	2702      	movs	r7, #2
10000472:	46bb      	mov	fp, r7
10000474:	44da      	add	sl, fp
10000476:	464f      	mov	r7, r9
10000478:	4654      	mov	r4, sl
1000047a:	603c      	str	r4, [r7, #0]
1000047c:	683c      	ldr	r4, [r7, #0]
1000047e:	46a2      	mov	sl, r4
10000480:	2401      	movs	r4, #1
10000482:	4657      	mov	r7, sl
10000484:	43a7      	bics	r7, r4
10000486:	464c      	mov	r4, r9
10000488:	6027      	str	r7, [r4, #0]
1000048a:	6824      	ldr	r4, [r4, #0]
1000048c:	0424      	lsls	r4, r4, #16
1000048e:	0c24      	lsrs	r4, r4, #16
10000490:	46a2      	mov	sl, r4
10000492:	464c      	mov	r4, r9
10000494:	4657      	mov	r7, sl
10000496:	6027      	str	r7, [r4, #0]
10000498:	e098      	b.n	100005cc <handle_address+0x270>
1000049a:	4c78      	ldr	r4, [pc, #480]	; (1000067c <handle_address+0x320>)
1000049c:	6824      	ldr	r4, [r4, #0]
1000049e:	46a1      	mov	r9, r4
100004a0:	4c77      	ldr	r4, [pc, #476]	; (10000680 <handle_address+0x324>)
100004a2:	45a1      	cmp	r9, r4
100004a4:	d100      	bne.n	100004a8 <handle_address+0x14c>
100004a6:	e091      	b.n	100005cc <handle_address+0x270>
100004a8:	2401      	movs	r4, #1
100004aa:	444c      	add	r4, r9
100004ac:	46a3      	mov	fp, r4
100004ae:	4b75      	ldr	r3, [pc, #468]	; (10000684 <handle_address+0x328>)
100004b0:	464c      	mov	r4, r9
100004b2:	277a      	movs	r7, #122	; 0x7a
100004b4:	551f      	strb	r7, [r3, r4]
100004b6:	465b      	mov	r3, fp
100004b8:	17db      	asrs	r3, r3, #31
100004ba:	0cdb      	lsrs	r3, r3, #19
100004bc:	469a      	mov	sl, r3
100004be:	46d9      	mov	r9, fp
100004c0:	44d1      	add	r9, sl
100004c2:	464b      	mov	r3, r9
100004c4:	04db      	lsls	r3, r3, #19
100004c6:	0cdb      	lsrs	r3, r3, #19
100004c8:	4654      	mov	r4, sl
100004ca:	1b1b      	subs	r3, r3, r4
100004cc:	4699      	mov	r9, r3
100004ce:	4b6b      	ldr	r3, [pc, #428]	; (1000067c <handle_address+0x320>)
100004d0:	464c      	mov	r4, r9
100004d2:	601c      	str	r4, [r3, #0]
100004d4:	e07a      	b.n	100005cc <handle_address+0x270>
100004d6:	4d69      	ldr	r5, [pc, #420]	; (1000067c <handle_address+0x320>)
100004d8:	682d      	ldr	r5, [r5, #0]
100004da:	46ac      	mov	ip, r5
100004dc:	4d68      	ldr	r5, [pc, #416]	; (10000680 <handle_address+0x324>)
100004de:	45ac      	cmp	ip, r5
100004e0:	d100      	bne.n	100004e4 <handle_address+0x188>
100004e2:	e09b      	b.n	1000061c <handle_address+0x2c0>
100004e4:	4664      	mov	r4, ip
100004e6:	1c63      	adds	r3, r4, #1
100004e8:	4c66      	ldr	r4, [pc, #408]	; (10000684 <handle_address+0x328>)
100004ea:	46a1      	mov	r9, r4
100004ec:	245a      	movs	r4, #90	; 0x5a
100004ee:	46a2      	mov	sl, r4
100004f0:	464c      	mov	r4, r9
100004f2:	4667      	mov	r7, ip
100004f4:	4655      	mov	r5, sl
100004f6:	55e5      	strb	r5, [r4, r7]
100004f8:	17dc      	asrs	r4, r3, #31
100004fa:	0ce4      	lsrs	r4, r4, #19
100004fc:	46a4      	mov	ip, r4
100004fe:	4463      	add	r3, ip
10000500:	04dd      	lsls	r5, r3, #19
10000502:	0ced      	lsrs	r5, r5, #19
10000504:	1b2d      	subs	r5, r5, r4
10000506:	4c5d      	ldr	r4, [pc, #372]	; (1000067c <handle_address+0x320>)
10000508:	6025      	str	r5, [r4, #0]
1000050a:	e087      	b.n	1000061c <handle_address+0x2c0>
1000050c:	2e00      	cmp	r6, #0
1000050e:	d002      	beq.n	10000516 <handle_address+0x1ba>
10000510:	4640      	mov	r0, r8
10000512:	2800      	cmp	r0, #0
10000514:	d11b      	bne.n	1000054e <handle_address+0x1f2>
10000516:	20d0      	movs	r0, #208	; 0xd0
10000518:	0600      	lsls	r0, r0, #24
1000051a:	2480      	movs	r4, #128	; 0x80
1000051c:	0524      	lsls	r4, r4, #20
1000051e:	6184      	str	r4, [r0, #24]
10000520:	24ff      	movs	r4, #255	; 0xff
10000522:	0224      	lsls	r4, r4, #8
10000524:	6244      	str	r4, [r0, #36]	; 0x24
10000526:	4d5a      	ldr	r5, [pc, #360]	; (10000690 <handle_address+0x334>)
10000528:	682d      	ldr	r5, [r5, #0]
1000052a:	4f5a      	ldr	r7, [pc, #360]	; (10000694 <handle_address+0x338>)
1000052c:	683f      	ldr	r7, [r7, #0]
1000052e:	433d      	orrs	r5, r7
10000530:	4f59      	ldr	r7, [pc, #356]	; (10000698 <handle_address+0x33c>)
10000532:	5d7d      	ldrb	r5, [r7, r5]
10000534:	022d      	lsls	r5, r5, #8
10000536:	6145      	str	r5, [r0, #20]
10000538:	406c      	eors	r4, r5
1000053a:	6184      	str	r4, [r0, #24]
1000053c:	e007      	b.n	1000054e <handle_address+0x1f2>
1000053e:	20d0      	movs	r0, #208	; 0xd0
10000540:	0600      	lsls	r0, r0, #24
10000542:	24ff      	movs	r4, #255	; 0xff
10000544:	0224      	lsls	r4, r4, #8
10000546:	6284      	str	r4, [r0, #40]	; 0x28
10000548:	2480      	movs	r4, #128	; 0x80
1000054a:	0524      	lsls	r4, r4, #20
1000054c:	6144      	str	r4, [r0, #20]
1000054e:	9801      	ldr	r0, [sp, #4]
10000550:	2801      	cmp	r0, #1
10000552:	d074      	beq.n	1000063e <handle_address+0x2e2>
10000554:	9800      	ldr	r0, [sp, #0]
10000556:	2800      	cmp	r0, #0
10000558:	d117      	bne.n	1000058a <handle_address+0x22e>
1000055a:	2e00      	cmp	r6, #0
1000055c:	d015      	beq.n	1000058a <handle_address+0x22e>
1000055e:	4847      	ldr	r0, [pc, #284]	; (1000067c <handle_address+0x320>)
10000560:	6804      	ldr	r4, [r0, #0]
10000562:	4847      	ldr	r0, [pc, #284]	; (10000680 <handle_address+0x324>)
10000564:	4284      	cmp	r4, r0
10000566:	d00b      	beq.n	10000580 <handle_address+0x224>
10000568:	1c60      	adds	r0, r4, #1
1000056a:	4d46      	ldr	r5, [pc, #280]	; (10000684 <handle_address+0x328>)
1000056c:	2652      	movs	r6, #82	; 0x52
1000056e:	552e      	strb	r6, [r5, r4]
10000570:	17c4      	asrs	r4, r0, #31
10000572:	0ce4      	lsrs	r4, r4, #19
10000574:	1900      	adds	r0, r0, r4
10000576:	04c0      	lsls	r0, r0, #19
10000578:	0cc0      	lsrs	r0, r0, #19
1000057a:	1b00      	subs	r0, r0, r4
1000057c:	4c3f      	ldr	r4, [pc, #252]	; (1000067c <handle_address+0x320>)
1000057e:	6020      	str	r0, [r4, #0]
10000580:	2000      	movs	r0, #0
10000582:	4c43      	ldr	r4, [pc, #268]	; (10000690 <handle_address+0x334>)
10000584:	6020      	str	r0, [r4, #0]
10000586:	4c43      	ldr	r4, [pc, #268]	; (10000694 <handle_address+0x338>)
10000588:	6020      	str	r0, [r4, #0]
1000058a:	9b02      	ldr	r3, [sp, #8]
1000058c:	9301      	str	r3, [sp, #4]
1000058e:	9100      	str	r1, [sp, #0]
10000590:	0015      	movs	r5, r2
10000592:	27d0      	movs	r7, #208	; 0xd0
10000594:	063f      	lsls	r7, r7, #24
10000596:	6878      	ldr	r0, [r7, #4]
10000598:	08c0      	lsrs	r0, r0, #3
1000059a:	2301      	movs	r3, #1
1000059c:	4018      	ands	r0, r3
1000059e:	687a      	ldr	r2, [r7, #4]
100005a0:	0d12      	lsrs	r2, r2, #20
100005a2:	0019      	movs	r1, r3
100005a4:	4011      	ands	r1, r2
100005a6:	468c      	mov	ip, r1
100005a8:	000a      	movs	r2, r1
100005aa:	687c      	ldr	r4, [r7, #4]
100005ac:	09a4      	lsrs	r4, r4, #6
100005ae:	401c      	ands	r4, r3
100005b0:	9403      	str	r4, [sp, #12]
100005b2:	6879      	ldr	r1, [r7, #4]
100005b4:	09c9      	lsrs	r1, r1, #7
100005b6:	001e      	movs	r6, r3
100005b8:	400e      	ands	r6, r1
100005ba:	0031      	movs	r1, r6
100005bc:	687f      	ldr	r7, [r7, #4]
100005be:	08bf      	lsrs	r7, r7, #2
100005c0:	401f      	ands	r7, r3
100005c2:	46b8      	mov	r8, r7
100005c4:	9702      	str	r7, [sp, #8]
100005c6:	2d01      	cmp	r5, #1
100005c8:	d100      	bne.n	100005cc <handle_address+0x270>
100005ca:	e72c      	b.n	10000426 <handle_address+0xca>
100005cc:	2d00      	cmp	r5, #0
100005ce:	d125      	bne.n	1000061c <handle_address+0x2c0>
100005d0:	4665      	mov	r5, ip
100005d2:	2d00      	cmp	r5, #0
100005d4:	d022      	beq.n	1000061c <handle_address+0x2c0>
100005d6:	2e00      	cmp	r6, #0
100005d8:	d000      	beq.n	100005dc <handle_address+0x280>
100005da:	e77c      	b.n	100004d6 <handle_address+0x17a>
100005dc:	4d2c      	ldr	r5, [pc, #176]	; (10000690 <handle_address+0x334>)
100005de:	46ac      	mov	ip, r5
100005e0:	682d      	ldr	r5, [r5, #0]
100005e2:	2701      	movs	r7, #1
100005e4:	433d      	orrs	r5, r7
100005e6:	4667      	mov	r7, ip
100005e8:	603d      	str	r5, [r7, #0]
100005ea:	4d24      	ldr	r5, [pc, #144]	; (1000067c <handle_address+0x320>)
100005ec:	682d      	ldr	r5, [r5, #0]
100005ee:	46ac      	mov	ip, r5
100005f0:	4d23      	ldr	r5, [pc, #140]	; (10000680 <handle_address+0x324>)
100005f2:	45ac      	cmp	ip, r5
100005f4:	d012      	beq.n	1000061c <handle_address+0x2c0>
100005f6:	4664      	mov	r4, ip
100005f8:	1c63      	adds	r3, r4, #1
100005fa:	4c22      	ldr	r4, [pc, #136]	; (10000684 <handle_address+0x328>)
100005fc:	46a1      	mov	r9, r4
100005fe:	2449      	movs	r4, #73	; 0x49
10000600:	46a2      	mov	sl, r4
10000602:	464c      	mov	r4, r9
10000604:	4667      	mov	r7, ip
10000606:	4655      	mov	r5, sl
10000608:	55e5      	strb	r5, [r4, r7]
1000060a:	17dc      	asrs	r4, r3, #31
1000060c:	0ce4      	lsrs	r4, r4, #19
1000060e:	46a4      	mov	ip, r4
10000610:	4463      	add	r3, ip
10000612:	04dd      	lsls	r5, r3, #19
10000614:	0ced      	lsrs	r5, r5, #19
10000616:	1b2d      	subs	r5, r5, r4
10000618:	4c18      	ldr	r4, [pc, #96]	; (1000067c <handle_address+0x320>)
1000061a:	6025      	str	r5, [r4, #0]
1000061c:	2800      	cmp	r0, #0
1000061e:	d18e      	bne.n	1000053e <handle_address+0x1e2>
10000620:	9b03      	ldr	r3, [sp, #12]
10000622:	2b00      	cmp	r3, #0
10000624:	d100      	bne.n	10000628 <handle_address+0x2cc>
10000626:	e771      	b.n	1000050c <handle_address+0x1b0>
10000628:	20d0      	movs	r0, #208	; 0xd0
1000062a:	0600      	lsls	r0, r0, #24
1000062c:	24ff      	movs	r4, #255	; 0xff
1000062e:	0224      	lsls	r4, r4, #8
10000630:	6284      	str	r4, [r0, #40]	; 0x28
10000632:	2480      	movs	r4, #128	; 0x80
10000634:	0524      	lsls	r4, r4, #20
10000636:	6144      	str	r4, [r0, #20]
10000638:	6144      	str	r4, [r0, #20]
1000063a:	6840      	ldr	r0, [r0, #4]
1000063c:	e787      	b.n	1000054e <handle_address+0x1f2>
1000063e:	4640      	mov	r0, r8
10000640:	2800      	cmp	r0, #0
10000642:	d187      	bne.n	10000554 <handle_address+0x1f8>
10000644:	480d      	ldr	r0, [pc, #52]	; (1000067c <handle_address+0x320>)
10000646:	6804      	ldr	r4, [r0, #0]
10000648:	480d      	ldr	r0, [pc, #52]	; (10000680 <handle_address+0x324>)
1000064a:	4284      	cmp	r4, r0
1000064c:	d00b      	beq.n	10000666 <handle_address+0x30a>
1000064e:	1c60      	adds	r0, r4, #1
10000650:	4d0c      	ldr	r5, [pc, #48]	; (10000684 <handle_address+0x328>)
10000652:	2750      	movs	r7, #80	; 0x50
10000654:	552f      	strb	r7, [r5, r4]
10000656:	17c4      	asrs	r4, r0, #31
10000658:	0ce4      	lsrs	r4, r4, #19
1000065a:	1900      	adds	r0, r0, r4
1000065c:	04c0      	lsls	r0, r0, #19
1000065e:	0cc0      	lsrs	r0, r0, #19
10000660:	1b00      	subs	r0, r0, r4
10000662:	4c06      	ldr	r4, [pc, #24]	; (1000067c <handle_address+0x320>)
10000664:	6020      	str	r0, [r4, #0]
10000666:	480b      	ldr	r0, [pc, #44]	; (10000694 <handle_address+0x338>)
10000668:	6804      	ldr	r4, [r0, #0]
1000066a:	3401      	adds	r4, #1
1000066c:	34ff      	adds	r4, #255	; 0xff
1000066e:	6004      	str	r4, [r0, #0]
10000670:	6804      	ldr	r4, [r0, #0]
10000672:	25fe      	movs	r5, #254	; 0xfe
10000674:	01ed      	lsls	r5, r5, #7
10000676:	402c      	ands	r4, r5
10000678:	6004      	str	r4, [r0, #0]
1000067a:	e76b      	b.n	10000554 <handle_address+0x1f8>
1000067c:	20005d44 	.word	0x20005d44
10000680:	00001fff 	.word	0x00001fff
10000684:	20005d54 	.word	0x20005d54
10000688:	80001fff 	.word	0x80001fff
1000068c:	ffffe000 	.word	0xffffe000
10000690:	20005d2c 	.word	0x20005d2c
10000694:	20005d30 	.word	0x20005d30
10000698:	200002a4 	.word	0x200002a4

1000069c <i2c_release>:
1000069c:	23d0      	movs	r3, #208	; 0xd0
1000069e:	061b      	lsls	r3, r3, #24
100006a0:	2180      	movs	r1, #128	; 0x80
100006a2:	0549      	lsls	r1, r1, #21
100006a4:	6259      	str	r1, [r3, #36]	; 0x24
100006a6:	2280      	movs	r2, #128	; 0x80
100006a8:	0292      	lsls	r2, r2, #10
100006aa:	625a      	str	r2, [r3, #36]	; 0x24
100006ac:	6199      	str	r1, [r3, #24]
100006ae:	619a      	str	r2, [r3, #24]
100006b0:	4770      	bx	lr

100006b2 <i2c_delay>:
100006b2:	b510      	push	{r4, lr}
100006b4:	2001      	movs	r0, #1
100006b6:	2100      	movs	r1, #0
100006b8:	f001 fa1a 	bl	10001af0 <sleep_us>
100006bc:	bd10      	pop	{r4, pc}

100006be <i2c_sda_low>:
100006be:	23d0      	movs	r3, #208	; 0xd0
100006c0:	061b      	lsls	r3, r3, #24
100006c2:	2280      	movs	r2, #128	; 0x80
100006c4:	0552      	lsls	r2, r2, #21
100006c6:	625a      	str	r2, [r3, #36]	; 0x24
100006c8:	619a      	str	r2, [r3, #24]
100006ca:	4770      	bx	lr

100006cc <i2c_sda_high>:
100006cc:	23d0      	movs	r3, #208	; 0xd0
100006ce:	061b      	lsls	r3, r3, #24
100006d0:	2280      	movs	r2, #128	; 0x80
100006d2:	0552      	lsls	r2, r2, #21
100006d4:	629a      	str	r2, [r3, #40]	; 0x28
100006d6:	4770      	bx	lr

100006d8 <i2c_scl_low>:
100006d8:	23d0      	movs	r3, #208	; 0xd0
100006da:	061b      	lsls	r3, r3, #24
100006dc:	2280      	movs	r2, #128	; 0x80
100006de:	0292      	lsls	r2, r2, #10
100006e0:	625a      	str	r2, [r3, #36]	; 0x24
100006e2:	619a      	str	r2, [r3, #24]
100006e4:	4770      	bx	lr

100006e6 <i2c_scl_high>:
100006e6:	23d0      	movs	r3, #208	; 0xd0
100006e8:	061b      	lsls	r3, r3, #24
100006ea:	2280      	movs	r2, #128	; 0x80
100006ec:	0292      	lsls	r2, r2, #10
100006ee:	629a      	str	r2, [r3, #40]	; 0x28
100006f0:	4770      	bx	lr

100006f2 <i2c_read_sda>:
100006f2:	23d0      	movs	r3, #208	; 0xd0
100006f4:	061b      	lsls	r3, r3, #24
100006f6:	685b      	ldr	r3, [r3, #4]
100006f8:	0f1b      	lsrs	r3, r3, #28
100006fa:	2001      	movs	r0, #1
100006fc:	4018      	ands	r0, r3
100006fe:	4770      	bx	lr

10000700 <i2c_start>:
10000700:	b510      	push	{r4, lr}
10000702:	0004      	movs	r4, r0
10000704:	f7ff ffdb 	bl	100006be <i2c_sda_low>
10000708:	0020      	movs	r0, r4
1000070a:	f7ff ffd2 	bl	100006b2 <i2c_delay>
1000070e:	0020      	movs	r0, r4
10000710:	f7ff ffe2 	bl	100006d8 <i2c_scl_low>
10000714:	0020      	movs	r0, r4
10000716:	f7ff ffcc 	bl	100006b2 <i2c_delay>
1000071a:	bd10      	pop	{r4, pc}

1000071c <i2c_stop>:
1000071c:	b510      	push	{r4, lr}
1000071e:	0004      	movs	r4, r0
10000720:	f7ff ffe1 	bl	100006e6 <i2c_scl_high>
10000724:	0020      	movs	r0, r4
10000726:	f7ff ffc4 	bl	100006b2 <i2c_delay>
1000072a:	0020      	movs	r0, r4
1000072c:	f7ff ffce 	bl	100006cc <i2c_sda_high>
10000730:	0020      	movs	r0, r4
10000732:	f7ff ffbe 	bl	100006b2 <i2c_delay>
10000736:	bd10      	pop	{r4, pc}

10000738 <i2c_send_byte>:
10000738:	b570      	push	{r4, r5, r6, lr}
1000073a:	0004      	movs	r4, r0
1000073c:	000d      	movs	r5, r1
1000073e:	2600      	movs	r6, #0
10000740:	e014      	b.n	1000076c <i2c_send_byte+0x34>
10000742:	0020      	movs	r0, r4
10000744:	f7ff ffc2 	bl	100006cc <i2c_sda_high>
10000748:	0020      	movs	r0, r4
1000074a:	f7ff ffb2 	bl	100006b2 <i2c_delay>
1000074e:	0020      	movs	r0, r4
10000750:	f7ff ffc9 	bl	100006e6 <i2c_scl_high>
10000754:	0020      	movs	r0, r4
10000756:	f7ff ffac 	bl	100006b2 <i2c_delay>
1000075a:	0020      	movs	r0, r4
1000075c:	f7ff ffbc 	bl	100006d8 <i2c_scl_low>
10000760:	0020      	movs	r0, r4
10000762:	f7ff ffa6 	bl	100006b2 <i2c_delay>
10000766:	006d      	lsls	r5, r5, #1
10000768:	b2ed      	uxtb	r5, r5
1000076a:	3601      	adds	r6, #1
1000076c:	2e07      	cmp	r6, #7
1000076e:	dc06      	bgt.n	1000077e <i2c_send_byte+0x46>
10000770:	b26b      	sxtb	r3, r5
10000772:	2b00      	cmp	r3, #0
10000774:	dbe5      	blt.n	10000742 <i2c_send_byte+0xa>
10000776:	0020      	movs	r0, r4
10000778:	f7ff ffa1 	bl	100006be <i2c_sda_low>
1000077c:	e7e4      	b.n	10000748 <i2c_send_byte+0x10>
1000077e:	0020      	movs	r0, r4
10000780:	f7ff ffa4 	bl	100006cc <i2c_sda_high>
10000784:	0020      	movs	r0, r4
10000786:	f7ff ffae 	bl	100006e6 <i2c_scl_high>
1000078a:	0020      	movs	r0, r4
1000078c:	f7ff ff91 	bl	100006b2 <i2c_delay>
10000790:	2564      	movs	r5, #100	; 0x64
10000792:	0020      	movs	r0, r4
10000794:	f7ff ffad 	bl	100006f2 <i2c_read_sda>
10000798:	2800      	cmp	r0, #0
1000079a:	d003      	beq.n	100007a4 <i2c_send_byte+0x6c>
1000079c:	3d01      	subs	r5, #1
1000079e:	2d00      	cmp	r5, #0
100007a0:	d1f7      	bne.n	10000792 <i2c_send_byte+0x5a>
100007a2:	e000      	b.n	100007a6 <i2c_send_byte+0x6e>
100007a4:	2501      	movs	r5, #1
100007a6:	0020      	movs	r0, r4
100007a8:	f7ff ff96 	bl	100006d8 <i2c_scl_low>
100007ac:	0020      	movs	r0, r4
100007ae:	f7ff ff80 	bl	100006b2 <i2c_delay>
100007b2:	0028      	movs	r0, r5
100007b4:	bd70      	pop	{r4, r5, r6, pc}

100007b6 <i2c_init>:
100007b6:	b510      	push	{r4, lr}
100007b8:	201c      	movs	r0, #28
100007ba:	f000 fc13 	bl	10000fe4 <gpio_init>
100007be:	2011      	movs	r0, #17
100007c0:	f000 fc10 	bl	10000fe4 <gpio_init>
100007c4:	bd10      	pop	{r4, pc}

100007c6 <oled_send_cmd>:
100007c6:	b5f8      	push	{r3, r4, r5, r6, r7, lr}
100007c8:	46ce      	mov	lr, r9
100007ca:	4647      	mov	r7, r8
100007cc:	b580      	push	{r7, lr}
100007ce:	0006      	movs	r6, r0
100007d0:	000f      	movs	r7, r1
100007d2:	0015      	movs	r5, r2
100007d4:	4698      	mov	r8, r3
100007d6:	9b08      	ldr	r3, [sp, #32]
100007d8:	4699      	mov	r9, r3
100007da:	6800      	ldr	r0, [r0, #0]
100007dc:	f7ff ff90 	bl	10000700 <i2c_start>
100007e0:	7931      	ldrb	r1, [r6, #4]
100007e2:	0049      	lsls	r1, r1, #1
100007e4:	b2c9      	uxtb	r1, r1
100007e6:	6830      	ldr	r0, [r6, #0]
100007e8:	f7ff ffa6 	bl	10000738 <i2c_send_byte>
100007ec:	4643      	mov	r3, r8
100007ee:	2b00      	cmp	r3, #0
100007f0:	d001      	beq.n	100007f6 <oled_send_cmd+0x30>
100007f2:	2400      	movs	r4, #0
100007f4:	e00a      	b.n	1000080c <oled_send_cmd+0x46>
100007f6:	2140      	movs	r1, #64	; 0x40
100007f8:	6830      	ldr	r0, [r6, #0]
100007fa:	f7ff ff9d 	bl	10000738 <i2c_send_byte>
100007fe:	e7f8      	b.n	100007f2 <oled_send_cmd+0x2c>
10000800:	2180      	movs	r1, #128	; 0x80
10000802:	6830      	ldr	r0, [r6, #0]
10000804:	f7ff ff98 	bl	10000738 <i2c_send_byte>
10000808:	e005      	b.n	10000816 <oled_send_cmd+0x50>
1000080a:	3401      	adds	r4, #1
1000080c:	42bc      	cmp	r4, r7
1000080e:	da0b      	bge.n	10000828 <oled_send_cmd+0x62>
10000810:	4643      	mov	r3, r8
10000812:	2b00      	cmp	r3, #0
10000814:	d1f4      	bne.n	10000800 <oled_send_cmd+0x3a>
10000816:	7829      	ldrb	r1, [r5, #0]
10000818:	6830      	ldr	r0, [r6, #0]
1000081a:	f7ff ff8d 	bl	10000738 <i2c_send_byte>
1000081e:	464b      	mov	r3, r9
10000820:	2b00      	cmp	r3, #0
10000822:	d1f2      	bne.n	1000080a <oled_send_cmd+0x44>
10000824:	3501      	adds	r5, #1
10000826:	e7f0      	b.n	1000080a <oled_send_cmd+0x44>
10000828:	6830      	ldr	r0, [r6, #0]
1000082a:	f7ff ff77 	bl	1000071c <i2c_stop>
1000082e:	bc0c      	pop	{r2, r3}
10000830:	4690      	mov	r8, r2
10000832:	4699      	mov	r9, r3
10000834:	bdf8      	pop	{r3, r4, r5, r6, r7, pc}

10000836 <oled_set_xy>:
10000836:	b570      	push	{r4, r5, r6, lr}
10000838:	b084      	sub	sp, #16
1000083a:	17cc      	asrs	r4, r1, #31
1000083c:	0e64      	lsrs	r4, r4, #25
1000083e:	1909      	adds	r1, r1, r4
10000840:	237f      	movs	r3, #127	; 0x7f
10000842:	4019      	ands	r1, r3
10000844:	1b09      	subs	r1, r1, r4
10000846:	17d3      	asrs	r3, r2, #31
10000848:	0e9b      	lsrs	r3, r3, #26
1000084a:	18d2      	adds	r2, r2, r3
1000084c:	243f      	movs	r4, #63	; 0x3f
1000084e:	4022      	ands	r2, r4
10000850:	1ad2      	subs	r2, r2, r3
10000852:	17d3      	asrs	r3, r2, #31
10000854:	3c38      	subs	r4, #56	; 0x38
10000856:	401c      	ands	r4, r3
10000858:	18a4      	adds	r4, r4, r2
1000085a:	10e4      	asrs	r4, r4, #3
1000085c:	3c50      	subs	r4, #80	; 0x50
1000085e:	aa03      	add	r2, sp, #12
10000860:	7014      	strb	r4, [r2, #0]
10000862:	17cd      	asrs	r5, r1, #31
10000864:	0f2e      	lsrs	r6, r5, #28
10000866:	198c      	adds	r4, r1, r6
10000868:	230f      	movs	r3, #15
1000086a:	401c      	ands	r4, r3
1000086c:	1ba4      	subs	r4, r4, r6
1000086e:	7054      	strb	r4, [r2, #1]
10000870:	402b      	ands	r3, r5
10000872:	185b      	adds	r3, r3, r1
10000874:	111b      	asrs	r3, r3, #4
10000876:	3310      	adds	r3, #16
10000878:	7093      	strb	r3, [r2, #2]
1000087a:	2300      	movs	r3, #0
1000087c:	9300      	str	r3, [sp, #0]
1000087e:	3301      	adds	r3, #1
10000880:	2103      	movs	r1, #3
10000882:	f7ff ffa0 	bl	100007c6 <oled_send_cmd>
10000886:	b004      	add	sp, #16
10000888:	bd70      	pop	{r4, r5, r6, pc}

1000088a <oled_gap>:
1000088a:	b500      	push	{lr}
1000088c:	b085      	sub	sp, #20
1000088e:	220f      	movs	r2, #15
10000890:	446a      	add	r2, sp
10000892:	2300      	movs	r3, #0
10000894:	7013      	strb	r3, [r2, #0]
10000896:	9300      	str	r3, [sp, #0]
10000898:	2101      	movs	r1, #1
1000089a:	f7ff ff94 	bl	100007c6 <oled_send_cmd>
1000089e:	b005      	add	sp, #20
100008a0:	bd00      	pop	{pc}
	...

100008a4 <oled_display_string>:
100008a4:	b5f0      	push	{r4, r5, r6, r7, lr}
100008a6:	46c6      	mov	lr, r8
100008a8:	b500      	push	{lr}
100008aa:	b082      	sub	sp, #8
100008ac:	0005      	movs	r5, r0
100008ae:	000e      	movs	r6, r1
100008b0:	0008      	movs	r0, r1
100008b2:	f004 fd47 	bl	10005344 <strlen>
100008b6:	0007      	movs	r7, r0
100008b8:	2400      	movs	r4, #0
100008ba:	42bc      	cmp	r4, r7
100008bc:	da13      	bge.n	100008e6 <oled_display_string+0x42>
100008be:	1c73      	adds	r3, r6, #1
100008c0:	4698      	mov	r8, r3
100008c2:	7833      	ldrb	r3, [r6, #0]
100008c4:	3b20      	subs	r3, #32
100008c6:	009a      	lsls	r2, r3, #2
100008c8:	18d2      	adds	r2, r2, r3
100008ca:	4b09      	ldr	r3, [pc, #36]	; (100008f0 <oled_display_string+0x4c>)
100008cc:	18d2      	adds	r2, r2, r3
100008ce:	2300      	movs	r3, #0
100008d0:	9300      	str	r3, [sp, #0]
100008d2:	2105      	movs	r1, #5
100008d4:	0028      	movs	r0, r5
100008d6:	f7ff ff76 	bl	100007c6 <oled_send_cmd>
100008da:	0028      	movs	r0, r5
100008dc:	f7ff ffd5 	bl	1000088a <oled_gap>
100008e0:	3401      	adds	r4, #1
100008e2:	4646      	mov	r6, r8
100008e4:	e7e9      	b.n	100008ba <oled_display_string+0x16>
100008e6:	b002      	add	sp, #8
100008e8:	bc04      	pop	{r2}
100008ea:	4690      	mov	r8, r2
100008ec:	bdf0      	pop	{r4, r5, r6, r7, pc}
100008ee:	46c0      	nop			; (mov r8, r8)
100008f0:	10005468 	.word	0x10005468

100008f4 <oled_clear_display>:
100008f4:	b530      	push	{r4, r5, lr}
100008f6:	b083      	sub	sp, #12
100008f8:	0005      	movs	r5, r0
100008fa:	2400      	movs	r4, #0
100008fc:	e00d      	b.n	1000091a <oled_clear_display+0x26>
100008fe:	0022      	movs	r2, r4
10000900:	2100      	movs	r1, #0
10000902:	0028      	movs	r0, r5
10000904:	f7ff ff97 	bl	10000836 <oled_set_xy>
10000908:	2301      	movs	r3, #1
1000090a:	9300      	str	r3, [sp, #0]
1000090c:	2300      	movs	r3, #0
1000090e:	4a05      	ldr	r2, [pc, #20]	; (10000924 <oled_clear_display+0x30>)
10000910:	2180      	movs	r1, #128	; 0x80
10000912:	0028      	movs	r0, r5
10000914:	f7ff ff57 	bl	100007c6 <oled_send_cmd>
10000918:	3408      	adds	r4, #8
1000091a:	2c3f      	cmp	r4, #63	; 0x3f
1000091c:	ddef      	ble.n	100008fe <oled_clear_display+0xa>
1000091e:	b003      	add	sp, #12
10000920:	bd30      	pop	{r4, r5, pc}
10000922:	46c0      	nop			; (mov r8, r8)
10000924:	20005d4f 	.word	0x20005d4f

10000928 <oled_setup>:
10000928:	b510      	push	{r4, lr}
1000092a:	b082      	sub	sp, #8
1000092c:	0004      	movs	r4, r0
1000092e:	6800      	ldr	r0, [r0, #0]
10000930:	f7ff feb4 	bl	1000069c <i2c_release>
10000934:	2300      	movs	r3, #0
10000936:	4a0c      	ldr	r2, [pc, #48]	; (10000968 <oled_setup+0x40>)
10000938:	4293      	cmp	r3, r2
1000093a:	dc01      	bgt.n	10000940 <oled_setup+0x18>
1000093c:	3301      	adds	r3, #1
1000093e:	e7fa      	b.n	10000936 <oled_setup+0xe>
10000940:	6820      	ldr	r0, [r4, #0]
10000942:	f7ff fedd 	bl	10000700 <i2c_start>
10000946:	6820      	ldr	r0, [r4, #0]
10000948:	f7ff fee8 	bl	1000071c <i2c_stop>
1000094c:	2300      	movs	r3, #0
1000094e:	9300      	str	r3, [sp, #0]
10000950:	3301      	adds	r3, #1
10000952:	4a06      	ldr	r2, [pc, #24]	; (1000096c <oled_setup+0x44>)
10000954:	211e      	movs	r1, #30
10000956:	0020      	movs	r0, r4
10000958:	f7ff ff35 	bl	100007c6 <oled_send_cmd>
1000095c:	0020      	movs	r0, r4
1000095e:	f7ff ffc9 	bl	100008f4 <oled_clear_display>
10000962:	b002      	add	sp, #8
10000964:	bd10      	pop	{r4, pc}
10000966:	46c0      	nop			; (mov r8, r8)
10000968:	0000270f 	.word	0x0000270f
1000096c:	10005648 	.word	0x10005648

10000970 <main>:
10000970:	b5f0      	push	{r4, r5, r6, r7, lr}
10000972:	46de      	mov	lr, fp
10000974:	4657      	mov	r7, sl
10000976:	464e      	mov	r6, r9
10000978:	4645      	mov	r5, r8
1000097a:	b5e0      	push	{r5, r6, r7, lr}
1000097c:	b097      	sub	sp, #92	; 0x5c
1000097e:	f004 fa7b 	bl	10004e78 <stdio_init_all>
10000982:	48e2      	ldr	r0, [pc, #904]	; (10000d0c <main+0x39c>)
10000984:	f004 fa3c 	bl	10004e00 <__wrap_puts>
10000988:	48e1      	ldr	r0, [pc, #900]	; (10000d10 <main+0x3a0>)
1000098a:	f004 fa69 	bl	10004e60 <__wrap_printf>
1000098e:	2003      	movs	r0, #3
10000990:	f000 fb28 	bl	10000fe4 <gpio_init>
10000994:	2014      	movs	r0, #20
10000996:	f000 fb25 	bl	10000fe4 <gpio_init>
1000099a:	2007      	movs	r0, #7
1000099c:	f000 fb22 	bl	10000fe4 <gpio_init>
100009a0:	2006      	movs	r0, #6
100009a2:	f000 fb1f 	bl	10000fe4 <gpio_init>
100009a6:	2002      	movs	r0, #2
100009a8:	f000 fb1c 	bl	10000fe4 <gpio_init>
100009ac:	2013      	movs	r0, #19
100009ae:	f000 fb19 	bl	10000fe4 <gpio_init>
100009b2:	2012      	movs	r0, #18
100009b4:	f000 fb16 	bl	10000fe4 <gpio_init>
100009b8:	2010      	movs	r0, #16
100009ba:	f000 fb13 	bl	10000fe4 <gpio_init>
100009be:	2400      	movs	r4, #0
100009c0:	e005      	b.n	100009ce <main+0x5e>
100009c2:	00a2      	lsls	r2, r4, #2
100009c4:	4bd3      	ldr	r3, [pc, #844]	; (10000d14 <main+0x3a4>)
100009c6:	58d0      	ldr	r0, [r2, r3]
100009c8:	f000 fb0c 	bl	10000fe4 <gpio_init>
100009cc:	3401      	adds	r4, #1
100009ce:	2c07      	cmp	r4, #7
100009d0:	ddf7      	ble.n	100009c2 <main+0x52>
100009d2:	24d0      	movs	r4, #208	; 0xd0
100009d4:	0624      	lsls	r4, r4, #24
100009d6:	2308      	movs	r3, #8
100009d8:	62a3      	str	r3, [r4, #40]	; 0x28
100009da:	2380      	movs	r3, #128	; 0x80
100009dc:	035b      	lsls	r3, r3, #13
100009de:	62a3      	str	r3, [r4, #40]	; 0x28
100009e0:	2380      	movs	r3, #128	; 0x80
100009e2:	62a3      	str	r3, [r4, #40]	; 0x28
100009e4:	3b40      	subs	r3, #64	; 0x40
100009e6:	62a3      	str	r3, [r4, #40]	; 0x28
100009e8:	3b3c      	subs	r3, #60	; 0x3c
100009ea:	62a3      	str	r3, [r4, #40]	; 0x28
100009ec:	201b      	movs	r0, #27
100009ee:	f000 faf9 	bl	10000fe4 <gpio_init>
100009f2:	2380      	movs	r3, #128	; 0x80
100009f4:	051b      	lsls	r3, r3, #20
100009f6:	6163      	str	r3, [r4, #20]
100009f8:	6263      	str	r3, [r4, #36]	; 0x24
100009fa:	22ff      	movs	r2, #255	; 0xff
100009fc:	0212      	lsls	r2, r2, #8
100009fe:	62a2      	str	r2, [r4, #40]	; 0x28
10000a00:	6163      	str	r3, [r4, #20]
10000a02:	2180      	movs	r1, #128	; 0x80
10000a04:	0309      	lsls	r1, r1, #12
10000a06:	6261      	str	r1, [r4, #36]	; 0x24
10000a08:	2280      	movs	r2, #128	; 0x80
10000a0a:	02d2      	lsls	r2, r2, #11
10000a0c:	6262      	str	r2, [r4, #36]	; 0x24
10000a0e:	2380      	movs	r3, #128	; 0x80
10000a10:	025b      	lsls	r3, r3, #9
10000a12:	6263      	str	r3, [r4, #36]	; 0x24
10000a14:	61a1      	str	r1, [r4, #24]
10000a16:	61a2      	str	r2, [r4, #24]
10000a18:	61a3      	str	r3, [r4, #24]
10000a1a:	2015      	movs	r0, #21
10000a1c:	f000 fae2 	bl	10000fe4 <gpio_init>
10000a20:	2380      	movs	r3, #128	; 0x80
10000a22:	039b      	lsls	r3, r3, #14
10000a24:	6263      	str	r3, [r4, #36]	; 0x24
10000a26:	6163      	str	r3, [r4, #20]
10000a28:	2016      	movs	r0, #22
10000a2a:	f000 fadb 	bl	10000fe4 <gpio_init>
10000a2e:	2380      	movs	r3, #128	; 0x80
10000a30:	03db      	lsls	r3, r3, #15
10000a32:	6263      	str	r3, [r4, #36]	; 0x24
10000a34:	61a3      	str	r3, [r4, #24]
10000a36:	211f      	movs	r1, #31
10000a38:	201a      	movs	r0, #26
10000a3a:	f000 faa1 	bl	10000f80 <gpio_set_function>
10000a3e:	2400      	movs	r4, #0
10000a40:	e005      	b.n	10000a4e <main+0xde>
10000a42:	00a2      	lsls	r2, r4, #2
10000a44:	4bb4      	ldr	r3, [pc, #720]	; (10000d18 <main+0x3a8>)
10000a46:	58d0      	ldr	r0, [r2, r3]
10000a48:	f000 facc 	bl	10000fe4 <gpio_init>
10000a4c:	3401      	adds	r4, #1
10000a4e:	2c07      	cmp	r4, #7
10000a50:	ddf7      	ble.n	10000a42 <main+0xd2>
10000a52:	2300      	movs	r3, #0
10000a54:	e008      	b.n	10000a68 <main+0xf8>
10000a56:	0099      	lsls	r1, r3, #2
10000a58:	4aaf      	ldr	r2, [pc, #700]	; (10000d18 <main+0x3a8>)
10000a5a:	5889      	ldr	r1, [r1, r2]
10000a5c:	2201      	movs	r2, #1
10000a5e:	408a      	lsls	r2, r1
10000a60:	21d0      	movs	r1, #208	; 0xd0
10000a62:	0609      	lsls	r1, r1, #24
10000a64:	624a      	str	r2, [r1, #36]	; 0x24
10000a66:	3301      	adds	r3, #1
10000a68:	2b07      	cmp	r3, #7
10000a6a:	ddf4      	ble.n	10000a56 <main+0xe6>
10000a6c:	2300      	movs	r3, #0
10000a6e:	e008      	b.n	10000a82 <main+0x112>
10000a70:	0099      	lsls	r1, r3, #2
10000a72:	4aa9      	ldr	r2, [pc, #676]	; (10000d18 <main+0x3a8>)
10000a74:	5889      	ldr	r1, [r1, r2]
10000a76:	2201      	movs	r2, #1
10000a78:	408a      	lsls	r2, r1
10000a7a:	21d0      	movs	r1, #208	; 0xd0
10000a7c:	0609      	lsls	r1, r1, #24
10000a7e:	618a      	str	r2, [r1, #24]
10000a80:	3301      	adds	r3, #1
10000a82:	2b07      	cmp	r3, #7
10000a84:	ddf4      	ble.n	10000a70 <main+0x100>
10000a86:	48a5      	ldr	r0, [pc, #660]	; (10000d1c <main+0x3ac>)
10000a88:	f004 f9ea 	bl	10004e60 <__wrap_printf>
10000a8c:	48a4      	ldr	r0, [pc, #656]	; (10000d20 <main+0x3b0>)
10000a8e:	f7ff fe92 	bl	100007b6 <i2c_init>
10000a92:	4ca4      	ldr	r4, [pc, #656]	; (10000d24 <main+0x3b4>)
10000a94:	0020      	movs	r0, r4
10000a96:	f7ff ff47 	bl	10000928 <oled_setup>
10000a9a:	48a3      	ldr	r0, [pc, #652]	; (10000d28 <main+0x3b8>)
10000a9c:	f004 fc40 	bl	10005320 <multicore_launch_core1>
10000aa0:	2100      	movs	r1, #0
10000aa2:	200f      	movs	r0, #15
10000aa4:	f001 fdd8 	bl	10002658 <irq_set_mask_enabled>
10000aa8:	23d0      	movs	r3, #208	; 0xd0
10000aaa:	061b      	lsls	r3, r3, #24
10000aac:	6859      	ldr	r1, [r3, #4]
10000aae:	08c9      	lsrs	r1, r1, #3
10000ab0:	2201      	movs	r2, #1
10000ab2:	4011      	ands	r1, r2
10000ab4:	000f      	movs	r7, r1
10000ab6:	6859      	ldr	r1, [r3, #4]
10000ab8:	0d09      	lsrs	r1, r1, #20
10000aba:	4011      	ands	r1, r2
10000abc:	9102      	str	r1, [sp, #8]
10000abe:	6859      	ldr	r1, [r3, #4]
10000ac0:	0989      	lsrs	r1, r1, #6
10000ac2:	4011      	ands	r1, r2
10000ac4:	9103      	str	r1, [sp, #12]
10000ac6:	6859      	ldr	r1, [r3, #4]
10000ac8:	09c9      	lsrs	r1, r1, #7
10000aca:	400a      	ands	r2, r1
10000acc:	9204      	str	r2, [sp, #16]
10000ace:	685b      	ldr	r3, [r3, #4]
10000ad0:	488e      	ldr	r0, [pc, #568]	; (10000d0c <main+0x39c>)
10000ad2:	f004 f995 	bl	10004e00 <__wrap_puts>
10000ad6:	f004 f983 	bl	10004de0 <stdio_flush>
10000ada:	0020      	movs	r0, r4
10000adc:	f7ff ff0a 	bl	100008f4 <oled_clear_display>
10000ae0:	2200      	movs	r2, #0
10000ae2:	2100      	movs	r1, #0
10000ae4:	0020      	movs	r0, r4
10000ae6:	f7ff fea6 	bl	10000836 <oled_set_xy>
10000aea:	4990      	ldr	r1, [pc, #576]	; (10000d2c <main+0x3bc>)
10000aec:	0020      	movs	r0, r4
10000aee:	f7ff fed9 	bl	100008a4 <oled_display_string>
10000af2:	e1f2      	b.n	10000eda <main+0x56a>
10000af4:	4b8e      	ldr	r3, [pc, #568]	; (10000d30 <main+0x3c0>)
10000af6:	6818      	ldr	r0, [r3, #0]
10000af8:	4b8e      	ldr	r3, [pc, #568]	; (10000d34 <main+0x3c4>)
10000afa:	681c      	ldr	r4, [r3, #0]
10000afc:	0025      	movs	r5, r4
10000afe:	3508      	adds	r5, #8
10000b00:	00ad      	lsls	r5, r5, #2
10000b02:	1945      	adds	r5, r0, r5
10000b04:	6842      	ldr	r2, [r0, #4]
10000b06:	0021      	movs	r1, r4
10000b08:	3108      	adds	r1, #8
10000b0a:	2301      	movs	r3, #1
10000b0c:	408b      	lsls	r3, r1
10000b0e:	4213      	tst	r3, r2
10000b10:	d1f8      	bne.n	10000b04 <main+0x194>
10000b12:	78ea      	ldrb	r2, [r5, #3]
10000b14:	4c88      	ldr	r4, [pc, #544]	; (10000d38 <main+0x3c8>)
10000b16:	6820      	ldr	r0, [r4, #0]
10000b18:	4b88      	ldr	r3, [pc, #544]	; (10000d3c <main+0x3cc>)
10000b1a:	541a      	strb	r2, [r3, r0]
10000b1c:	3001      	adds	r0, #1
10000b1e:	21fa      	movs	r1, #250	; 0xfa
10000b20:	0089      	lsls	r1, r1, #2
10000b22:	f003 f8c9 	bl	10003cb8 <__wrap___aeabi_idiv>
10000b26:	6021      	str	r1, [r4, #0]
10000b28:	e1dc      	b.n	10000ee4 <main+0x574>
10000b2a:	2e00      	cmp	r6, #0
10000b2c:	d000      	beq.n	10000b30 <main+0x1c0>
10000b2e:	e1fa      	b.n	10000f26 <main+0x5b6>
10000b30:	2201      	movs	r2, #1
10000b32:	2100      	movs	r1, #0
10000b34:	487b      	ldr	r0, [pc, #492]	; (10000d24 <main+0x3b4>)
10000b36:	f7ff fe7e 	bl	10000836 <oled_set_xy>
10000b3a:	4981      	ldr	r1, [pc, #516]	; (10000d40 <main+0x3d0>)
10000b3c:	4879      	ldr	r0, [pc, #484]	; (10000d24 <main+0x3b4>)
10000b3e:	f7ff feb1 	bl	100008a4 <oled_display_string>
10000b42:	4643      	mov	r3, r8
10000b44:	2b00      	cmp	r3, #0
10000b46:	d100      	bne.n	10000b4a <main+0x1da>
10000b48:	e0a1      	b.n	10000c8e <main+0x31e>
10000b4a:	23d0      	movs	r3, #208	; 0xd0
10000b4c:	061b      	lsls	r3, r3, #24
10000b4e:	22ff      	movs	r2, #255	; 0xff
10000b50:	0212      	lsls	r2, r2, #8
10000b52:	629a      	str	r2, [r3, #40]	; 0x28
10000b54:	2280      	movs	r2, #128	; 0x80
10000b56:	0512      	lsls	r2, r2, #20
10000b58:	615a      	str	r2, [r3, #20]
10000b5a:	4b7a      	ldr	r3, [pc, #488]	; (10000d44 <main+0x3d4>)
10000b5c:	681b      	ldr	r3, [r3, #0]
10000b5e:	2b00      	cmp	r3, #0
10000b60:	d000      	beq.n	10000b64 <main+0x1f4>
10000b62:	e1e0      	b.n	10000f26 <main+0x5b6>
10000b64:	4b72      	ldr	r3, [pc, #456]	; (10000d30 <main+0x3c0>)
10000b66:	681b      	ldr	r3, [r3, #0]
10000b68:	9309      	str	r3, [sp, #36]	; 0x24
10000b6a:	4977      	ldr	r1, [pc, #476]	; (10000d48 <main+0x3d8>)
10000b6c:	0018      	movs	r0, r3
10000b6e:	f004 fab5 	bl	100050dc <pio_add_program>
10000b72:	900a      	str	r0, [sp, #40]	; 0x28
10000b74:	4b75      	ldr	r3, [pc, #468]	; (10000d4c <main+0x3dc>)
10000b76:	6018      	str	r0, [r3, #0]
10000b78:	4b6d      	ldr	r3, [pc, #436]	; (10000d30 <main+0x3c0>)
10000b7a:	6818      	ldr	r0, [r3, #0]
10000b7c:	4b6d      	ldr	r3, [pc, #436]	; (10000d34 <main+0x3c4>)
10000b7e:	681b      	ldr	r3, [r3, #0]
10000b80:	0019      	movs	r1, r3
10000b82:	930b      	str	r3, [sp, #44]	; 0x2c
10000b84:	2300      	movs	r3, #0
10000b86:	9300      	str	r3, [sp, #0]
10000b88:	3301      	adds	r3, #1
10000b8a:	220c      	movs	r2, #12
10000b8c:	9009      	str	r0, [sp, #36]	; 0x24
10000b8e:	f004 fac1 	bl	10005114 <pio_sm_set_consecutive_pindirs>
10000b92:	4b6f      	ldr	r3, [pc, #444]	; (10000d50 <main+0x3e0>)
10000b94:	9809      	ldr	r0, [sp, #36]	; 0x24
10000b96:	4298      	cmp	r0, r3
10000b98:	d075      	beq.n	10000c86 <main+0x316>
10000b9a:	2107      	movs	r1, #7
10000b9c:	200c      	movs	r0, #12
10000b9e:	f000 f9ef 	bl	10000f80 <gpio_set_function>
10000ba2:	2200      	movs	r2, #0
10000ba4:	2101      	movs	r1, #1
10000ba6:	200c      	movs	r0, #12
10000ba8:	f000 fa02 	bl	10000fb0 <gpio_set_pulls>
10000bac:	2300      	movs	r3, #0
10000bae:	9315      	str	r3, [sp, #84]	; 0x54
10000bb0:	2380      	movs	r3, #128	; 0x80
10000bb2:	025b      	lsls	r3, r3, #9
10000bb4:	9312      	str	r3, [sp, #72]	; 0x48
10000bb6:	23f8      	movs	r3, #248	; 0xf8
10000bb8:	025b      	lsls	r3, r3, #9
10000bba:	9313      	str	r3, [sp, #76]	; 0x4c
10000bbc:	23c0      	movs	r3, #192	; 0xc0
10000bbe:	031b      	lsls	r3, r3, #12
10000bc0:	9314      	str	r3, [sp, #80]	; 0x50
10000bc2:	2210      	movs	r2, #16
10000bc4:	a912      	add	r1, sp, #72	; 0x48
10000bc6:	a80e      	add	r0, sp, #56	; 0x38
10000bc8:	f004 f814 	bl	10004bf4 <__wrap___aeabi_memcpy>
10000bcc:	9b0a      	ldr	r3, [sp, #40]	; 0x28
10000bce:	001a      	movs	r2, r3
10000bd0:	3208      	adds	r2, #8
10000bd2:	01db      	lsls	r3, r3, #7
10000bd4:	0312      	lsls	r2, r2, #12
10000bd6:	4313      	orrs	r3, r2
10000bd8:	930f      	str	r3, [sp, #60]	; 0x3c
10000bda:	2210      	movs	r2, #16
10000bdc:	a90e      	add	r1, sp, #56	; 0x38
10000bde:	a812      	add	r0, sp, #72	; 0x48
10000be0:	f004 f808 	bl	10004bf4 <__wrap___aeabi_memcpy>
10000be4:	9b15      	ldr	r3, [sp, #84]	; 0x54
10000be6:	4a5b      	ldr	r2, [pc, #364]	; (10000d54 <main+0x3e4>)
10000be8:	401a      	ands	r2, r3
10000bea:	23c0      	movs	r3, #192	; 0xc0
10000bec:	02db      	lsls	r3, r3, #11
10000bee:	4313      	orrs	r3, r2
10000bf0:	9315      	str	r3, [sp, #84]	; 0x54
10000bf2:	9b13      	ldr	r3, [sp, #76]	; 0x4c
10000bf4:	4a58      	ldr	r2, [pc, #352]	; (10000d58 <main+0x3e8>)
10000bf6:	401a      	ands	r2, r3
10000bf8:	23c0      	movs	r3, #192	; 0xc0
10000bfa:	051b      	lsls	r3, r3, #20
10000bfc:	4313      	orrs	r3, r2
10000bfe:	9313      	str	r3, [sp, #76]	; 0x4c
10000c00:	9b14      	ldr	r3, [sp, #80]	; 0x50
10000c02:	930c      	str	r3, [sp, #48]	; 0x30
10000c04:	4a55      	ldr	r2, [pc, #340]	; (10000d5c <main+0x3ec>)
10000c06:	401a      	ands	r2, r3
10000c08:	2380      	movs	r3, #128	; 0x80
10000c0a:	02db      	lsls	r3, r3, #11
10000c0c:	4313      	orrs	r3, r2
10000c0e:	009b      	lsls	r3, r3, #2
10000c10:	089b      	lsrs	r3, r3, #2
10000c12:	2280      	movs	r2, #128	; 0x80
10000c14:	0612      	lsls	r2, r2, #24
10000c16:	4313      	orrs	r3, r2
10000c18:	9314      	str	r3, [sp, #80]	; 0x50
10000c1a:	2005      	movs	r0, #5
10000c1c:	f001 fcbc 	bl	10002598 <clock_get_hz>
10000c20:	f003 ff12 	bl	10004a48 <__wrap___aeabi_ui2f>
10000c24:	494e      	ldr	r1, [pc, #312]	; (10000d60 <main+0x3f0>)
10000c26:	f003 fef0 	bl	10004a0a <__wrap___aeabi_fdiv>
10000c2a:	900d      	str	r0, [sp, #52]	; 0x34
10000c2c:	f003 ff34 	bl	10004a98 <__wrap___aeabi_f2uiz>
10000c30:	b283      	uxth	r3, r0
10000c32:	930c      	str	r3, [sp, #48]	; 0x30
10000c34:	2b00      	cmp	r3, #0
10000c36:	d028      	beq.n	10000c8a <main+0x31a>
10000c38:	0018      	movs	r0, r3
10000c3a:	f003 ff05 	bl	10004a48 <__wrap___aeabi_ui2f>
10000c3e:	1c01      	adds	r1, r0, #0
10000c40:	980d      	ldr	r0, [sp, #52]	; 0x34
10000c42:	f003 fed8 	bl	100049f6 <__wrap___aeabi_fsub>
10000c46:	2187      	movs	r1, #135	; 0x87
10000c48:	05c9      	lsls	r1, r1, #23
10000c4a:	f003 fef4 	bl	10004a36 <__wrap___aeabi_fmul>
10000c4e:	f003 ff23 	bl	10004a98 <__wrap___aeabi_f2uiz>
10000c52:	b2c0      	uxtb	r0, r0
10000c54:	0200      	lsls	r0, r0, #8
10000c56:	9b0c      	ldr	r3, [sp, #48]	; 0x30
10000c58:	041b      	lsls	r3, r3, #16
10000c5a:	4318      	orrs	r0, r3
10000c5c:	9012      	str	r0, [sp, #72]	; 0x48
10000c5e:	ab12      	add	r3, sp, #72	; 0x48
10000c60:	9a0a      	ldr	r2, [sp, #40]	; 0x28
10000c62:	990b      	ldr	r1, [sp, #44]	; 0x2c
10000c64:	9809      	ldr	r0, [sp, #36]	; 0x24
10000c66:	f004 fa8d 	bl	10005184 <pio_sm_init>
10000c6a:	9809      	ldr	r0, [sp, #36]	; 0x24
10000c6c:	6803      	ldr	r3, [r0, #0]
10000c6e:	469c      	mov	ip, r3
10000c70:	2101      	movs	r1, #1
10000c72:	000b      	movs	r3, r1
10000c74:	9a0b      	ldr	r2, [sp, #44]	; 0x2c
10000c76:	4093      	lsls	r3, r2
10000c78:	4662      	mov	r2, ip
10000c7a:	439a      	bics	r2, r3
10000c7c:	4313      	orrs	r3, r2
10000c7e:	6003      	str	r3, [r0, #0]
10000c80:	4b30      	ldr	r3, [pc, #192]	; (10000d44 <main+0x3d4>)
10000c82:	6019      	str	r1, [r3, #0]
10000c84:	e14f      	b.n	10000f26 <main+0x5b6>
10000c86:	2106      	movs	r1, #6
10000c88:	e788      	b.n	10000b9c <main+0x22c>
10000c8a:	2000      	movs	r0, #0
10000c8c:	e7e2      	b.n	10000c54 <main+0x2e4>
10000c8e:	200c      	movs	r0, #12
10000c90:	f000 f9a8 	bl	10000fe4 <gpio_init>
10000c94:	2200      	movs	r2, #0
10000c96:	2100      	movs	r1, #0
10000c98:	200c      	movs	r0, #12
10000c9a:	f000 f989 	bl	10000fb0 <gpio_set_pulls>
10000c9e:	4b29      	ldr	r3, [pc, #164]	; (10000d44 <main+0x3d4>)
10000ca0:	2200      	movs	r2, #0
10000ca2:	601a      	str	r2, [r3, #0]
10000ca4:	464b      	mov	r3, r9
10000ca6:	2b00      	cmp	r3, #0
10000ca8:	d062      	beq.n	10000d70 <main+0x400>
10000caa:	4653      	mov	r3, sl
10000cac:	2b00      	cmp	r3, #0
10000cae:	d012      	beq.n	10000cd6 <main+0x366>
10000cb0:	4b2c      	ldr	r3, [pc, #176]	; (10000d64 <main+0x3f4>)
10000cb2:	681a      	ldr	r2, [r3, #0]
10000cb4:	4b2c      	ldr	r3, [pc, #176]	; (10000d68 <main+0x3f8>)
10000cb6:	429a      	cmp	r2, r3
10000cb8:	d100      	bne.n	10000cbc <main+0x34c>
10000cba:	e134      	b.n	10000f26 <main+0x5b6>
10000cbc:	1c53      	adds	r3, r2, #1
10000cbe:	492b      	ldr	r1, [pc, #172]	; (10000d6c <main+0x3fc>)
10000cc0:	2043      	movs	r0, #67	; 0x43
10000cc2:	5488      	strb	r0, [r1, r2]
10000cc4:	17da      	asrs	r2, r3, #31
10000cc6:	0cd2      	lsrs	r2, r2, #19
10000cc8:	189b      	adds	r3, r3, r2
10000cca:	04db      	lsls	r3, r3, #19
10000ccc:	0cdb      	lsrs	r3, r3, #19
10000cce:	1a9b      	subs	r3, r3, r2
10000cd0:	4a24      	ldr	r2, [pc, #144]	; (10000d64 <main+0x3f4>)
10000cd2:	6013      	str	r3, [r2, #0]
10000cd4:	e127      	b.n	10000f26 <main+0x5b6>
10000cd6:	23d0      	movs	r3, #208	; 0xd0
10000cd8:	061b      	lsls	r3, r3, #24
10000cda:	2280      	movs	r2, #128	; 0x80
10000cdc:	0512      	lsls	r2, r2, #20
10000cde:	619a      	str	r2, [r3, #24]
10000ce0:	2280      	movs	r2, #128	; 0x80
10000ce2:	0392      	lsls	r2, r2, #14
10000ce4:	619a      	str	r2, [r3, #24]
10000ce6:	4b1f      	ldr	r3, [pc, #124]	; (10000d64 <main+0x3f4>)
10000ce8:	681a      	ldr	r2, [r3, #0]
10000cea:	4b1f      	ldr	r3, [pc, #124]	; (10000d68 <main+0x3f8>)
10000cec:	429a      	cmp	r2, r3
10000cee:	d100      	bne.n	10000cf2 <main+0x382>
10000cf0:	e119      	b.n	10000f26 <main+0x5b6>
10000cf2:	1c53      	adds	r3, r2, #1
10000cf4:	491d      	ldr	r1, [pc, #116]	; (10000d6c <main+0x3fc>)
10000cf6:	2044      	movs	r0, #68	; 0x44
10000cf8:	5488      	strb	r0, [r1, r2]
10000cfa:	17da      	asrs	r2, r3, #31
10000cfc:	0cd2      	lsrs	r2, r2, #19
10000cfe:	189b      	adds	r3, r3, r2
10000d00:	04db      	lsls	r3, r3, #19
10000d02:	0cdb      	lsrs	r3, r3, #19
10000d04:	1a9b      	subs	r3, r3, r2
10000d06:	4a17      	ldr	r2, [pc, #92]	; (10000d64 <main+0x3f4>)
10000d08:	6013      	str	r3, [r2, #0]
10000d0a:	e10c      	b.n	10000f26 <main+0x5b6>
10000d0c:	10005400 	.word	0x10005400
10000d10:	10005414 	.word	0x10005414
10000d14:	20000258 	.word	0x20000258
10000d18:	2000027c 	.word	0x2000027c
10000d1c:	10005428 	.word	0x10005428
10000d20:	20000278 	.word	0x20000278
10000d24:	2000029c 	.word	0x2000029c
10000d28:	1000035d 	.word	0x1000035d
10000d2c:	1000543c 	.word	0x1000543c
10000d30:	20005a8c 	.word	0x20005a8c
10000d34:	20005d24 	.word	0x20005d24
10000d38:	20005cc4 	.word	0x20005cc4
10000d3c:	20007d58 	.word	0x20007d58
10000d40:	10005450 	.word	0x10005450
10000d44:	20005d20 	.word	0x20005d20
10000d48:	10005668 	.word	0x10005668
10000d4c:	20005d50 	.word	0x20005d50
10000d50:	50200000 	.word	0x50200000
10000d54:	fff07fff 	.word	0xfff07fff
10000d58:	e0ffffff 	.word	0xe0ffffff
10000d5c:	fe0affff 	.word	0xfe0affff
10000d60:	47960000 	.word	0x47960000
10000d64:	20005d44 	.word	0x20005d44
10000d68:	00001fff 	.word	0x00001fff
10000d6c:	20005d54 	.word	0x20005d54
10000d70:	23d0      	movs	r3, #208	; 0xd0
10000d72:	061b      	lsls	r3, r3, #24
10000d74:	2280      	movs	r2, #128	; 0x80
10000d76:	0512      	lsls	r2, r2, #20
10000d78:	619a      	str	r2, [r3, #24]
10000d7a:	22ff      	movs	r2, #255	; 0xff
10000d7c:	0212      	lsls	r2, r2, #8
10000d7e:	625a      	str	r2, [r3, #36]	; 0x24
10000d80:	4976      	ldr	r1, [pc, #472]	; (10000f5c <main+0x5ec>)
10000d82:	6809      	ldr	r1, [r1, #0]
10000d84:	4876      	ldr	r0, [pc, #472]	; (10000f60 <main+0x5f0>)
10000d86:	6800      	ldr	r0, [r0, #0]
10000d88:	4301      	orrs	r1, r0
10000d8a:	4876      	ldr	r0, [pc, #472]	; (10000f64 <main+0x5f4>)
10000d8c:	5c41      	ldrb	r1, [r0, r1]
10000d8e:	0209      	lsls	r1, r1, #8
10000d90:	6159      	str	r1, [r3, #20]
10000d92:	404a      	eors	r2, r1
10000d94:	619a      	str	r2, [r3, #24]
10000d96:	4b74      	ldr	r3, [pc, #464]	; (10000f68 <main+0x5f8>)
10000d98:	681a      	ldr	r2, [r3, #0]
10000d9a:	4b74      	ldr	r3, [pc, #464]	; (10000f6c <main+0x5fc>)
10000d9c:	429a      	cmp	r2, r3
10000d9e:	d100      	bne.n	10000da2 <main+0x432>
10000da0:	e0c1      	b.n	10000f26 <main+0x5b6>
10000da2:	1c53      	adds	r3, r2, #1
10000da4:	4972      	ldr	r1, [pc, #456]	; (10000f70 <main+0x600>)
10000da6:	2072      	movs	r0, #114	; 0x72
10000da8:	5488      	strb	r0, [r1, r2]
10000daa:	17da      	asrs	r2, r3, #31
10000dac:	0cd2      	lsrs	r2, r2, #19
10000dae:	189b      	adds	r3, r3, r2
10000db0:	04db      	lsls	r3, r3, #19
10000db2:	0cdb      	lsrs	r3, r3, #19
10000db4:	1a9b      	subs	r3, r3, r2
10000db6:	4a6c      	ldr	r2, [pc, #432]	; (10000f68 <main+0x5f8>)
10000db8:	6013      	str	r3, [r2, #0]
10000dba:	e0b4      	b.n	10000f26 <main+0x5b6>
10000dbc:	4f6d      	ldr	r7, [pc, #436]	; (10000f74 <main+0x604>)
10000dbe:	2201      	movs	r2, #1
10000dc0:	2100      	movs	r1, #0
10000dc2:	0038      	movs	r0, r7
10000dc4:	f7ff fd37 	bl	10000836 <oled_set_xy>
10000dc8:	496b      	ldr	r1, [pc, #428]	; (10000f78 <main+0x608>)
10000dca:	0038      	movs	r0, r7
10000dcc:	f7ff fd6a 	bl	100008a4 <oled_display_string>
10000dd0:	23d0      	movs	r3, #208	; 0xd0
10000dd2:	061b      	lsls	r3, r3, #24
10000dd4:	2280      	movs	r2, #128	; 0x80
10000dd6:	0392      	lsls	r2, r2, #14
10000dd8:	615a      	str	r2, [r3, #20]
10000dda:	22ff      	movs	r2, #255	; 0xff
10000ddc:	0212      	lsls	r2, r2, #8
10000dde:	629a      	str	r2, [r3, #40]	; 0x28
10000de0:	2280      	movs	r2, #128	; 0x80
10000de2:	0512      	lsls	r2, r2, #20
10000de4:	615a      	str	r2, [r3, #20]
10000de6:	e0a3      	b.n	10000f30 <main+0x5c0>
10000de8:	464b      	mov	r3, r9
10000dea:	2b00      	cmp	r3, #0
10000dec:	d022      	beq.n	10000e34 <main+0x4c4>
10000dee:	465b      	mov	r3, fp
10000df0:	2b00      	cmp	r3, #0
10000df2:	d01f      	beq.n	10000e34 <main+0x4c4>
10000df4:	4b5c      	ldr	r3, [pc, #368]	; (10000f68 <main+0x5f8>)
10000df6:	681a      	ldr	r2, [r3, #0]
10000df8:	4b5c      	ldr	r3, [pc, #368]	; (10000f6c <main+0x5fc>)
10000dfa:	429a      	cmp	r2, r3
10000dfc:	d00b      	beq.n	10000e16 <main+0x4a6>
10000dfe:	1c53      	adds	r3, r2, #1
10000e00:	495b      	ldr	r1, [pc, #364]	; (10000f70 <main+0x600>)
10000e02:	202a      	movs	r0, #42	; 0x2a
10000e04:	5488      	strb	r0, [r1, r2]
10000e06:	17da      	asrs	r2, r3, #31
10000e08:	0cd2      	lsrs	r2, r2, #19
10000e0a:	189b      	adds	r3, r3, r2
10000e0c:	04db      	lsls	r3, r3, #19
10000e0e:	0cdb      	lsrs	r3, r3, #19
10000e10:	1a9b      	subs	r3, r3, r2
10000e12:	4a55      	ldr	r2, [pc, #340]	; (10000f68 <main+0x5f8>)
10000e14:	6013      	str	r3, [r2, #0]
10000e16:	23d0      	movs	r3, #208	; 0xd0
10000e18:	061b      	lsls	r3, r3, #24
10000e1a:	2280      	movs	r2, #128	; 0x80
10000e1c:	0512      	lsls	r2, r2, #20
10000e1e:	619a      	str	r2, [r3, #24]
10000e20:	22ff      	movs	r2, #255	; 0xff
10000e22:	0212      	lsls	r2, r2, #8
10000e24:	625a      	str	r2, [r3, #36]	; 0x24
10000e26:	2280      	movs	r2, #128	; 0x80
10000e28:	0052      	lsls	r2, r2, #1
10000e2a:	615a      	str	r2, [r3, #20]
10000e2c:	22fe      	movs	r2, #254	; 0xfe
10000e2e:	0212      	lsls	r2, r2, #8
10000e30:	619a      	str	r2, [r3, #24]
10000e32:	e023      	b.n	10000e7c <main+0x50c>
10000e34:	4b4c      	ldr	r3, [pc, #304]	; (10000f68 <main+0x5f8>)
10000e36:	681a      	ldr	r2, [r3, #0]
10000e38:	4b4c      	ldr	r3, [pc, #304]	; (10000f6c <main+0x5fc>)
10000e3a:	429a      	cmp	r2, r3
10000e3c:	d00b      	beq.n	10000e56 <main+0x4e6>
10000e3e:	1c53      	adds	r3, r2, #1
10000e40:	494b      	ldr	r1, [pc, #300]	; (10000f70 <main+0x600>)
10000e42:	203c      	movs	r0, #60	; 0x3c
10000e44:	5488      	strb	r0, [r1, r2]
10000e46:	17da      	asrs	r2, r3, #31
10000e48:	0cd2      	lsrs	r2, r2, #19
10000e4a:	189b      	adds	r3, r3, r2
10000e4c:	04db      	lsls	r3, r3, #19
10000e4e:	0cdb      	lsrs	r3, r3, #19
10000e50:	1a9b      	subs	r3, r3, r2
10000e52:	4a45      	ldr	r2, [pc, #276]	; (10000f68 <main+0x5f8>)
10000e54:	6013      	str	r3, [r2, #0]
10000e56:	23d0      	movs	r3, #208	; 0xd0
10000e58:	061b      	lsls	r3, r3, #24
10000e5a:	2280      	movs	r2, #128	; 0x80
10000e5c:	0512      	lsls	r2, r2, #20
10000e5e:	619a      	str	r2, [r3, #24]
10000e60:	22ff      	movs	r2, #255	; 0xff
10000e62:	0212      	lsls	r2, r2, #8
10000e64:	625a      	str	r2, [r3, #36]	; 0x24
10000e66:	493d      	ldr	r1, [pc, #244]	; (10000f5c <main+0x5ec>)
10000e68:	6809      	ldr	r1, [r1, #0]
10000e6a:	483d      	ldr	r0, [pc, #244]	; (10000f60 <main+0x5f0>)
10000e6c:	6800      	ldr	r0, [r0, #0]
10000e6e:	4301      	orrs	r1, r0
10000e70:	483c      	ldr	r0, [pc, #240]	; (10000f64 <main+0x5f4>)
10000e72:	5c41      	ldrb	r1, [r0, r1]
10000e74:	0209      	lsls	r1, r1, #8
10000e76:	6159      	str	r1, [r3, #20]
10000e78:	404a      	eors	r2, r1
10000e7a:	619a      	str	r2, [r3, #24]
10000e7c:	9b04      	ldr	r3, [sp, #16]
10000e7e:	2b00      	cmp	r3, #0
10000e80:	d105      	bne.n	10000e8e <main+0x51e>
10000e82:	464b      	mov	r3, r9
10000e84:	2b00      	cmp	r3, #0
10000e86:	d002      	beq.n	10000e8e <main+0x51e>
10000e88:	4b34      	ldr	r3, [pc, #208]	; (10000f5c <main+0x5ec>)
10000e8a:	2200      	movs	r2, #0
10000e8c:	601a      	str	r2, [r3, #0]
10000e8e:	9b03      	ldr	r3, [sp, #12]
10000e90:	2b00      	cmp	r3, #0
10000e92:	d111      	bne.n	10000eb8 <main+0x548>
10000e94:	4643      	mov	r3, r8
10000e96:	2b00      	cmp	r3, #0
10000e98:	d00e      	beq.n	10000eb8 <main+0x548>
10000e9a:	23d0      	movs	r3, #208	; 0xd0
10000e9c:	061b      	lsls	r3, r3, #24
10000e9e:	22ff      	movs	r2, #255	; 0xff
10000ea0:	0212      	lsls	r2, r2, #8
10000ea2:	629a      	str	r2, [r3, #40]	; 0x28
10000ea4:	2280      	movs	r2, #128	; 0x80
10000ea6:	0512      	lsls	r2, r2, #20
10000ea8:	615a      	str	r2, [r3, #20]
10000eaa:	432c      	orrs	r4, r5
10000eac:	07e3      	lsls	r3, r4, #31
10000eae:	d403      	bmi.n	10000eb8 <main+0x548>
10000eb0:	23d0      	movs	r3, #208	; 0xd0
10000eb2:	061b      	lsls	r3, r3, #24
10000eb4:	615a      	str	r2, [r3, #20]
10000eb6:	685b      	ldr	r3, [r3, #4]
10000eb8:	2e00      	cmp	r6, #0
10000eba:	d007      	beq.n	10000ecc <main+0x55c>
10000ebc:	23d0      	movs	r3, #208	; 0xd0
10000ebe:	061b      	lsls	r3, r3, #24
10000ec0:	22ff      	movs	r2, #255	; 0xff
10000ec2:	0212      	lsls	r2, r2, #8
10000ec4:	629a      	str	r2, [r3, #40]	; 0x28
10000ec6:	2280      	movs	r2, #128	; 0x80
10000ec8:	0512      	lsls	r2, r2, #20
10000eca:	615a      	str	r2, [r3, #20]
10000ecc:	9b08      	ldr	r3, [sp, #32]
10000ece:	9304      	str	r3, [sp, #16]
10000ed0:	9b07      	ldr	r3, [sp, #28]
10000ed2:	9303      	str	r3, [sp, #12]
10000ed4:	9b06      	ldr	r3, [sp, #24]
10000ed6:	9302      	str	r3, [sp, #8]
10000ed8:	9f05      	ldr	r7, [sp, #20]
10000eda:	4b28      	ldr	r3, [pc, #160]	; (10000f7c <main+0x60c>)
10000edc:	681b      	ldr	r3, [r3, #0]
10000ede:	2b00      	cmp	r3, #0
10000ee0:	d000      	beq.n	10000ee4 <main+0x574>
10000ee2:	e607      	b.n	10000af4 <main+0x184>
10000ee4:	22d0      	movs	r2, #208	; 0xd0
10000ee6:	0612      	lsls	r2, r2, #24
10000ee8:	6854      	ldr	r4, [r2, #4]
10000eea:	08e4      	lsrs	r4, r4, #3
10000eec:	2301      	movs	r3, #1
10000eee:	001e      	movs	r6, r3
10000ef0:	4026      	ands	r6, r4
10000ef2:	9605      	str	r6, [sp, #20]
10000ef4:	6851      	ldr	r1, [r2, #4]
10000ef6:	0d09      	lsrs	r1, r1, #20
10000ef8:	0018      	movs	r0, r3
10000efa:	4008      	ands	r0, r1
10000efc:	4682      	mov	sl, r0
10000efe:	9006      	str	r0, [sp, #24]
10000f00:	6851      	ldr	r1, [r2, #4]
10000f02:	0989      	lsrs	r1, r1, #6
10000f04:	0018      	movs	r0, r3
10000f06:	4008      	ands	r0, r1
10000f08:	4680      	mov	r8, r0
10000f0a:	9007      	str	r0, [sp, #28]
10000f0c:	6851      	ldr	r1, [r2, #4]
10000f0e:	09c9      	lsrs	r1, r1, #7
10000f10:	0018      	movs	r0, r3
10000f12:	4008      	ands	r0, r1
10000f14:	4681      	mov	r9, r0
10000f16:	9008      	str	r0, [sp, #32]
10000f18:	6855      	ldr	r5, [r2, #4]
10000f1a:	08ad      	lsrs	r5, r5, #2
10000f1c:	402b      	ands	r3, r5
10000f1e:	469b      	mov	fp, r3
10000f20:	2f01      	cmp	r7, #1
10000f22:	d100      	bne.n	10000f26 <main+0x5b6>
10000f24:	e601      	b.n	10000b2a <main+0x1ba>
10000f26:	2f00      	cmp	r7, #0
10000f28:	d102      	bne.n	10000f30 <main+0x5c0>
10000f2a:	2e00      	cmp	r6, #0
10000f2c:	d000      	beq.n	10000f30 <main+0x5c0>
10000f2e:	e745      	b.n	10000dbc <main+0x44c>
10000f30:	9b02      	ldr	r3, [sp, #8]
10000f32:	2b00      	cmp	r3, #0
10000f34:	d1a2      	bne.n	10000e7c <main+0x50c>
10000f36:	4653      	mov	r3, sl
10000f38:	2b00      	cmp	r3, #0
10000f3a:	d09f      	beq.n	10000e7c <main+0x50c>
10000f3c:	2e00      	cmp	r6, #0
10000f3e:	d19d      	bne.n	10000e7c <main+0x50c>
10000f40:	4643      	mov	r3, r8
10000f42:	2b00      	cmp	r3, #0
10000f44:	d100      	bne.n	10000f48 <main+0x5d8>
10000f46:	e74f      	b.n	10000de8 <main+0x478>
10000f48:	23d0      	movs	r3, #208	; 0xd0
10000f4a:	061b      	lsls	r3, r3, #24
10000f4c:	22ff      	movs	r2, #255	; 0xff
10000f4e:	0212      	lsls	r2, r2, #8
10000f50:	629a      	str	r2, [r3, #40]	; 0x28
10000f52:	2280      	movs	r2, #128	; 0x80
10000f54:	0512      	lsls	r2, r2, #20
10000f56:	615a      	str	r2, [r3, #20]
10000f58:	e790      	b.n	10000e7c <main+0x50c>
10000f5a:	46c0      	nop			; (mov r8, r8)
10000f5c:	20005d2c 	.word	0x20005d2c
10000f60:	20005d30 	.word	0x20005d30
10000f64:	200002a4 	.word	0x200002a4
10000f68:	20005d44 	.word	0x20005d44
10000f6c:	00001fff 	.word	0x00001fff
10000f70:	20005d54 	.word	0x20005d54
10000f74:	2000029c 	.word	0x2000029c
10000f78:	1000545c 	.word	0x1000545c
10000f7c:	20005d20 	.word	0x20005d20

10000f80 <gpio_set_function>:
10000f80:	b510      	push	{r4, lr}
10000f82:	0083      	lsls	r3, r0, #2
10000f84:	4a08      	ldr	r2, [pc, #32]	; (10000fa8 <gpio_set_function+0x28>)
10000f86:	4694      	mov	ip, r2
10000f88:	4463      	add	r3, ip
10000f8a:	681c      	ldr	r4, [r3, #0]
10000f8c:	2240      	movs	r2, #64	; 0x40
10000f8e:	4062      	eors	r2, r4
10000f90:	24c0      	movs	r4, #192	; 0xc0
10000f92:	4014      	ands	r4, r2
10000f94:	2280      	movs	r2, #128	; 0x80
10000f96:	0152      	lsls	r2, r2, #5
10000f98:	4313      	orrs	r3, r2
10000f9a:	601c      	str	r4, [r3, #0]
10000f9c:	00c0      	lsls	r0, r0, #3
10000f9e:	4b03      	ldr	r3, [pc, #12]	; (10000fac <gpio_set_function+0x2c>)
10000fa0:	469c      	mov	ip, r3
10000fa2:	4460      	add	r0, ip
10000fa4:	6041      	str	r1, [r0, #4]
10000fa6:	bd10      	pop	{r4, pc}
10000fa8:	4001c004 	.word	0x4001c004
10000fac:	40014000 	.word	0x40014000

10000fb0 <gpio_set_pulls>:
10000fb0:	0080      	lsls	r0, r0, #2
10000fb2:	4b0b      	ldr	r3, [pc, #44]	; (10000fe0 <gpio_set_pulls+0x30>)
10000fb4:	469c      	mov	ip, r3
10000fb6:	4460      	add	r0, ip
10000fb8:	2900      	cmp	r1, #0
10000fba:	d00d      	beq.n	10000fd8 <gpio_set_pulls+0x28>
10000fbc:	2308      	movs	r3, #8
10000fbe:	2a00      	cmp	r2, #0
10000fc0:	d00c      	beq.n	10000fdc <gpio_set_pulls+0x2c>
10000fc2:	2204      	movs	r2, #4
10000fc4:	4313      	orrs	r3, r2
10000fc6:	6802      	ldr	r2, [r0, #0]
10000fc8:	4053      	eors	r3, r2
10000fca:	220c      	movs	r2, #12
10000fcc:	4013      	ands	r3, r2
10000fce:	2280      	movs	r2, #128	; 0x80
10000fd0:	0152      	lsls	r2, r2, #5
10000fd2:	4310      	orrs	r0, r2
10000fd4:	6003      	str	r3, [r0, #0]
10000fd6:	4770      	bx	lr
10000fd8:	2300      	movs	r3, #0
10000fda:	e7f0      	b.n	10000fbe <gpio_set_pulls+0xe>
10000fdc:	2200      	movs	r2, #0
10000fde:	e7f1      	b.n	10000fc4 <gpio_set_pulls+0x14>
10000fe0:	4001c004 	.word	0x4001c004

10000fe4 <gpio_init>:
10000fe4:	b510      	push	{r4, lr}
10000fe6:	2301      	movs	r3, #1
10000fe8:	4083      	lsls	r3, r0
10000fea:	22d0      	movs	r2, #208	; 0xd0
10000fec:	0612      	lsls	r2, r2, #24
10000fee:	6293      	str	r3, [r2, #40]	; 0x28
10000ff0:	6193      	str	r3, [r2, #24]
10000ff2:	2105      	movs	r1, #5
10000ff4:	f7ff ffc4 	bl	10000f80 <gpio_set_function>
10000ff8:	bd10      	pop	{r4, pc}
	...

10000ffc <hw_claim_lock>:
10000ffc:	f3ef 8010 	mrs	r0, PRIMASK
10001000:	b672      	cpsid	i
10001002:	4b03      	ldr	r3, [pc, #12]	; (10001010 <hw_claim_lock+0x14>)
10001004:	681b      	ldr	r3, [r3, #0]
10001006:	2b00      	cmp	r3, #0
10001008:	d0fb      	beq.n	10001002 <hw_claim_lock+0x6>
1000100a:	f3bf 8f5f 	dmb	sy
1000100e:	4770      	bx	lr
10001010:	d000012c 	.word	0xd000012c

10001014 <hw_claim_unlock>:
10001014:	f3bf 8f5f 	dmb	sy
10001018:	4b02      	ldr	r3, [pc, #8]	; (10001024 <hw_claim_unlock+0x10>)
1000101a:	2200      	movs	r2, #0
1000101c:	601a      	str	r2, [r3, #0]
1000101e:	f380 8810 	msr	PRIMASK, r0
10001022:	4770      	bx	lr
10001024:	d000012c 	.word	0xd000012c

10001028 <hw_claim_or_assert>:
10001028:	b5f8      	push	{r3, r4, r5, r6, r7, lr}
1000102a:	0006      	movs	r6, r0
1000102c:	000c      	movs	r4, r1
1000102e:	0015      	movs	r5, r2
10001030:	f7ff ffe4 	bl	10000ffc <hw_claim_lock>
10001034:	08e3      	lsrs	r3, r4, #3
10001036:	18f7      	adds	r7, r6, r3
10001038:	5cf1      	ldrb	r1, [r6, r3]
1000103a:	2207      	movs	r2, #7
1000103c:	4022      	ands	r2, r4
1000103e:	2301      	movs	r3, #1
10001040:	4093      	lsls	r3, r2
10001042:	420b      	tst	r3, r1
10001044:	d105      	bne.n	10001052 <hw_claim_or_assert+0x2a>
10001046:	b2db      	uxtb	r3, r3
10001048:	430b      	orrs	r3, r1
1000104a:	703b      	strb	r3, [r7, #0]
1000104c:	f7ff ffe2 	bl	10001014 <hw_claim_unlock>
10001050:	bdf8      	pop	{r3, r4, r5, r6, r7, pc}
10001052:	0021      	movs	r1, r4
10001054:	0028      	movs	r0, r5
10001056:	f001 f985 	bl	10002364 <panic>
	...

1000105c <running_on_fpga>:
1000105c:	4b03      	ldr	r3, [pc, #12]	; (1000106c <running_on_fpga+0x10>)
1000105e:	681b      	ldr	r3, [r3, #0]
10001060:	2002      	movs	r0, #2
10001062:	4018      	ands	r0, r3
10001064:	1e43      	subs	r3, r0, #1
10001066:	4198      	sbcs	r0, r3
10001068:	b2c0      	uxtb	r0, r0
1000106a:	4770      	bx	lr
1000106c:	4006c000 	.word	0x4006c000

10001070 <spin_locks_reset>:
10001070:	2300      	movs	r3, #0
10001072:	2b1f      	cmp	r3, #31
10001074:	d808      	bhi.n	10001088 <spin_locks_reset+0x18>
10001076:	4a05      	ldr	r2, [pc, #20]	; (1000108c <spin_locks_reset+0x1c>)
10001078:	189a      	adds	r2, r3, r2
1000107a:	0092      	lsls	r2, r2, #2
1000107c:	f3bf 8f5f 	dmb	sy
10001080:	2100      	movs	r1, #0
10001082:	6011      	str	r1, [r2, #0]
10001084:	3301      	adds	r3, #1
10001086:	e7f4      	b.n	10001072 <spin_locks_reset+0x2>
10001088:	4770      	bx	lr
1000108a:	46c0      	nop			; (mov r8, r8)
1000108c:	34000040 	.word	0x34000040

10001090 <next_striped_spin_lock_num>:
10001090:	4a05      	ldr	r2, [pc, #20]	; (100010a8 <next_striped_spin_lock_num+0x18>)
10001092:	7810      	ldrb	r0, [r2, #0]
10001094:	1c43      	adds	r3, r0, #1
10001096:	b2db      	uxtb	r3, r3
10001098:	7013      	strb	r3, [r2, #0]
1000109a:	2b17      	cmp	r3, #23
1000109c:	d902      	bls.n	100010a4 <next_striped_spin_lock_num+0x14>
1000109e:	0013      	movs	r3, r2
100010a0:	2210      	movs	r2, #16
100010a2:	701a      	strb	r2, [r3, #0]
100010a4:	4770      	bx	lr
100010a6:	46c0      	nop			; (mov r8, r8)
100010a8:	20005a90 	.word	0x20005a90

100010ac <uart_set_baudrate>:
100010ac:	b570      	push	{r4, r5, r6, lr}
100010ae:	0004      	movs	r4, r0
100010b0:	000d      	movs	r5, r1
100010b2:	2006      	movs	r0, #6
100010b4:	f001 fa70 	bl	10002598 <clock_get_hz>
100010b8:	00c0      	lsls	r0, r0, #3
100010ba:	0029      	movs	r1, r5
100010bc:	f002 fe24 	bl	10003d08 <__wrap___aeabi_uidiv>
100010c0:	09c6      	lsrs	r6, r0, #7
100010c2:	d008      	beq.n	100010d6 <uart_set_baudrate+0x2a>
100010c4:	4b0e      	ldr	r3, [pc, #56]	; (10001100 <uart_set_baudrate+0x54>)
100010c6:	429e      	cmp	r6, r3
100010c8:	d817      	bhi.n	100010fa <uart_set_baudrate+0x4e>
100010ca:	237f      	movs	r3, #127	; 0x7f
100010cc:	4018      	ands	r0, r3
100010ce:	3001      	adds	r0, #1
100010d0:	0035      	movs	r5, r6
100010d2:	0846      	lsrs	r6, r0, #1
100010d4:	e000      	b.n	100010d8 <uart_set_baudrate+0x2c>
100010d6:	2501      	movs	r5, #1
100010d8:	6265      	str	r5, [r4, #36]	; 0x24
100010da:	62a6      	str	r6, [r4, #40]	; 0x28
100010dc:	342c      	adds	r4, #44	; 0x2c
100010de:	2080      	movs	r0, #128	; 0x80
100010e0:	0180      	lsls	r0, r0, #6
100010e2:	4304      	orrs	r4, r0
100010e4:	2300      	movs	r3, #0
100010e6:	6023      	str	r3, [r4, #0]
100010e8:	2006      	movs	r0, #6
100010ea:	f001 fa55 	bl	10002598 <clock_get_hz>
100010ee:	0080      	lsls	r0, r0, #2
100010f0:	01a9      	lsls	r1, r5, #6
100010f2:	1989      	adds	r1, r1, r6
100010f4:	f002 fe08 	bl	10003d08 <__wrap___aeabi_uidiv>
100010f8:	bd70      	pop	{r4, r5, r6, pc}
100010fa:	2600      	movs	r6, #0
100010fc:	4d01      	ldr	r5, [pc, #4]	; (10001104 <uart_set_baudrate+0x58>)
100010fe:	e7eb      	b.n	100010d8 <uart_set_baudrate+0x2c>
10001100:	0000fffe 	.word	0x0000fffe
10001104:	0000ffff 	.word	0x0000ffff

10001108 <uart_set_translate_crlf>:
10001108:	2900      	cmp	r1, #0
1000110a:	d009      	beq.n	10001120 <uart_set_translate_crlf+0x18>
1000110c:	220a      	movs	r2, #10
1000110e:	4b06      	ldr	r3, [pc, #24]	; (10001128 <uart_set_translate_crlf+0x20>)
10001110:	469c      	mov	ip, r3
10001112:	4460      	add	r0, ip
10001114:	4243      	negs	r3, r0
10001116:	4158      	adcs	r0, r3
10001118:	0040      	lsls	r0, r0, #1
1000111a:	4b04      	ldr	r3, [pc, #16]	; (1000112c <uart_set_translate_crlf+0x24>)
1000111c:	52c2      	strh	r2, [r0, r3]
1000111e:	4770      	bx	lr
10001120:	2280      	movs	r2, #128	; 0x80
10001122:	0052      	lsls	r2, r2, #1
10001124:	e7f3      	b.n	1000110e <uart_set_translate_crlf+0x6>
10001126:	46c0      	nop			; (mov r8, r8)
10001128:	bffc8000 	.word	0xbffc8000
1000112c:	200081c8 	.word	0x200081c8

10001130 <uart_init>:
10001130:	b570      	push	{r4, r5, r6, lr}
10001132:	0005      	movs	r5, r0
10001134:	000c      	movs	r4, r1
10001136:	2006      	movs	r0, #6
10001138:	f001 fa2e 	bl	10002598 <clock_get_hz>
1000113c:	2800      	cmp	r0, #0
1000113e:	d029      	beq.n	10001194 <uart_init+0x64>
10001140:	4b16      	ldr	r3, [pc, #88]	; (1000119c <uart_init+0x6c>)
10001142:	429d      	cmp	r5, r3
10001144:	d027      	beq.n	10001196 <uart_init+0x66>
10001146:	2280      	movs	r2, #128	; 0x80
10001148:	03d2      	lsls	r2, r2, #15
1000114a:	4b15      	ldr	r3, [pc, #84]	; (100011a0 <uart_init+0x70>)
1000114c:	601a      	str	r2, [r3, #0]
1000114e:	4b15      	ldr	r3, [pc, #84]	; (100011a4 <uart_init+0x74>)
10001150:	601a      	str	r2, [r3, #0]
10001152:	4b15      	ldr	r3, [pc, #84]	; (100011a8 <uart_init+0x78>)
10001154:	689b      	ldr	r3, [r3, #8]
10001156:	0011      	movs	r1, r2
10001158:	4399      	bics	r1, r3
1000115a:	d1fa      	bne.n	10001152 <uart_init+0x22>
1000115c:	2100      	movs	r1, #0
1000115e:	0028      	movs	r0, r5
10001160:	f7ff ffd2 	bl	10001108 <uart_set_translate_crlf>
10001164:	0021      	movs	r1, r4
10001166:	0028      	movs	r0, r5
10001168:	f7ff ffa0 	bl	100010ac <uart_set_baudrate>
1000116c:	002c      	movs	r4, r5
1000116e:	342c      	adds	r4, #44	; 0x2c
10001170:	6ae9      	ldr	r1, [r5, #44]	; 0x2c
10001172:	2260      	movs	r2, #96	; 0x60
10001174:	404a      	eors	r2, r1
10001176:	216e      	movs	r1, #110	; 0x6e
10001178:	4011      	ands	r1, r2
1000117a:	2280      	movs	r2, #128	; 0x80
1000117c:	0152      	lsls	r2, r2, #5
1000117e:	4322      	orrs	r2, r4
10001180:	6011      	str	r1, [r2, #0]
10001182:	4b0a      	ldr	r3, [pc, #40]	; (100011ac <uart_init+0x7c>)
10001184:	632b      	str	r3, [r5, #48]	; 0x30
10001186:	2380      	movs	r3, #128	; 0x80
10001188:	019b      	lsls	r3, r3, #6
1000118a:	4323      	orrs	r3, r4
1000118c:	2210      	movs	r2, #16
1000118e:	601a      	str	r2, [r3, #0]
10001190:	2303      	movs	r3, #3
10001192:	64ab      	str	r3, [r5, #72]	; 0x48
10001194:	bd70      	pop	{r4, r5, r6, pc}
10001196:	2280      	movs	r2, #128	; 0x80
10001198:	0412      	lsls	r2, r2, #16
1000119a:	e7d6      	b.n	1000114a <uart_init+0x1a>
1000119c:	40038000 	.word	0x40038000
100011a0:	4000e000 	.word	0x4000e000
100011a4:	4000f000 	.word	0x4000f000
100011a8:	4000c000 	.word	0x4000c000
100011ac:	00000301 	.word	0x00000301

100011b0 <alarm_pool_post_alloc_init>:
100011b0:	b570      	push	{r4, r5, r6, lr}
100011b2:	0005      	movs	r5, r0
100011b4:	000c      	movs	r4, r1
100011b6:	0008      	movs	r0, r1
100011b8:	f000 fd0c 	bl	10001bd4 <hardware_alarm_claim>
100011bc:	0020      	movs	r0, r4
100011be:	f000 fdef 	bl	10001da0 <hardware_alarm_cancel>
100011c2:	4908      	ldr	r1, [pc, #32]	; (100011e4 <alarm_pool_post_alloc_init+0x34>)
100011c4:	0020      	movs	r0, r4
100011c6:	f000 fd2f 	bl	10001c28 <hardware_alarm_set_callback>
100011ca:	f7ff ff61 	bl	10001090 <next_striped_spin_lock_num>
100011ce:	4b06      	ldr	r3, [pc, #24]	; (100011e8 <alarm_pool_post_alloc_init+0x38>)
100011d0:	469c      	mov	ip, r3
100011d2:	4460      	add	r0, ip
100011d4:	0080      	lsls	r0, r0, #2
100011d6:	6068      	str	r0, [r5, #4]
100011d8:	752c      	strb	r4, [r5, #20]
100011da:	00a4      	lsls	r4, r4, #2
100011dc:	4b03      	ldr	r3, [pc, #12]	; (100011ec <alarm_pool_post_alloc_init+0x3c>)
100011de:	50e5      	str	r5, [r4, r3]
100011e0:	bd70      	pop	{r4, r5, r6, pc}
100011e2:	46c0      	nop			; (mov r8, r8)
100011e4:	100014f5 	.word	0x100014f5
100011e8:	34000040 	.word	0x34000040
100011ec:	20005d10 	.word	0x20005d10

100011f0 <sleep_until_callback>:
100011f0:	4b0a      	ldr	r3, [pc, #40]	; (1000121c <sleep_until_callback+0x2c>)
100011f2:	681a      	ldr	r2, [r3, #0]
100011f4:	f3ef 8110 	mrs	r1, PRIMASK
100011f8:	b672      	cpsid	i
100011fa:	6813      	ldr	r3, [r2, #0]
100011fc:	2b00      	cmp	r3, #0
100011fe:	d0fc      	beq.n	100011fa <sleep_until_callback+0xa>
10001200:	f3bf 8f5f 	dmb	sy
10001204:	4b05      	ldr	r3, [pc, #20]	; (1000121c <sleep_until_callback+0x2c>)
10001206:	681b      	ldr	r3, [r3, #0]
10001208:	f3bf 8f5f 	dmb	sy
1000120c:	2200      	movs	r2, #0
1000120e:	601a      	str	r2, [r3, #0]
10001210:	f381 8810 	msr	PRIMASK, r1
10001214:	bf40      	sev
10001216:	2000      	movs	r0, #0
10001218:	2100      	movs	r1, #0
1000121a:	4770      	bx	lr
1000121c:	20005d28 	.word	0x20005d28

10001220 <timer_pool_entry_comparator>:
10001220:	b510      	push	{r4, lr}
10001222:	2900      	cmp	r1, #0
10001224:	d022      	beq.n	1000126c <timer_pool_entry_comparator+0x4c>
10001226:	6803      	ldr	r3, [r0, #0]
10001228:	7b1b      	ldrb	r3, [r3, #12]
1000122a:	4299      	cmp	r1, r3
1000122c:	d81e      	bhi.n	1000126c <timer_pool_entry_comparator+0x4c>
1000122e:	4b17      	ldr	r3, [pc, #92]	; (1000128c <timer_pool_entry_comparator+0x6c>)
10001230:	469c      	mov	ip, r3
10001232:	4461      	add	r1, ip
10001234:	0109      	lsls	r1, r1, #4
10001236:	6883      	ldr	r3, [r0, #8]
10001238:	469c      	mov	ip, r3
1000123a:	4461      	add	r1, ip
1000123c:	680c      	ldr	r4, [r1, #0]
1000123e:	6849      	ldr	r1, [r1, #4]
10001240:	2a00      	cmp	r2, #0
10001242:	d019      	beq.n	10001278 <timer_pool_entry_comparator+0x58>
10001244:	6803      	ldr	r3, [r0, #0]
10001246:	7b1b      	ldrb	r3, [r3, #12]
10001248:	429a      	cmp	r2, r3
1000124a:	d815      	bhi.n	10001278 <timer_pool_entry_comparator+0x58>
1000124c:	6883      	ldr	r3, [r0, #8]
1000124e:	480f      	ldr	r0, [pc, #60]	; (1000128c <timer_pool_entry_comparator+0x6c>)
10001250:	4684      	mov	ip, r0
10001252:	4462      	add	r2, ip
10001254:	0112      	lsls	r2, r2, #4
10001256:	189a      	adds	r2, r3, r2
10001258:	6810      	ldr	r0, [r2, #0]
1000125a:	6853      	ldr	r3, [r2, #4]
1000125c:	0002      	movs	r2, r0
1000125e:	2001      	movs	r0, #1
10001260:	428b      	cmp	r3, r1
10001262:	d801      	bhi.n	10001268 <timer_pool_entry_comparator+0x48>
10001264:	d00e      	beq.n	10001284 <timer_pool_entry_comparator+0x64>
10001266:	2000      	movs	r0, #0
10001268:	b2c0      	uxtb	r0, r0
1000126a:	bd10      	pop	{r4, pc}
1000126c:	4b08      	ldr	r3, [pc, #32]	; (10001290 <timer_pool_entry_comparator+0x70>)
1000126e:	4a09      	ldr	r2, [pc, #36]	; (10001294 <timer_pool_entry_comparator+0x74>)
10001270:	213b      	movs	r1, #59	; 0x3b
10001272:	4809      	ldr	r0, [pc, #36]	; (10001298 <timer_pool_entry_comparator+0x78>)
10001274:	f001 f858 	bl	10002328 <__assert_func>
10001278:	4b05      	ldr	r3, [pc, #20]	; (10001290 <timer_pool_entry_comparator+0x70>)
1000127a:	4a06      	ldr	r2, [pc, #24]	; (10001294 <timer_pool_entry_comparator+0x74>)
1000127c:	213b      	movs	r1, #59	; 0x3b
1000127e:	4806      	ldr	r0, [pc, #24]	; (10001298 <timer_pool_entry_comparator+0x78>)
10001280:	f001 f852 	bl	10002328 <__assert_func>
10001284:	42a2      	cmp	r2, r4
10001286:	d8ef      	bhi.n	10001268 <timer_pool_entry_comparator+0x48>
10001288:	e7ed      	b.n	10001266 <timer_pool_entry_comparator+0x46>
1000128a:	46c0      	nop			; (mov r8, r8)
1000128c:	0fffffff 	.word	0x0fffffff
10001290:	100056dc 	.word	0x100056dc
10001294:	10005994 	.word	0x10005994
10001298:	10005698 	.word	0x10005698

1000129c <ph_add_child_node>:
1000129c:	b510      	push	{r4, lr}
1000129e:	2900      	cmp	r1, #0
100012a0:	d01e      	beq.n	100012e0 <ph_add_child_node+0x44>
100012a2:	7b03      	ldrb	r3, [r0, #12]
100012a4:	4299      	cmp	r1, r3
100012a6:	d81b      	bhi.n	100012e0 <ph_add_child_node+0x44>
100012a8:	004b      	lsls	r3, r1, #1
100012aa:	185b      	adds	r3, r3, r1
100012ac:	3b03      	subs	r3, #3
100012ae:	6804      	ldr	r4, [r0, #0]
100012b0:	46a4      	mov	ip, r4
100012b2:	4463      	add	r3, ip
100012b4:	2900      	cmp	r1, #0
100012b6:	d019      	beq.n	100012ec <ph_add_child_node+0x50>
100012b8:	2a00      	cmp	r2, #0
100012ba:	d01d      	beq.n	100012f8 <ph_add_child_node+0x5c>
100012bc:	4291      	cmp	r1, r2
100012be:	d021      	beq.n	10001304 <ph_add_child_node+0x68>
100012c0:	2a00      	cmp	r2, #0
100012c2:	d025      	beq.n	10001310 <ph_add_child_node+0x74>
100012c4:	7b04      	ldrb	r4, [r0, #12]
100012c6:	42a2      	cmp	r2, r4
100012c8:	d822      	bhi.n	10001310 <ph_add_child_node+0x74>
100012ca:	6804      	ldr	r4, [r0, #0]
100012cc:	0050      	lsls	r0, r2, #1
100012ce:	1880      	adds	r0, r0, r2
100012d0:	3803      	subs	r0, #3
100012d2:	1820      	adds	r0, r4, r0
100012d4:	7081      	strb	r1, [r0, #2]
100012d6:	7819      	ldrb	r1, [r3, #0]
100012d8:	2900      	cmp	r1, #0
100012da:	d11f      	bne.n	1000131c <ph_add_child_node+0x80>
100012dc:	701a      	strb	r2, [r3, #0]
100012de:	bd10      	pop	{r4, pc}
100012e0:	4b10      	ldr	r3, [pc, #64]	; (10001324 <ph_add_child_node+0x88>)
100012e2:	4a11      	ldr	r2, [pc, #68]	; (10001328 <ph_add_child_node+0x8c>)
100012e4:	2169      	movs	r1, #105	; 0x69
100012e6:	4811      	ldr	r0, [pc, #68]	; (1000132c <ph_add_child_node+0x90>)
100012e8:	f001 f81e 	bl	10002328 <__assert_func>
100012ec:	4b10      	ldr	r3, [pc, #64]	; (10001330 <ph_add_child_node+0x94>)
100012ee:	4a11      	ldr	r2, [pc, #68]	; (10001334 <ph_add_child_node+0x98>)
100012f0:	3170      	adds	r1, #112	; 0x70
100012f2:	480e      	ldr	r0, [pc, #56]	; (1000132c <ph_add_child_node+0x90>)
100012f4:	f001 f818 	bl	10002328 <__assert_func>
100012f8:	4b0f      	ldr	r3, [pc, #60]	; (10001338 <ph_add_child_node+0x9c>)
100012fa:	4a0e      	ldr	r2, [pc, #56]	; (10001334 <ph_add_child_node+0x98>)
100012fc:	2171      	movs	r1, #113	; 0x71
100012fe:	480b      	ldr	r0, [pc, #44]	; (1000132c <ph_add_child_node+0x90>)
10001300:	f001 f812 	bl	10002328 <__assert_func>
10001304:	4b0d      	ldr	r3, [pc, #52]	; (1000133c <ph_add_child_node+0xa0>)
10001306:	4a0b      	ldr	r2, [pc, #44]	; (10001334 <ph_add_child_node+0x98>)
10001308:	2172      	movs	r1, #114	; 0x72
1000130a:	4808      	ldr	r0, [pc, #32]	; (1000132c <ph_add_child_node+0x90>)
1000130c:	f001 f80c 	bl	10002328 <__assert_func>
10001310:	4b04      	ldr	r3, [pc, #16]	; (10001324 <ph_add_child_node+0x88>)
10001312:	4a05      	ldr	r2, [pc, #20]	; (10001328 <ph_add_child_node+0x8c>)
10001314:	2169      	movs	r1, #105	; 0x69
10001316:	4805      	ldr	r0, [pc, #20]	; (1000132c <ph_add_child_node+0x90>)
10001318:	f001 f806 	bl	10002328 <__assert_func>
1000131c:	7041      	strb	r1, [r0, #1]
1000131e:	701a      	strb	r2, [r3, #0]
10001320:	e7dd      	b.n	100012de <ph_add_child_node+0x42>
10001322:	46c0      	nop			; (mov r8, r8)
10001324:	10005710 	.word	0x10005710
10001328:	10005954 	.word	0x10005954
1000132c:	1000572c 	.word	0x1000572c
10001330:	10005780 	.word	0x10005780
10001334:	10005960 	.word	0x10005960
10001338:	1000578c 	.word	0x1000578c
1000133c:	10005798 	.word	0x10005798

10001340 <ph_merge_nodes>:
10001340:	b570      	push	{r4, r5, r6, lr}
10001342:	0006      	movs	r6, r0
10001344:	000d      	movs	r5, r1
10001346:	0014      	movs	r4, r2
10001348:	2900      	cmp	r1, #0
1000134a:	d014      	beq.n	10001376 <ph_merge_nodes+0x36>
1000134c:	2a00      	cmp	r2, #0
1000134e:	d014      	beq.n	1000137a <ph_merge_nodes+0x3a>
10001350:	6880      	ldr	r0, [r0, #8]
10001352:	6873      	ldr	r3, [r6, #4]
10001354:	4798      	blx	r3
10001356:	2800      	cmp	r0, #0
10001358:	d006      	beq.n	10001368 <ph_merge_nodes+0x28>
1000135a:	0022      	movs	r2, r4
1000135c:	0029      	movs	r1, r5
1000135e:	0030      	movs	r0, r6
10001360:	f7ff ff9c 	bl	1000129c <ph_add_child_node>
10001364:	0028      	movs	r0, r5
10001366:	e007      	b.n	10001378 <ph_merge_nodes+0x38>
10001368:	002a      	movs	r2, r5
1000136a:	0021      	movs	r1, r4
1000136c:	0030      	movs	r0, r6
1000136e:	f7ff ff95 	bl	1000129c <ph_add_child_node>
10001372:	0020      	movs	r0, r4
10001374:	e000      	b.n	10001378 <ph_merge_nodes+0x38>
10001376:	0010      	movs	r0, r2
10001378:	bd70      	pop	{r4, r5, r6, pc}
1000137a:	0008      	movs	r0, r1
1000137c:	e7fc      	b.n	10001378 <ph_merge_nodes+0x38>
	...

10001380 <add_alarm_under_lock>:
10001380:	b5f0      	push	{r4, r5, r6, r7, lr}
10001382:	b083      	sub	sp, #12
10001384:	0005      	movs	r5, r0
10001386:	9200      	str	r2, [sp, #0]
10001388:	9301      	str	r3, [sp, #4]
1000138a:	ab0a      	add	r3, sp, #40	; 0x28
1000138c:	781c      	ldrb	r4, [r3, #0]
1000138e:	ab0b      	add	r3, sp, #44	; 0x2c
10001390:	781f      	ldrb	r7, [r3, #0]
10001392:	2c00      	cmp	r4, #0
10001394:	d026      	beq.n	100013e4 <add_alarm_under_lock+0x64>
10001396:	6803      	ldr	r3, [r0, #0]
10001398:	7b5a      	ldrb	r2, [r3, #13]
1000139a:	4294      	cmp	r4, r2
1000139c:	d107      	bne.n	100013ae <add_alarm_under_lock+0x2e>
1000139e:	2301      	movs	r3, #1
100013a0:	2b00      	cmp	r3, #0
100013a2:	d119      	bne.n	100013d8 <add_alarm_under_lock+0x58>
100013a4:	2c00      	cmp	r4, #0
100013a6:	d13b      	bne.n	10001420 <add_alarm_under_lock+0xa0>
100013a8:	0020      	movs	r0, r4
100013aa:	b003      	add	sp, #12
100013ac:	bdf0      	pop	{r4, r5, r6, r7, pc}
100013ae:	2c00      	cmp	r4, #0
100013b0:	d00c      	beq.n	100013cc <add_alarm_under_lock+0x4c>
100013b2:	7b1a      	ldrb	r2, [r3, #12]
100013b4:	4294      	cmp	r4, r2
100013b6:	d809      	bhi.n	100013cc <add_alarm_under_lock+0x4c>
100013b8:	681a      	ldr	r2, [r3, #0]
100013ba:	0063      	lsls	r3, r4, #1
100013bc:	191b      	adds	r3, r3, r4
100013be:	3b03      	subs	r3, #3
100013c0:	18d3      	adds	r3, r2, r3
100013c2:	789b      	ldrb	r3, [r3, #2]
100013c4:	2b00      	cmp	r3, #0
100013c6:	d0eb      	beq.n	100013a0 <add_alarm_under_lock+0x20>
100013c8:	2301      	movs	r3, #1
100013ca:	e7e9      	b.n	100013a0 <add_alarm_under_lock+0x20>
100013cc:	4b3e      	ldr	r3, [pc, #248]	; (100014c8 <add_alarm_under_lock+0x148>)
100013ce:	4a3f      	ldr	r2, [pc, #252]	; (100014cc <add_alarm_under_lock+0x14c>)
100013d0:	2169      	movs	r1, #105	; 0x69
100013d2:	483f      	ldr	r0, [pc, #252]	; (100014d0 <add_alarm_under_lock+0x150>)
100013d4:	f000 ffa8 	bl	10002328 <__assert_func>
100013d8:	4b3e      	ldr	r3, [pc, #248]	; (100014d4 <add_alarm_under_lock+0x154>)
100013da:	4a3f      	ldr	r2, [pc, #252]	; (100014d8 <add_alarm_under_lock+0x158>)
100013dc:	2165      	movs	r1, #101	; 0x65
100013de:	483f      	ldr	r0, [pc, #252]	; (100014dc <add_alarm_under_lock+0x15c>)
100013e0:	f000 ffa2 	bl	10002328 <__assert_func>
100013e4:	6803      	ldr	r3, [r0, #0]
100013e6:	7b9c      	ldrb	r4, [r3, #14]
100013e8:	2c00      	cmp	r4, #0
100013ea:	d0db      	beq.n	100013a4 <add_alarm_under_lock+0x24>
100013ec:	d012      	beq.n	10001414 <add_alarm_under_lock+0x94>
100013ee:	7b1a      	ldrb	r2, [r3, #12]
100013f0:	4294      	cmp	r4, r2
100013f2:	d80f      	bhi.n	10001414 <add_alarm_under_lock+0x94>
100013f4:	0062      	lsls	r2, r4, #1
100013f6:	1912      	adds	r2, r2, r4
100013f8:	3a03      	subs	r2, #3
100013fa:	6819      	ldr	r1, [r3, #0]
100013fc:	468c      	mov	ip, r1
100013fe:	4462      	add	r2, ip
10001400:	7851      	ldrb	r1, [r2, #1]
10001402:	7399      	strb	r1, [r3, #14]
10001404:	2900      	cmp	r1, #0
10001406:	d100      	bne.n	1000140a <add_alarm_under_lock+0x8a>
10001408:	73d9      	strb	r1, [r3, #15]
1000140a:	2300      	movs	r3, #0
1000140c:	7093      	strb	r3, [r2, #2]
1000140e:	7053      	strb	r3, [r2, #1]
10001410:	7013      	strb	r3, [r2, #0]
10001412:	e7c7      	b.n	100013a4 <add_alarm_under_lock+0x24>
10001414:	4b2c      	ldr	r3, [pc, #176]	; (100014c8 <add_alarm_under_lock+0x148>)
10001416:	4a2d      	ldr	r2, [pc, #180]	; (100014cc <add_alarm_under_lock+0x14c>)
10001418:	2169      	movs	r1, #105	; 0x69
1000141a:	482d      	ldr	r0, [pc, #180]	; (100014d0 <add_alarm_under_lock+0x150>)
1000141c:	f000 ff84 	bl	10002328 <__assert_func>
10001420:	2c00      	cmp	r4, #0
10001422:	d03a      	beq.n	1000149a <add_alarm_under_lock+0x11a>
10001424:	682b      	ldr	r3, [r5, #0]
10001426:	7b1b      	ldrb	r3, [r3, #12]
10001428:	429c      	cmp	r4, r3
1000142a:	d836      	bhi.n	1000149a <add_alarm_under_lock+0x11a>
1000142c:	4b2c      	ldr	r3, [pc, #176]	; (100014e0 <add_alarm_under_lock+0x160>)
1000142e:	18e3      	adds	r3, r4, r3
10001430:	011b      	lsls	r3, r3, #4
10001432:	68aa      	ldr	r2, [r5, #8]
10001434:	4694      	mov	ip, r2
10001436:	4463      	add	r3, ip
10001438:	9a00      	ldr	r2, [sp, #0]
1000143a:	601a      	str	r2, [r3, #0]
1000143c:	9a01      	ldr	r2, [sp, #4]
1000143e:	605a      	str	r2, [r3, #4]
10001440:	9a08      	ldr	r2, [sp, #32]
10001442:	609a      	str	r2, [r3, #8]
10001444:	9a09      	ldr	r2, [sp, #36]	; 0x24
10001446:	60da      	str	r2, [r3, #12]
10001448:	682e      	ldr	r6, [r5, #0]
1000144a:	2c00      	cmp	r4, #0
1000144c:	d02b      	beq.n	100014a6 <add_alarm_under_lock+0x126>
1000144e:	d030      	beq.n	100014b2 <add_alarm_under_lock+0x132>
10001450:	7b33      	ldrb	r3, [r6, #12]
10001452:	429c      	cmp	r4, r3
10001454:	d82d      	bhi.n	100014b2 <add_alarm_under_lock+0x132>
10001456:	0063      	lsls	r3, r4, #1
10001458:	191b      	adds	r3, r3, r4
1000145a:	3b03      	subs	r3, #3
1000145c:	6832      	ldr	r2, [r6, #0]
1000145e:	4694      	mov	ip, r2
10001460:	4463      	add	r3, ip
10001462:	2200      	movs	r2, #0
10001464:	709a      	strb	r2, [r3, #2]
10001466:	705a      	strb	r2, [r3, #1]
10001468:	701a      	strb	r2, [r3, #0]
1000146a:	7b71      	ldrb	r1, [r6, #13]
1000146c:	0022      	movs	r2, r4
1000146e:	0030      	movs	r0, r6
10001470:	f7ff ff66 	bl	10001340 <ph_merge_nodes>
10001474:	7370      	strb	r0, [r6, #13]
10001476:	4284      	cmp	r4, r0
10001478:	d000      	beq.n	1000147c <add_alarm_under_lock+0xfc>
1000147a:	e795      	b.n	100013a8 <add_alarm_under_lock+0x28>
1000147c:	7d28      	ldrb	r0, [r5, #20]
1000147e:	9a00      	ldr	r2, [sp, #0]
10001480:	9b01      	ldr	r3, [sp, #4]
10001482:	f000 fc19 	bl	10001cb8 <hardware_alarm_set_target>
10001486:	1e06      	subs	r6, r0, #0
10001488:	d001      	beq.n	1000148e <add_alarm_under_lock+0x10e>
1000148a:	2f00      	cmp	r7, #0
1000148c:	d017      	beq.n	100014be <add_alarm_under_lock+0x13e>
1000148e:	9b0c      	ldr	r3, [sp, #48]	; 0x30
10001490:	2b00      	cmp	r3, #0
10001492:	d100      	bne.n	10001496 <add_alarm_under_lock+0x116>
10001494:	e788      	b.n	100013a8 <add_alarm_under_lock+0x28>
10001496:	701e      	strb	r6, [r3, #0]
10001498:	e786      	b.n	100013a8 <add_alarm_under_lock+0x28>
1000149a:	4b12      	ldr	r3, [pc, #72]	; (100014e4 <add_alarm_under_lock+0x164>)
1000149c:	4a12      	ldr	r2, [pc, #72]	; (100014e8 <add_alarm_under_lock+0x168>)
1000149e:	213b      	movs	r1, #59	; 0x3b
100014a0:	480e      	ldr	r0, [pc, #56]	; (100014dc <add_alarm_under_lock+0x15c>)
100014a2:	f000 ff41 	bl	10002328 <__assert_func>
100014a6:	4b11      	ldr	r3, [pc, #68]	; (100014ec <add_alarm_under_lock+0x16c>)
100014a8:	4a11      	ldr	r2, [pc, #68]	; (100014f0 <add_alarm_under_lock+0x170>)
100014aa:	21a6      	movs	r1, #166	; 0xa6
100014ac:	4808      	ldr	r0, [pc, #32]	; (100014d0 <add_alarm_under_lock+0x150>)
100014ae:	f000 ff3b 	bl	10002328 <__assert_func>
100014b2:	4b05      	ldr	r3, [pc, #20]	; (100014c8 <add_alarm_under_lock+0x148>)
100014b4:	4a05      	ldr	r2, [pc, #20]	; (100014cc <add_alarm_under_lock+0x14c>)
100014b6:	2169      	movs	r1, #105	; 0x69
100014b8:	4805      	ldr	r0, [pc, #20]	; (100014d0 <add_alarm_under_lock+0x150>)
100014ba:	f000 ff35 	bl	10002328 <__assert_func>
100014be:	6828      	ldr	r0, [r5, #0]
100014c0:	0021      	movs	r1, r4
100014c2:	f000 fe43 	bl	1000214c <ph_remove_and_free_node>
100014c6:	e7e2      	b.n	1000148e <add_alarm_under_lock+0x10e>
100014c8:	10005710 	.word	0x10005710
100014cc:	10005954 	.word	0x10005954
100014d0:	1000572c 	.word	0x1000572c
100014d4:	100057b0 	.word	0x100057b0
100014d8:	100059cc 	.word	0x100059cc
100014dc:	10005698 	.word	0x10005698
100014e0:	0fffffff 	.word	0x0fffffff
100014e4:	100056dc 	.word	0x100056dc
100014e8:	10005994 	.word	0x10005994
100014ec:	10005694 	.word	0x10005694
100014f0:	10005974 	.word	0x10005974

100014f4 <alarm_pool_alarm_callback>:
100014f4:	b5f0      	push	{r4, r5, r6, r7, lr}
100014f6:	46de      	mov	lr, fp
100014f8:	4657      	mov	r7, sl
100014fa:	464e      	mov	r6, r9
100014fc:	4645      	mov	r5, r8
100014fe:	b5e0      	push	{r5, r6, r7, lr}
10001500:	b08b      	sub	sp, #44	; 0x2c
10001502:	9009      	str	r0, [sp, #36]	; 0x24
10001504:	2300      	movs	r3, #0
10001506:	9308      	str	r3, [sp, #32]
10001508:	0082      	lsls	r2, r0, #2
1000150a:	4bb3      	ldr	r3, [pc, #716]	; (100017d8 <alarm_pool_alarm_callback+0x2e4>)
1000150c:	58d6      	ldr	r6, [r2, r3]
1000150e:	0037      	movs	r7, r6
10001510:	e052      	b.n	100015b8 <alarm_pool_alarm_callback+0xc4>
10001512:	4bb2      	ldr	r3, [pc, #712]	; (100017dc <alarm_pool_alarm_callback+0x2e8>)
10001514:	4ab2      	ldr	r2, [pc, #712]	; (100017e0 <alarm_pool_alarm_callback+0x2ec>)
10001516:	213d      	movs	r1, #61	; 0x3d
10001518:	48b2      	ldr	r0, [pc, #712]	; (100017e4 <alarm_pool_alarm_callback+0x2f0>)
1000151a:	f000 ff05 	bl	10002328 <__assert_func>
1000151e:	4bb2      	ldr	r3, [pc, #712]	; (100017e8 <alarm_pool_alarm_callback+0x2f4>)
10001520:	4ab2      	ldr	r2, [pc, #712]	; (100017ec <alarm_pool_alarm_callback+0x2f8>)
10001522:	213b      	movs	r1, #59	; 0x3b
10001524:	48b2      	ldr	r0, [pc, #712]	; (100017f0 <alarm_pool_alarm_callback+0x2fc>)
10001526:	f000 feff 	bl	10002328 <__assert_func>
1000152a:	2900      	cmp	r1, #0
1000152c:	d101      	bne.n	10001532 <alarm_pool_alarm_callback+0x3e>
1000152e:	2800      	cmp	r0, #0
10001530:	d169      	bne.n	10001606 <alarm_pool_alarm_callback+0x112>
10001532:	2100      	movs	r1, #0
10001534:	4640      	mov	r0, r8
10001536:	f000 fdff 	bl	10002138 <ph_remove_head>
1000153a:	42a0      	cmp	r0, r4
1000153c:	d119      	bne.n	10001572 <alarm_pool_alarm_callback+0x7e>
1000153e:	682a      	ldr	r2, [r5, #0]
10001540:	686b      	ldr	r3, [r5, #4]
10001542:	9206      	str	r2, [sp, #24]
10001544:	9307      	str	r3, [sp, #28]
10001546:	68ab      	ldr	r3, [r5, #8]
10001548:	4698      	mov	r8, r3
1000154a:	68eb      	ldr	r3, [r5, #12]
1000154c:	469a      	mov	sl, r3
1000154e:	4643      	mov	r3, r8
10001550:	2b00      	cmp	r3, #0
10001552:	d014      	beq.n	1000157e <alarm_pool_alarm_callback+0x8a>
10001554:	2c00      	cmp	r4, #0
10001556:	d018      	beq.n	1000158a <alarm_pool_alarm_callback+0x96>
10001558:	683b      	ldr	r3, [r7, #0]
1000155a:	7b1b      	ldrb	r3, [r3, #12]
1000155c:	429c      	cmp	r4, r3
1000155e:	d814      	bhi.n	1000158a <alarm_pool_alarm_callback+0x96>
10001560:	1e63      	subs	r3, r4, #1
10001562:	68fa      	ldr	r2, [r7, #12]
10001564:	5cd3      	ldrb	r3, [r2, r3]
10001566:	9308      	str	r3, [sp, #32]
10001568:	021b      	lsls	r3, r3, #8
1000156a:	4318      	orrs	r0, r3
1000156c:	6138      	str	r0, [r7, #16]
1000156e:	2000      	movs	r0, #0
10001570:	e015      	b.n	1000159e <alarm_pool_alarm_callback+0xaa>
10001572:	4ba0      	ldr	r3, [pc, #640]	; (100017f4 <alarm_pool_alarm_callback+0x300>)
10001574:	4aa0      	ldr	r2, [pc, #640]	; (100017f8 <alarm_pool_alarm_callback+0x304>)
10001576:	218c      	movs	r1, #140	; 0x8c
10001578:	489d      	ldr	r0, [pc, #628]	; (100017f0 <alarm_pool_alarm_callback+0x2fc>)
1000157a:	f000 fed5 	bl	10002328 <__assert_func>
1000157e:	4b9f      	ldr	r3, [pc, #636]	; (100017fc <alarm_pool_alarm_callback+0x308>)
10001580:	4a9d      	ldr	r2, [pc, #628]	; (100017f8 <alarm_pool_alarm_callback+0x304>)
10001582:	2190      	movs	r1, #144	; 0x90
10001584:	489a      	ldr	r0, [pc, #616]	; (100017f0 <alarm_pool_alarm_callback+0x2fc>)
10001586:	f000 fecf 	bl	10002328 <__assert_func>
1000158a:	4b97      	ldr	r3, [pc, #604]	; (100017e8 <alarm_pool_alarm_callback+0x2f4>)
1000158c:	4a9c      	ldr	r2, [pc, #624]	; (10001800 <alarm_pool_alarm_callback+0x30c>)
1000158e:	2140      	movs	r1, #64	; 0x40
10001590:	4897      	ldr	r0, [pc, #604]	; (100017f0 <alarm_pool_alarm_callback+0x2fc>)
10001592:	f000 fec9 	bl	10002328 <__assert_func>
10001596:	2300      	movs	r3, #0
10001598:	469a      	mov	sl, r3
1000159a:	4698      	mov	r8, r3
1000159c:	2000      	movs	r0, #0
1000159e:	687b      	ldr	r3, [r7, #4]
100015a0:	f3bf 8f5f 	dmb	sy
100015a4:	2200      	movs	r2, #0
100015a6:	601a      	str	r2, [r3, #0]
100015a8:	f386 8810 	msr	PRIMASK, r6
100015ac:	4643      	mov	r3, r8
100015ae:	2b00      	cmp	r3, #0
100015b0:	d132      	bne.n	10001618 <alarm_pool_alarm_callback+0x124>
100015b2:	2800      	cmp	r0, #0
100015b4:	d100      	bne.n	100015b8 <alarm_pool_alarm_callback+0xc4>
100015b6:	e107      	b.n	100017c8 <alarm_pool_alarm_callback+0x2d4>
100015b8:	f000 fb18 	bl	10001bec <time_us_64>
100015bc:	0002      	movs	r2, r0
100015be:	1e0b      	subs	r3, r1, #0
100015c0:	dba7      	blt.n	10001512 <alarm_pool_alarm_callback+0x1e>
100015c2:	2000      	movs	r0, #0
100015c4:	2100      	movs	r1, #0
100015c6:	9006      	str	r0, [sp, #24]
100015c8:	9107      	str	r1, [sp, #28]
100015ca:	6878      	ldr	r0, [r7, #4]
100015cc:	f3ef 8610 	mrs	r6, PRIMASK
100015d0:	b672      	cpsid	i
100015d2:	6801      	ldr	r1, [r0, #0]
100015d4:	2900      	cmp	r1, #0
100015d6:	d0fc      	beq.n	100015d2 <alarm_pool_alarm_callback+0xde>
100015d8:	f3bf 8f5f 	dmb	sy
100015dc:	6839      	ldr	r1, [r7, #0]
100015de:	4688      	mov	r8, r1
100015e0:	7b4c      	ldrb	r4, [r1, #13]
100015e2:	2c00      	cmp	r4, #0
100015e4:	d0d7      	beq.n	10001596 <alarm_pool_alarm_callback+0xa2>
100015e6:	d09a      	beq.n	1000151e <alarm_pool_alarm_callback+0x2a>
100015e8:	7b09      	ldrb	r1, [r1, #12]
100015ea:	428c      	cmp	r4, r1
100015ec:	d897      	bhi.n	1000151e <alarm_pool_alarm_callback+0x2a>
100015ee:	4985      	ldr	r1, [pc, #532]	; (10001804 <alarm_pool_alarm_callback+0x310>)
100015f0:	1865      	adds	r5, r4, r1
100015f2:	012d      	lsls	r5, r5, #4
100015f4:	68b9      	ldr	r1, [r7, #8]
100015f6:	468c      	mov	ip, r1
100015f8:	4465      	add	r5, ip
100015fa:	6828      	ldr	r0, [r5, #0]
100015fc:	6869      	ldr	r1, [r5, #4]
100015fe:	1a80      	subs	r0, r0, r2
10001600:	4199      	sbcs	r1, r3
10001602:	2900      	cmp	r1, #0
10001604:	dd91      	ble.n	1000152a <alarm_pool_alarm_callback+0x36>
10001606:	682a      	ldr	r2, [r5, #0]
10001608:	686b      	ldr	r3, [r5, #4]
1000160a:	9809      	ldr	r0, [sp, #36]	; 0x24
1000160c:	f000 fb54 	bl	10001cb8 <hardware_alarm_set_target>
10001610:	2300      	movs	r3, #0
10001612:	469a      	mov	sl, r3
10001614:	4698      	mov	r8, r3
10001616:	e7c2      	b.n	1000159e <alarm_pool_alarm_callback+0xaa>
10001618:	9b08      	ldr	r3, [sp, #32]
1000161a:	021b      	lsls	r3, r3, #8
1000161c:	4323      	orrs	r3, r4
1000161e:	4699      	mov	r9, r3
10001620:	4651      	mov	r1, sl
10001622:	0018      	movs	r0, r3
10001624:	47c0      	blx	r8
10001626:	0005      	movs	r5, r0
10001628:	000e      	movs	r6, r1
1000162a:	687a      	ldr	r2, [r7, #4]
1000162c:	f3ef 8b10 	mrs	fp, PRIMASK
10001630:	b672      	cpsid	i
10001632:	6813      	ldr	r3, [r2, #0]
10001634:	4259      	negs	r1, r3
10001636:	414b      	adcs	r3, r1
10001638:	b2d9      	uxtb	r1, r3
1000163a:	2b00      	cmp	r3, #0
1000163c:	d1f9      	bne.n	10001632 <alarm_pool_alarm_callback+0x13e>
1000163e:	f3bf 8f5f 	dmb	sy
10001642:	2e00      	cmp	r6, #0
10001644:	db26      	blt.n	10001694 <alarm_pool_alarm_callback+0x1a0>
10001646:	2e00      	cmp	r6, #0
10001648:	dd52      	ble.n	100016f0 <alarm_pool_alarm_callback+0x1fc>
1000164a:	693b      	ldr	r3, [r7, #16]
1000164c:	2b00      	cmp	r3, #0
1000164e:	d053      	beq.n	100016f8 <alarm_pool_alarm_callback+0x204>
10001650:	454b      	cmp	r3, r9
10001652:	d172      	bne.n	1000173a <alarm_pool_alarm_callback+0x246>
10001654:	f000 faca 	bl	10001bec <time_us_64>
10001658:	0002      	movs	r2, r0
1000165a:	1e0b      	subs	r3, r1, #0
1000165c:	db73      	blt.n	10001746 <alarm_pool_alarm_callback+0x252>
1000165e:	0001      	movs	r1, r0
10001660:	0018      	movs	r0, r3
10001662:	1952      	adds	r2, r2, r5
10001664:	4173      	adcs	r3, r6
10001666:	4298      	cmp	r0, r3
10001668:	d802      	bhi.n	10001670 <alarm_pool_alarm_callback+0x17c>
1000166a:	d104      	bne.n	10001676 <alarm_pool_alarm_callback+0x182>
1000166c:	4291      	cmp	r1, r2
1000166e:	d902      	bls.n	10001676 <alarm_pool_alarm_callback+0x182>
10001670:	2201      	movs	r2, #1
10001672:	4252      	negs	r2, r2
10001674:	17d3      	asrs	r3, r2, #31
10001676:	2b00      	cmp	r3, #0
10001678:	db6b      	blt.n	10001752 <alarm_pool_alarm_callback+0x25e>
1000167a:	2100      	movs	r1, #0
1000167c:	9104      	str	r1, [sp, #16]
1000167e:	3101      	adds	r1, #1
10001680:	9103      	str	r1, [sp, #12]
10001682:	9402      	str	r4, [sp, #8]
10001684:	4651      	mov	r1, sl
10001686:	9101      	str	r1, [sp, #4]
10001688:	4641      	mov	r1, r8
1000168a:	9100      	str	r1, [sp, #0]
1000168c:	0038      	movs	r0, r7
1000168e:	f7ff fe77 	bl	10001380 <add_alarm_under_lock>
10001692:	e049      	b.n	10001728 <alarm_pool_alarm_callback+0x234>
10001694:	693b      	ldr	r3, [r7, #16]
10001696:	2b00      	cmp	r3, #0
10001698:	d0d5      	beq.n	10001646 <alarm_pool_alarm_callback+0x152>
1000169a:	454b      	cmp	r3, r9
1000169c:	d11c      	bne.n	100016d8 <alarm_pool_alarm_callback+0x1e4>
1000169e:	9a06      	ldr	r2, [sp, #24]
100016a0:	9b07      	ldr	r3, [sp, #28]
100016a2:	0010      	movs	r0, r2
100016a4:	0019      	movs	r1, r3
100016a6:	1b52      	subs	r2, r2, r5
100016a8:	41b3      	sbcs	r3, r6
100016aa:	4299      	cmp	r1, r3
100016ac:	d802      	bhi.n	100016b4 <alarm_pool_alarm_callback+0x1c0>
100016ae:	d104      	bne.n	100016ba <alarm_pool_alarm_callback+0x1c6>
100016b0:	4290      	cmp	r0, r2
100016b2:	d902      	bls.n	100016ba <alarm_pool_alarm_callback+0x1c6>
100016b4:	2201      	movs	r2, #1
100016b6:	4252      	negs	r2, r2
100016b8:	17d3      	asrs	r3, r2, #31
100016ba:	2b00      	cmp	r3, #0
100016bc:	db12      	blt.n	100016e4 <alarm_pool_alarm_callback+0x1f0>
100016be:	2100      	movs	r1, #0
100016c0:	9104      	str	r1, [sp, #16]
100016c2:	3101      	adds	r1, #1
100016c4:	9103      	str	r1, [sp, #12]
100016c6:	9402      	str	r4, [sp, #8]
100016c8:	4651      	mov	r1, sl
100016ca:	9101      	str	r1, [sp, #4]
100016cc:	4641      	mov	r1, r8
100016ce:	9100      	str	r1, [sp, #0]
100016d0:	0038      	movs	r0, r7
100016d2:	f7ff fe55 	bl	10001380 <add_alarm_under_lock>
100016d6:	e027      	b.n	10001728 <alarm_pool_alarm_callback+0x234>
100016d8:	4b4b      	ldr	r3, [pc, #300]	; (10001808 <alarm_pool_alarm_callback+0x314>)
100016da:	4a47      	ldr	r2, [pc, #284]	; (100017f8 <alarm_pool_alarm_callback+0x304>)
100016dc:	219f      	movs	r1, #159	; 0x9f
100016de:	4844      	ldr	r0, [pc, #272]	; (100017f0 <alarm_pool_alarm_callback+0x2fc>)
100016e0:	f000 fe22 	bl	10002328 <__assert_func>
100016e4:	4b3d      	ldr	r3, [pc, #244]	; (100017dc <alarm_pool_alarm_callback+0x2e8>)
100016e6:	4a3e      	ldr	r2, [pc, #248]	; (100017e0 <alarm_pool_alarm_callback+0x2ec>)
100016e8:	213d      	movs	r1, #61	; 0x3d
100016ea:	483e      	ldr	r0, [pc, #248]	; (100017e4 <alarm_pool_alarm_callback+0x2f0>)
100016ec:	f000 fe1c 	bl	10002328 <__assert_func>
100016f0:	2e00      	cmp	r6, #0
100016f2:	d101      	bne.n	100016f8 <alarm_pool_alarm_callback+0x204>
100016f4:	2d00      	cmp	r5, #0
100016f6:	d1a8      	bne.n	1000164a <alarm_pool_alarm_callback+0x156>
100016f8:	683a      	ldr	r2, [r7, #0]
100016fa:	2c00      	cmp	r4, #0
100016fc:	d045      	beq.n	1000178a <alarm_pool_alarm_callback+0x296>
100016fe:	7b53      	ldrb	r3, [r2, #13]
10001700:	429c      	cmp	r4, r3
10001702:	d12c      	bne.n	1000175e <alarm_pool_alarm_callback+0x26a>
10001704:	2101      	movs	r1, #1
10001706:	2900      	cmp	r1, #0
10001708:	d13f      	bne.n	1000178a <alarm_pool_alarm_callback+0x296>
1000170a:	7bd3      	ldrb	r3, [r2, #15]
1000170c:	2b00      	cmp	r3, #0
1000170e:	d142      	bne.n	10001796 <alarm_pool_alarm_callback+0x2a2>
10001710:	73d4      	strb	r4, [r2, #15]
10001712:	2c00      	cmp	r4, #0
10001714:	d052      	beq.n	100017bc <alarm_pool_alarm_callback+0x2c8>
10001716:	683b      	ldr	r3, [r7, #0]
10001718:	7b1b      	ldrb	r3, [r3, #12]
1000171a:	429c      	cmp	r4, r3
1000171c:	d84e      	bhi.n	100017bc <alarm_pool_alarm_callback+0x2c8>
1000171e:	68fa      	ldr	r2, [r7, #12]
10001720:	3c01      	subs	r4, #1
10001722:	5d13      	ldrb	r3, [r2, r4]
10001724:	3301      	adds	r3, #1
10001726:	5513      	strb	r3, [r2, r4]
10001728:	2300      	movs	r3, #0
1000172a:	613b      	str	r3, [r7, #16]
1000172c:	687a      	ldr	r2, [r7, #4]
1000172e:	f3bf 8f5f 	dmb	sy
10001732:	6013      	str	r3, [r2, #0]
10001734:	f38b 8810 	msr	PRIMASK, fp
10001738:	e73e      	b.n	100015b8 <alarm_pool_alarm_callback+0xc4>
1000173a:	4b33      	ldr	r3, [pc, #204]	; (10001808 <alarm_pool_alarm_callback+0x314>)
1000173c:	4a2e      	ldr	r2, [pc, #184]	; (100017f8 <alarm_pool_alarm_callback+0x304>)
1000173e:	21a2      	movs	r1, #162	; 0xa2
10001740:	482b      	ldr	r0, [pc, #172]	; (100017f0 <alarm_pool_alarm_callback+0x2fc>)
10001742:	f000 fdf1 	bl	10002328 <__assert_func>
10001746:	4b25      	ldr	r3, [pc, #148]	; (100017dc <alarm_pool_alarm_callback+0x2e8>)
10001748:	4a25      	ldr	r2, [pc, #148]	; (100017e0 <alarm_pool_alarm_callback+0x2ec>)
1000174a:	213d      	movs	r1, #61	; 0x3d
1000174c:	4825      	ldr	r0, [pc, #148]	; (100017e4 <alarm_pool_alarm_callback+0x2f0>)
1000174e:	f000 fdeb 	bl	10002328 <__assert_func>
10001752:	4b22      	ldr	r3, [pc, #136]	; (100017dc <alarm_pool_alarm_callback+0x2e8>)
10001754:	4a22      	ldr	r2, [pc, #136]	; (100017e0 <alarm_pool_alarm_callback+0x2ec>)
10001756:	213d      	movs	r1, #61	; 0x3d
10001758:	4822      	ldr	r0, [pc, #136]	; (100017e4 <alarm_pool_alarm_callback+0x2f0>)
1000175a:	f000 fde5 	bl	10002328 <__assert_func>
1000175e:	2c00      	cmp	r4, #0
10001760:	d00d      	beq.n	1000177e <alarm_pool_alarm_callback+0x28a>
10001762:	7b13      	ldrb	r3, [r2, #12]
10001764:	429c      	cmp	r4, r3
10001766:	d80a      	bhi.n	1000177e <alarm_pool_alarm_callback+0x28a>
10001768:	0063      	lsls	r3, r4, #1
1000176a:	191b      	adds	r3, r3, r4
1000176c:	3b03      	subs	r3, #3
1000176e:	6810      	ldr	r0, [r2, #0]
10001770:	4684      	mov	ip, r0
10001772:	4463      	add	r3, ip
10001774:	789b      	ldrb	r3, [r3, #2]
10001776:	2b00      	cmp	r3, #0
10001778:	d0c5      	beq.n	10001706 <alarm_pool_alarm_callback+0x212>
1000177a:	2101      	movs	r1, #1
1000177c:	e7c3      	b.n	10001706 <alarm_pool_alarm_callback+0x212>
1000177e:	4b23      	ldr	r3, [pc, #140]	; (1000180c <alarm_pool_alarm_callback+0x318>)
10001780:	4a23      	ldr	r2, [pc, #140]	; (10001810 <alarm_pool_alarm_callback+0x31c>)
10001782:	2169      	movs	r1, #105	; 0x69
10001784:	4823      	ldr	r0, [pc, #140]	; (10001814 <alarm_pool_alarm_callback+0x320>)
10001786:	f000 fdcf 	bl	10002328 <__assert_func>
1000178a:	4b23      	ldr	r3, [pc, #140]	; (10001818 <alarm_pool_alarm_callback+0x324>)
1000178c:	4a23      	ldr	r2, [pc, #140]	; (1000181c <alarm_pool_alarm_callback+0x328>)
1000178e:	21f7      	movs	r1, #247	; 0xf7
10001790:	4820      	ldr	r0, [pc, #128]	; (10001814 <alarm_pool_alarm_callback+0x320>)
10001792:	f000 fdc9 	bl	10002328 <__assert_func>
10001796:	2b00      	cmp	r3, #0
10001798:	d00a      	beq.n	100017b0 <alarm_pool_alarm_callback+0x2bc>
1000179a:	7b11      	ldrb	r1, [r2, #12]
1000179c:	428b      	cmp	r3, r1
1000179e:	d807      	bhi.n	100017b0 <alarm_pool_alarm_callback+0x2bc>
100017a0:	0059      	lsls	r1, r3, #1
100017a2:	18cb      	adds	r3, r1, r3
100017a4:	3b03      	subs	r3, #3
100017a6:	6811      	ldr	r1, [r2, #0]
100017a8:	468c      	mov	ip, r1
100017aa:	4463      	add	r3, ip
100017ac:	705c      	strb	r4, [r3, #1]
100017ae:	e7af      	b.n	10001710 <alarm_pool_alarm_callback+0x21c>
100017b0:	4b16      	ldr	r3, [pc, #88]	; (1000180c <alarm_pool_alarm_callback+0x318>)
100017b2:	4a17      	ldr	r2, [pc, #92]	; (10001810 <alarm_pool_alarm_callback+0x31c>)
100017b4:	2169      	movs	r1, #105	; 0x69
100017b6:	4817      	ldr	r0, [pc, #92]	; (10001814 <alarm_pool_alarm_callback+0x320>)
100017b8:	f000 fdb6 	bl	10002328 <__assert_func>
100017bc:	4b0a      	ldr	r3, [pc, #40]	; (100017e8 <alarm_pool_alarm_callback+0x2f4>)
100017be:	4a10      	ldr	r2, [pc, #64]	; (10001800 <alarm_pool_alarm_callback+0x30c>)
100017c0:	2140      	movs	r1, #64	; 0x40
100017c2:	480b      	ldr	r0, [pc, #44]	; (100017f0 <alarm_pool_alarm_callback+0x2fc>)
100017c4:	f000 fdb0 	bl	10002328 <__assert_func>
100017c8:	b00b      	add	sp, #44	; 0x2c
100017ca:	bc3c      	pop	{r2, r3, r4, r5}
100017cc:	4690      	mov	r8, r2
100017ce:	4699      	mov	r9, r3
100017d0:	46a2      	mov	sl, r4
100017d2:	46ab      	mov	fp, r5
100017d4:	bdf0      	pop	{r4, r5, r6, r7, pc}
100017d6:	46c0      	nop			; (mov r8, r8)
100017d8:	20005d10 	.word	0x20005d10
100017dc:	100057d8 	.word	0x100057d8
100017e0:	1000593c 	.word	0x1000593c
100017e4:	100057f4 	.word	0x100057f4
100017e8:	100056dc 	.word	0x100056dc
100017ec:	10005994 	.word	0x10005994
100017f0:	10005698 	.word	0x10005698
100017f4:	10005844 	.word	0x10005844
100017f8:	100059e4 	.word	0x100059e4
100017fc:	1000585c 	.word	0x1000585c
10001800:	100059a0 	.word	0x100059a0
10001804:	0fffffff 	.word	0x0fffffff
10001808:	10005868 	.word	0x10005868
1000180c:	10005710 	.word	0x10005710
10001810:	10005954 	.word	0x10005954
10001814:	1000572c 	.word	0x1000572c
10001818:	100058a4 	.word	0x100058a4
1000181c:	10005984 	.word	0x10005984

10001820 <alarm_pool_init_default>:
10001820:	b510      	push	{r4, lr}
10001822:	4b0a      	ldr	r3, [pc, #40]	; (1000184c <alarm_pool_init_default+0x2c>)
10001824:	685b      	ldr	r3, [r3, #4]
10001826:	2b00      	cmp	r3, #0
10001828:	d004      	beq.n	10001834 <alarm_pool_init_default+0x14>
1000182a:	210a      	movs	r1, #10
1000182c:	4808      	ldr	r0, [pc, #32]	; (10001850 <alarm_pool_init_default+0x30>)
1000182e:	f000 fad7 	bl	10001de0 <lock_init>
10001832:	bd10      	pop	{r4, pc}
10001834:	4c05      	ldr	r4, [pc, #20]	; (1000184c <alarm_pool_init_default+0x2c>)
10001836:	0023      	movs	r3, r4
10001838:	4a06      	ldr	r2, [pc, #24]	; (10001854 <alarm_pool_init_default+0x34>)
1000183a:	2110      	movs	r1, #16
1000183c:	6820      	ldr	r0, [r4, #0]
1000183e:	f000 fb9b 	bl	10001f78 <ph_post_alloc_init>
10001842:	2103      	movs	r1, #3
10001844:	0020      	movs	r0, r4
10001846:	f7ff fcb3 	bl	100011b0 <alarm_pool_post_alloc_init>
1000184a:	e7ee      	b.n	1000182a <alarm_pool_init_default+0xa>
1000184c:	20005a94 	.word	0x20005a94
10001850:	20005d28 	.word	0x20005d28
10001854:	10001221 	.word	0x10001221

10001858 <alarm_pool_get_default>:
10001858:	b510      	push	{r4, lr}
1000185a:	4b06      	ldr	r3, [pc, #24]	; (10001874 <alarm_pool_get_default+0x1c>)
1000185c:	685b      	ldr	r3, [r3, #4]
1000185e:	2b00      	cmp	r3, #0
10001860:	d001      	beq.n	10001866 <alarm_pool_get_default+0xe>
10001862:	4804      	ldr	r0, [pc, #16]	; (10001874 <alarm_pool_get_default+0x1c>)
10001864:	bd10      	pop	{r4, pc}
10001866:	4b04      	ldr	r3, [pc, #16]	; (10001878 <alarm_pool_get_default+0x20>)
10001868:	4a04      	ldr	r2, [pc, #16]	; (1000187c <alarm_pool_get_default+0x24>)
1000186a:	215c      	movs	r1, #92	; 0x5c
1000186c:	4804      	ldr	r0, [pc, #16]	; (10001880 <alarm_pool_get_default+0x28>)
1000186e:	f000 fd5b 	bl	10002328 <__assert_func>
10001872:	46c0      	nop			; (mov r8, r8)
10001874:	20005a94 	.word	0x20005a94
10001878:	100058c8 	.word	0x100058c8
1000187c:	100059b4 	.word	0x100059b4
10001880:	10005698 	.word	0x10005698

10001884 <alarm_pool_add_alarm_at>:
10001884:	b5f0      	push	{r4, r5, r6, r7, lr}
10001886:	46de      	mov	lr, fp
10001888:	4657      	mov	r7, sl
1000188a:	464e      	mov	r6, r9
1000188c:	4645      	mov	r5, r8
1000188e:	b5e0      	push	{r5, r6, r7, lr}
10001890:	b08b      	sub	sp, #44	; 0x2c
10001892:	4680      	mov	r8, r0
10001894:	0016      	movs	r6, r2
10001896:	001f      	movs	r7, r3
10001898:	9b14      	ldr	r3, [sp, #80]	; 0x50
1000189a:	469a      	mov	sl, r3
1000189c:	9b15      	ldr	r3, [sp, #84]	; 0x54
1000189e:	4699      	mov	r9, r3
100018a0:	ab16      	add	r3, sp, #88	; 0x58
100018a2:	781b      	ldrb	r3, [r3, #0]
100018a4:	469b      	mov	fp, r3
100018a6:	231f      	movs	r3, #31
100018a8:	aa02      	add	r2, sp, #8
100018aa:	4694      	mov	ip, r2
100018ac:	4463      	add	r3, ip
100018ae:	2200      	movs	r2, #0
100018b0:	701a      	strb	r2, [r3, #0]
100018b2:	e032      	b.n	1000191a <alarm_pool_add_alarm_at+0x96>
100018b4:	2800      	cmp	r0, #0
100018b6:	d009      	beq.n	100018cc <alarm_pool_add_alarm_at+0x48>
100018b8:	4642      	mov	r2, r8
100018ba:	6812      	ldr	r2, [r2, #0]
100018bc:	7b12      	ldrb	r2, [r2, #12]
100018be:	4290      	cmp	r0, r2
100018c0:	d804      	bhi.n	100018cc <alarm_pool_add_alarm_at+0x48>
100018c2:	1e42      	subs	r2, r0, #1
100018c4:	4641      	mov	r1, r8
100018c6:	68c9      	ldr	r1, [r1, #12]
100018c8:	5c8a      	ldrb	r2, [r1, r2]
100018ca:	e048      	b.n	1000195e <alarm_pool_add_alarm_at+0xda>
100018cc:	4b43      	ldr	r3, [pc, #268]	; (100019dc <alarm_pool_add_alarm_at+0x158>)
100018ce:	4a44      	ldr	r2, [pc, #272]	; (100019e0 <alarm_pool_add_alarm_at+0x15c>)
100018d0:	2140      	movs	r1, #64	; 0x40
100018d2:	4844      	ldr	r0, [pc, #272]	; (100019e4 <alarm_pool_add_alarm_at+0x160>)
100018d4:	f000 fd28 	bl	10002328 <__assert_func>
100018d8:	9807      	ldr	r0, [sp, #28]
100018da:	2b00      	cmp	r3, #0
100018dc:	d075      	beq.n	100019ca <alarm_pool_add_alarm_at+0x146>
100018de:	465b      	mov	r3, fp
100018e0:	2b00      	cmp	r3, #0
100018e2:	d072      	beq.n	100019ca <alarm_pool_add_alarm_at+0x146>
100018e4:	4649      	mov	r1, r9
100018e6:	47d0      	blx	sl
100018e8:	0004      	movs	r4, r0
100018ea:	000d      	movs	r5, r1
100018ec:	0003      	movs	r3, r0
100018ee:	430b      	orrs	r3, r1
100018f0:	d100      	bne.n	100018f4 <alarm_pool_add_alarm_at+0x70>
100018f2:	e071      	b.n	100019d8 <alarm_pool_add_alarm_at+0x154>
100018f4:	2900      	cmp	r1, #0
100018f6:	db46      	blt.n	10001986 <alarm_pool_add_alarm_at+0x102>
100018f8:	f000 f978 	bl	10001bec <time_us_64>
100018fc:	0006      	movs	r6, r0
100018fe:	1e0f      	subs	r7, r1, #0
10001900:	db55      	blt.n	100019ae <alarm_pool_add_alarm_at+0x12a>
10001902:	1936      	adds	r6, r6, r4
10001904:	416f      	adcs	r7, r5
10001906:	42b9      	cmp	r1, r7
10001908:	d802      	bhi.n	10001910 <alarm_pool_add_alarm_at+0x8c>
1000190a:	d104      	bne.n	10001916 <alarm_pool_add_alarm_at+0x92>
1000190c:	42b0      	cmp	r0, r6
1000190e:	d902      	bls.n	10001916 <alarm_pool_add_alarm_at+0x92>
10001910:	2601      	movs	r6, #1
10001912:	4276      	negs	r6, r6
10001914:	17f7      	asrs	r7, r6, #31
10001916:	2f00      	cmp	r7, #0
10001918:	db4f      	blt.n	100019ba <alarm_pool_add_alarm_at+0x136>
1000191a:	4643      	mov	r3, r8
1000191c:	685a      	ldr	r2, [r3, #4]
1000191e:	f3ef 8410 	mrs	r4, PRIMASK
10001922:	b672      	cpsid	i
10001924:	6813      	ldr	r3, [r2, #0]
10001926:	4259      	negs	r1, r3
10001928:	414b      	adcs	r3, r1
1000192a:	b2d9      	uxtb	r1, r3
1000192c:	9107      	str	r1, [sp, #28]
1000192e:	2b00      	cmp	r3, #0
10001930:	d1f8      	bne.n	10001924 <alarm_pool_add_alarm_at+0xa0>
10001932:	f3bf 8f5f 	dmb	sy
10001936:	331f      	adds	r3, #31
10001938:	aa02      	add	r2, sp, #8
1000193a:	4694      	mov	ip, r2
1000193c:	4463      	add	r3, ip
1000193e:	9304      	str	r3, [sp, #16]
10001940:	2300      	movs	r3, #0
10001942:	9303      	str	r3, [sp, #12]
10001944:	9302      	str	r3, [sp, #8]
10001946:	464b      	mov	r3, r9
10001948:	9301      	str	r3, [sp, #4]
1000194a:	4653      	mov	r3, sl
1000194c:	9300      	str	r3, [sp, #0]
1000194e:	0032      	movs	r2, r6
10001950:	003b      	movs	r3, r7
10001952:	4640      	mov	r0, r8
10001954:	f7ff fd14 	bl	10001380 <add_alarm_under_lock>
10001958:	1e03      	subs	r3, r0, #0
1000195a:	d1ab      	bne.n	100018b4 <alarm_pool_add_alarm_at+0x30>
1000195c:	0002      	movs	r2, r0
1000195e:	4641      	mov	r1, r8
10001960:	6849      	ldr	r1, [r1, #4]
10001962:	f3bf 8f5f 	dmb	sy
10001966:	2500      	movs	r5, #0
10001968:	600d      	str	r5, [r1, #0]
1000196a:	f384 8810 	msr	PRIMASK, r4
1000196e:	2b00      	cmp	r3, #0
10001970:	d029      	beq.n	100019c6 <alarm_pool_add_alarm_at+0x142>
10001972:	231f      	movs	r3, #31
10001974:	a902      	add	r1, sp, #8
10001976:	468c      	mov	ip, r1
10001978:	4463      	add	r3, ip
1000197a:	781b      	ldrb	r3, [r3, #0]
1000197c:	2b00      	cmp	r3, #0
1000197e:	d1ab      	bne.n	100018d8 <alarm_pool_add_alarm_at+0x54>
10001980:	0212      	lsls	r2, r2, #8
10001982:	4310      	orrs	r0, r2
10001984:	e7a9      	b.n	100018da <alarm_pool_add_alarm_at+0x56>
10001986:	0032      	movs	r2, r6
10001988:	003b      	movs	r3, r7
1000198a:	1b36      	subs	r6, r6, r4
1000198c:	41af      	sbcs	r7, r5
1000198e:	42bb      	cmp	r3, r7
10001990:	d802      	bhi.n	10001998 <alarm_pool_add_alarm_at+0x114>
10001992:	d104      	bne.n	1000199e <alarm_pool_add_alarm_at+0x11a>
10001994:	42b2      	cmp	r2, r6
10001996:	d902      	bls.n	1000199e <alarm_pool_add_alarm_at+0x11a>
10001998:	2601      	movs	r6, #1
1000199a:	4276      	negs	r6, r6
1000199c:	17f7      	asrs	r7, r6, #31
1000199e:	2f00      	cmp	r7, #0
100019a0:	dabb      	bge.n	1000191a <alarm_pool_add_alarm_at+0x96>
100019a2:	4b11      	ldr	r3, [pc, #68]	; (100019e8 <alarm_pool_add_alarm_at+0x164>)
100019a4:	4a11      	ldr	r2, [pc, #68]	; (100019ec <alarm_pool_add_alarm_at+0x168>)
100019a6:	213d      	movs	r1, #61	; 0x3d
100019a8:	4811      	ldr	r0, [pc, #68]	; (100019f0 <alarm_pool_add_alarm_at+0x16c>)
100019aa:	f000 fcbd 	bl	10002328 <__assert_func>
100019ae:	4b0e      	ldr	r3, [pc, #56]	; (100019e8 <alarm_pool_add_alarm_at+0x164>)
100019b0:	4a0e      	ldr	r2, [pc, #56]	; (100019ec <alarm_pool_add_alarm_at+0x168>)
100019b2:	213d      	movs	r1, #61	; 0x3d
100019b4:	480e      	ldr	r0, [pc, #56]	; (100019f0 <alarm_pool_add_alarm_at+0x16c>)
100019b6:	f000 fcb7 	bl	10002328 <__assert_func>
100019ba:	4b0b      	ldr	r3, [pc, #44]	; (100019e8 <alarm_pool_add_alarm_at+0x164>)
100019bc:	4a0b      	ldr	r2, [pc, #44]	; (100019ec <alarm_pool_add_alarm_at+0x168>)
100019be:	213d      	movs	r1, #61	; 0x3d
100019c0:	480b      	ldr	r0, [pc, #44]	; (100019f0 <alarm_pool_add_alarm_at+0x16c>)
100019c2:	f000 fcb1 	bl	10002328 <__assert_func>
100019c6:	2001      	movs	r0, #1
100019c8:	4240      	negs	r0, r0
100019ca:	b00b      	add	sp, #44	; 0x2c
100019cc:	bc3c      	pop	{r2, r3, r4, r5}
100019ce:	4690      	mov	r8, r2
100019d0:	4699      	mov	r9, r3
100019d2:	46a2      	mov	sl, r4
100019d4:	46ab      	mov	fp, r5
100019d6:	bdf0      	pop	{r4, r5, r6, r7, pc}
100019d8:	9807      	ldr	r0, [sp, #28]
100019da:	e7f6      	b.n	100019ca <alarm_pool_add_alarm_at+0x146>
100019dc:	100056dc 	.word	0x100056dc
100019e0:	100059a0 	.word	0x100059a0
100019e4:	10005698 	.word	0x10005698
100019e8:	100057d8 	.word	0x100057d8
100019ec:	1000593c 	.word	0x1000593c
100019f0:	100057f4 	.word	0x100057f4

100019f4 <sleep_until>:
100019f4:	b5f0      	push	{r4, r5, r6, r7, lr}
100019f6:	b087      	sub	sp, #28
100019f8:	0006      	movs	r6, r0
100019fa:	000f      	movs	r7, r1
100019fc:	f7fe fc33 	bl	10000266 <__get_current_exception>
10001a00:	2800      	cmp	r0, #0
10001a02:	d11f      	bne.n	10001a44 <sleep_until+0x50>
10001a04:	2406      	movs	r4, #6
10001a06:	4264      	negs	r4, r4
10001a08:	17e5      	asrs	r5, r4, #31
10001a0a:	19a4      	adds	r4, r4, r6
10001a0c:	417d      	adcs	r5, r7
10001a0e:	42bd      	cmp	r5, r7
10001a10:	d802      	bhi.n	10001a18 <sleep_until+0x24>
10001a12:	d103      	bne.n	10001a1c <sleep_until+0x28>
10001a14:	42b4      	cmp	r4, r6
10001a16:	d901      	bls.n	10001a1c <sleep_until+0x28>
10001a18:	2400      	movs	r4, #0
10001a1a:	2500      	movs	r5, #0
10001a1c:	2d00      	cmp	r5, #0
10001a1e:	db14      	blt.n	10001a4a <sleep_until+0x56>
10001a20:	9404      	str	r4, [sp, #16]
10001a22:	9505      	str	r5, [sp, #20]
10001a24:	f000 f8e2 	bl	10001bec <time_us_64>
10001a28:	0002      	movs	r2, r0
10001a2a:	1e0b      	subs	r3, r1, #0
10001a2c:	db13      	blt.n	10001a56 <sleep_until+0x62>
10001a2e:	1aa4      	subs	r4, r4, r2
10001a30:	419d      	sbcs	r5, r3
10001a32:	2d00      	cmp	r5, #0
10001a34:	dc17      	bgt.n	10001a66 <sleep_until+0x72>
10001a36:	d014      	beq.n	10001a62 <sleep_until+0x6e>
10001a38:	0030      	movs	r0, r6
10001a3a:	0039      	movs	r1, r7
10001a3c:	f000 f8e2 	bl	10001c04 <busy_wait_until>
10001a40:	b007      	add	sp, #28
10001a42:	bdf0      	pop	{r4, r5, r6, r7, pc}
10001a44:	4823      	ldr	r0, [pc, #140]	; (10001ad4 <sleep_until+0xe0>)
10001a46:	f000 fc8d 	bl	10002364 <panic>
10001a4a:	4b23      	ldr	r3, [pc, #140]	; (10001ad8 <sleep_until+0xe4>)
10001a4c:	4a23      	ldr	r2, [pc, #140]	; (10001adc <sleep_until+0xe8>)
10001a4e:	213d      	movs	r1, #61	; 0x3d
10001a50:	4823      	ldr	r0, [pc, #140]	; (10001ae0 <sleep_until+0xec>)
10001a52:	f000 fc69 	bl	10002328 <__assert_func>
10001a56:	4b20      	ldr	r3, [pc, #128]	; (10001ad8 <sleep_until+0xe4>)
10001a58:	4a20      	ldr	r2, [pc, #128]	; (10001adc <sleep_until+0xe8>)
10001a5a:	213d      	movs	r1, #61	; 0x3d
10001a5c:	4820      	ldr	r0, [pc, #128]	; (10001ae0 <sleep_until+0xec>)
10001a5e:	f000 fc63 	bl	10002328 <__assert_func>
10001a62:	2c00      	cmp	r4, #0
10001a64:	d0e8      	beq.n	10001a38 <sleep_until+0x44>
10001a66:	f7ff fef7 	bl	10001858 <alarm_pool_get_default>
10001a6a:	2300      	movs	r3, #0
10001a6c:	9302      	str	r3, [sp, #8]
10001a6e:	9301      	str	r3, [sp, #4]
10001a70:	4b1c      	ldr	r3, [pc, #112]	; (10001ae4 <sleep_until+0xf0>)
10001a72:	9300      	str	r3, [sp, #0]
10001a74:	9a04      	ldr	r2, [sp, #16]
10001a76:	9b05      	ldr	r3, [sp, #20]
10001a78:	f7ff ff04 	bl	10001884 <alarm_pool_add_alarm_at>
10001a7c:	2800      	cmp	r0, #0
10001a7e:	da18      	bge.n	10001ab2 <sleep_until+0xbe>
10001a80:	e7da      	b.n	10001a38 <sleep_until+0x44>
10001a82:	2300      	movs	r3, #0
10001a84:	e000      	b.n	10001a88 <sleep_until+0x94>
10001a86:	2300      	movs	r3, #0
10001a88:	2b00      	cmp	r3, #0
10001a8a:	d1d5      	bne.n	10001a38 <sleep_until+0x44>
10001a8c:	4b16      	ldr	r3, [pc, #88]	; (10001ae8 <sleep_until+0xf4>)
10001a8e:	681a      	ldr	r2, [r3, #0]
10001a90:	f3ef 8110 	mrs	r1, PRIMASK
10001a94:	b672      	cpsid	i
10001a96:	6813      	ldr	r3, [r2, #0]
10001a98:	2b00      	cmp	r3, #0
10001a9a:	d0fc      	beq.n	10001a96 <sleep_until+0xa2>
10001a9c:	f3bf 8f5f 	dmb	sy
10001aa0:	4b11      	ldr	r3, [pc, #68]	; (10001ae8 <sleep_until+0xf4>)
10001aa2:	681b      	ldr	r3, [r3, #0]
10001aa4:	f3bf 8f5f 	dmb	sy
10001aa8:	2200      	movs	r2, #0
10001aaa:	601a      	str	r2, [r3, #0]
10001aac:	f381 8810 	msr	PRIMASK, r1
10001ab0:	bf20      	wfe
10001ab2:	9904      	ldr	r1, [sp, #16]
10001ab4:	9a05      	ldr	r2, [sp, #20]
10001ab6:	4b0d      	ldr	r3, [pc, #52]	; (10001aec <sleep_until+0xf8>)
10001ab8:	6a5b      	ldr	r3, [r3, #36]	; 0x24
10001aba:	429a      	cmp	r2, r3
10001abc:	d8e3      	bhi.n	10001a86 <sleep_until+0x92>
10001abe:	480b      	ldr	r0, [pc, #44]	; (10001aec <sleep_until+0xf8>)
10001ac0:	6a80      	ldr	r0, [r0, #40]	; 0x28
10001ac2:	4288      	cmp	r0, r1
10001ac4:	d203      	bcs.n	10001ace <sleep_until+0xda>
10001ac6:	429a      	cmp	r2, r3
10001ac8:	d0db      	beq.n	10001a82 <sleep_until+0x8e>
10001aca:	2301      	movs	r3, #1
10001acc:	e7dc      	b.n	10001a88 <sleep_until+0x94>
10001ace:	2301      	movs	r3, #1
10001ad0:	e7da      	b.n	10001a88 <sleep_until+0x94>
10001ad2:	46c0      	nop			; (mov r8, r8)
10001ad4:	100058ec 	.word	0x100058ec
10001ad8:	100057d8 	.word	0x100057d8
10001adc:	1000593c 	.word	0x1000593c
10001ae0:	100057f4 	.word	0x100057f4
10001ae4:	100011f1 	.word	0x100011f1
10001ae8:	20005d28 	.word	0x20005d28
10001aec:	40054000 	.word	0x40054000

10001af0 <sleep_us>:
10001af0:	b5f8      	push	{r3, r4, r5, r6, r7, lr}
10001af2:	0004      	movs	r4, r0
10001af4:	000d      	movs	r5, r1
10001af6:	f000 f879 	bl	10001bec <time_us_64>
10001afa:	0002      	movs	r2, r0
10001afc:	1e0b      	subs	r3, r1, #0
10001afe:	db10      	blt.n	10001b22 <sleep_us+0x32>
10001b00:	0020      	movs	r0, r4
10001b02:	0029      	movs	r1, r5
10001b04:	1880      	adds	r0, r0, r2
10001b06:	4159      	adcs	r1, r3
10001b08:	428b      	cmp	r3, r1
10001b0a:	d802      	bhi.n	10001b12 <sleep_us+0x22>
10001b0c:	d104      	bne.n	10001b18 <sleep_us+0x28>
10001b0e:	4282      	cmp	r2, r0
10001b10:	d902      	bls.n	10001b18 <sleep_us+0x28>
10001b12:	2001      	movs	r0, #1
10001b14:	4240      	negs	r0, r0
10001b16:	17c1      	asrs	r1, r0, #31
10001b18:	2900      	cmp	r1, #0
10001b1a:	db08      	blt.n	10001b2e <sleep_us+0x3e>
10001b1c:	f7ff ff6a 	bl	100019f4 <sleep_until>
10001b20:	bdf8      	pop	{r3, r4, r5, r6, r7, pc}
10001b22:	4b06      	ldr	r3, [pc, #24]	; (10001b3c <sleep_us+0x4c>)
10001b24:	4a06      	ldr	r2, [pc, #24]	; (10001b40 <sleep_us+0x50>)
10001b26:	213d      	movs	r1, #61	; 0x3d
10001b28:	4806      	ldr	r0, [pc, #24]	; (10001b44 <sleep_us+0x54>)
10001b2a:	f000 fbfd 	bl	10002328 <__assert_func>
10001b2e:	4b03      	ldr	r3, [pc, #12]	; (10001b3c <sleep_us+0x4c>)
10001b30:	4a03      	ldr	r2, [pc, #12]	; (10001b40 <sleep_us+0x50>)
10001b32:	213d      	movs	r1, #61	; 0x3d
10001b34:	4803      	ldr	r0, [pc, #12]	; (10001b44 <sleep_us+0x54>)
10001b36:	f000 fbf7 	bl	10002328 <__assert_func>
10001b3a:	46c0      	nop			; (mov r8, r8)
10001b3c:	100057d8 	.word	0x100057d8
10001b40:	1000593c 	.word	0x1000593c
10001b44:	100057f4 	.word	0x100057f4

10001b48 <hardware_alarm_irq_handler>:
10001b48:	b570      	push	{r4, r5, r6, lr}
10001b4a:	f3ef 8305 	mrs	r3, IPSR
10001b4e:	203f      	movs	r0, #63	; 0x3f
10001b50:	4018      	ands	r0, r3
10001b52:	3810      	subs	r0, #16
10001b54:	f3ef 8410 	mrs	r4, PRIMASK
10001b58:	b672      	cpsid	i
10001b5a:	4b19      	ldr	r3, [pc, #100]	; (10001bc0 <hardware_alarm_irq_handler+0x78>)
10001b5c:	681b      	ldr	r3, [r3, #0]
10001b5e:	2b00      	cmp	r3, #0
10001b60:	d0fb      	beq.n	10001b5a <hardware_alarm_irq_handler+0x12>
10001b62:	f3bf 8f5f 	dmb	sy
10001b66:	2301      	movs	r3, #1
10001b68:	0019      	movs	r1, r3
10001b6a:	4081      	lsls	r1, r0
10001b6c:	4a15      	ldr	r2, [pc, #84]	; (10001bc4 <hardware_alarm_irq_handler+0x7c>)
10001b6e:	6351      	str	r1, [r2, #52]	; 0x34
10001b70:	4a15      	ldr	r2, [pc, #84]	; (10001bc8 <hardware_alarm_irq_handler+0x80>)
10001b72:	7812      	ldrb	r2, [r2, #0]
10001b74:	0015      	movs	r5, r2
10001b76:	40c5      	lsrs	r5, r0
10001b78:	422b      	tst	r3, r5
10001b7a:	d014      	beq.n	10001ba6 <hardware_alarm_irq_handler+0x5e>
10001b7c:	4b11      	ldr	r3, [pc, #68]	; (10001bc4 <hardware_alarm_irq_handler+0x7c>)
10001b7e:	6a5d      	ldr	r5, [r3, #36]	; 0x24
10001b80:	0083      	lsls	r3, r0, #2
10001b82:	4e12      	ldr	r6, [pc, #72]	; (10001bcc <hardware_alarm_irq_handler+0x84>)
10001b84:	599b      	ldr	r3, [r3, r6]
10001b86:	429d      	cmp	r5, r3
10001b88:	d306      	bcc.n	10001b98 <hardware_alarm_irq_handler+0x50>
10001b8a:	0083      	lsls	r3, r0, #2
10001b8c:	4d10      	ldr	r5, [pc, #64]	; (10001bd0 <hardware_alarm_irq_handler+0x88>)
10001b8e:	595b      	ldr	r3, [r3, r5]
10001b90:	438a      	bics	r2, r1
10001b92:	490d      	ldr	r1, [pc, #52]	; (10001bc8 <hardware_alarm_irq_handler+0x80>)
10001b94:	700a      	strb	r2, [r1, #0]
10001b96:	e007      	b.n	10001ba8 <hardware_alarm_irq_handler+0x60>
10001b98:	4a0a      	ldr	r2, [pc, #40]	; (10001bc4 <hardware_alarm_irq_handler+0x7c>)
10001b9a:	1d03      	adds	r3, r0, #4
10001b9c:	009b      	lsls	r3, r3, #2
10001b9e:	5899      	ldr	r1, [r3, r2]
10001ba0:	5099      	str	r1, [r3, r2]
10001ba2:	2300      	movs	r3, #0
10001ba4:	e000      	b.n	10001ba8 <hardware_alarm_irq_handler+0x60>
10001ba6:	2300      	movs	r3, #0
10001ba8:	f3bf 8f5f 	dmb	sy
10001bac:	4a04      	ldr	r2, [pc, #16]	; (10001bc0 <hardware_alarm_irq_handler+0x78>)
10001bae:	2100      	movs	r1, #0
10001bb0:	6011      	str	r1, [r2, #0]
10001bb2:	f384 8810 	msr	PRIMASK, r4
10001bb6:	2b00      	cmp	r3, #0
10001bb8:	d000      	beq.n	10001bbc <hardware_alarm_irq_handler+0x74>
10001bba:	4798      	blx	r3
10001bbc:	bd70      	pop	{r4, r5, r6, pc}
10001bbe:	46c0      	nop			; (mov r8, r8)
10001bc0:	d0000128 	.word	0xd0000128
10001bc4:	40054000 	.word	0x40054000
10001bc8:	20005d4e 	.word	0x20005d4e
10001bcc:	20005d34 	.word	0x20005d34
10001bd0:	20005c8c 	.word	0x20005c8c

10001bd4 <hardware_alarm_claim>:
10001bd4:	b510      	push	{r4, lr}
10001bd6:	0001      	movs	r1, r0
10001bd8:	4a02      	ldr	r2, [pc, #8]	; (10001be4 <hardware_alarm_claim+0x10>)
10001bda:	4803      	ldr	r0, [pc, #12]	; (10001be8 <hardware_alarm_claim+0x14>)
10001bdc:	f7ff fa24 	bl	10001028 <hw_claim_or_assert>
10001be0:	bd10      	pop	{r4, pc}
10001be2:	46c0      	nop			; (mov r8, r8)
10001be4:	10005a00 	.word	0x10005a00
10001be8:	20005d4c 	.word	0x20005d4c

10001bec <time_us_64>:
10001bec:	4b04      	ldr	r3, [pc, #16]	; (10001c00 <time_us_64+0x14>)
10001bee:	6a5b      	ldr	r3, [r3, #36]	; 0x24
10001bf0:	4a03      	ldr	r2, [pc, #12]	; (10001c00 <time_us_64+0x14>)
10001bf2:	6a90      	ldr	r0, [r2, #40]	; 0x28
10001bf4:	0019      	movs	r1, r3
10001bf6:	6a53      	ldr	r3, [r2, #36]	; 0x24
10001bf8:	4299      	cmp	r1, r3
10001bfa:	d1f9      	bne.n	10001bf0 <time_us_64+0x4>
10001bfc:	4770      	bx	lr
10001bfe:	46c0      	nop			; (mov r8, r8)
10001c00:	40054000 	.word	0x40054000

10001c04 <busy_wait_until>:
10001c04:	4b07      	ldr	r3, [pc, #28]	; (10001c24 <busy_wait_until+0x20>)
10001c06:	6a5b      	ldr	r3, [r3, #36]	; 0x24
10001c08:	428b      	cmp	r3, r1
10001c0a:	d204      	bcs.n	10001c16 <busy_wait_until+0x12>
10001c0c:	4b05      	ldr	r3, [pc, #20]	; (10001c24 <busy_wait_until+0x20>)
10001c0e:	6a5b      	ldr	r3, [r3, #36]	; 0x24
10001c10:	e7fa      	b.n	10001c08 <busy_wait_until+0x4>
10001c12:	4b04      	ldr	r3, [pc, #16]	; (10001c24 <busy_wait_until+0x20>)
10001c14:	6a5b      	ldr	r3, [r3, #36]	; 0x24
10001c16:	428b      	cmp	r3, r1
10001c18:	d103      	bne.n	10001c22 <busy_wait_until+0x1e>
10001c1a:	4b02      	ldr	r3, [pc, #8]	; (10001c24 <busy_wait_until+0x20>)
10001c1c:	6a9b      	ldr	r3, [r3, #40]	; 0x28
10001c1e:	4283      	cmp	r3, r0
10001c20:	d3f7      	bcc.n	10001c12 <busy_wait_until+0xe>
10001c22:	4770      	bx	lr
10001c24:	40054000 	.word	0x40054000

10001c28 <hardware_alarm_set_callback>:
10001c28:	b570      	push	{r4, r5, r6, lr}
10001c2a:	0004      	movs	r4, r0
10001c2c:	000d      	movs	r5, r1
10001c2e:	f3ef 8610 	mrs	r6, PRIMASK
10001c32:	b672      	cpsid	i
10001c34:	4b1b      	ldr	r3, [pc, #108]	; (10001ca4 <hardware_alarm_set_callback+0x7c>)
10001c36:	681b      	ldr	r3, [r3, #0]
10001c38:	2b00      	cmp	r3, #0
10001c3a:	d0fb      	beq.n	10001c34 <hardware_alarm_set_callback+0xc>
10001c3c:	f3bf 8f5f 	dmb	sy
10001c40:	2d00      	cmp	r5, #0
10001c42:	d01c      	beq.n	10001c7e <hardware_alarm_set_callback+0x56>
10001c44:	0020      	movs	r0, r4
10001c46:	f000 fd1f 	bl	10002688 <irq_get_vtable_handler>
10001c4a:	4b17      	ldr	r3, [pc, #92]	; (10001ca8 <hardware_alarm_set_callback+0x80>)
10001c4c:	4283      	cmp	r3, r0
10001c4e:	d00b      	beq.n	10001c68 <hardware_alarm_set_callback+0x40>
10001c50:	0019      	movs	r1, r3
10001c52:	0020      	movs	r0, r4
10001c54:	f000 fd20 	bl	10002698 <irq_set_exclusive_handler>
10001c58:	2101      	movs	r1, #1
10001c5a:	0020      	movs	r0, r4
10001c5c:	f000 fd0c 	bl	10002678 <irq_set_enabled>
10001c60:	2301      	movs	r3, #1
10001c62:	40a3      	lsls	r3, r4
10001c64:	4a11      	ldr	r2, [pc, #68]	; (10001cac <hardware_alarm_set_callback+0x84>)
10001c66:	6013      	str	r3, [r2, #0]
10001c68:	00a4      	lsls	r4, r4, #2
10001c6a:	4b11      	ldr	r3, [pc, #68]	; (10001cb0 <hardware_alarm_set_callback+0x88>)
10001c6c:	50e5      	str	r5, [r4, r3]
10001c6e:	f3bf 8f5f 	dmb	sy
10001c72:	4b0c      	ldr	r3, [pc, #48]	; (10001ca4 <hardware_alarm_set_callback+0x7c>)
10001c74:	2200      	movs	r2, #0
10001c76:	601a      	str	r2, [r3, #0]
10001c78:	f386 8810 	msr	PRIMASK, r6
10001c7c:	bd70      	pop	{r4, r5, r6, pc}
10001c7e:	00a2      	lsls	r2, r4, #2
10001c80:	4b0b      	ldr	r3, [pc, #44]	; (10001cb0 <hardware_alarm_set_callback+0x88>)
10001c82:	2100      	movs	r1, #0
10001c84:	50d1      	str	r1, [r2, r3]
10001c86:	2201      	movs	r2, #1
10001c88:	40a2      	lsls	r2, r4
10001c8a:	490a      	ldr	r1, [pc, #40]	; (10001cb4 <hardware_alarm_set_callback+0x8c>)
10001c8c:	780b      	ldrb	r3, [r1, #0]
10001c8e:	4393      	bics	r3, r2
10001c90:	700b      	strb	r3, [r1, #0]
10001c92:	4905      	ldr	r1, [pc, #20]	; (10001ca8 <hardware_alarm_set_callback+0x80>)
10001c94:	0020      	movs	r0, r4
10001c96:	f000 fd29 	bl	100026ec <irq_remove_handler>
10001c9a:	2100      	movs	r1, #0
10001c9c:	0020      	movs	r0, r4
10001c9e:	f000 fceb 	bl	10002678 <irq_set_enabled>
10001ca2:	e7e4      	b.n	10001c6e <hardware_alarm_set_callback+0x46>
10001ca4:	d0000128 	.word	0xd0000128
10001ca8:	10001b49 	.word	0x10001b49
10001cac:	40056038 	.word	0x40056038
10001cb0:	20005c8c 	.word	0x20005c8c
10001cb4:	20005d4e 	.word	0x20005d4e

10001cb8 <hardware_alarm_set_target>:
10001cb8:	b5f0      	push	{r4, r5, r6, r7, lr}
10001cba:	46de      	mov	lr, fp
10001cbc:	b500      	push	{lr}
10001cbe:	b084      	sub	sp, #16
10001cc0:	0004      	movs	r4, r0
10001cc2:	0015      	movs	r5, r2
10001cc4:	9201      	str	r2, [sp, #4]
10001cc6:	001e      	movs	r6, r3
10001cc8:	9302      	str	r3, [sp, #8]
10001cca:	f7ff ff8f 	bl	10001bec <time_us_64>
10001cce:	9503      	str	r5, [sp, #12]
10001cd0:	428e      	cmp	r6, r1
10001cd2:	d802      	bhi.n	10001cda <hardware_alarm_set_target+0x22>
10001cd4:	d14e      	bne.n	10001d74 <hardware_alarm_set_target+0xbc>
10001cd6:	4285      	cmp	r5, r0
10001cd8:	d94c      	bls.n	10001d74 <hardware_alarm_set_target+0xbc>
10001cda:	f3ef 8b10 	mrs	fp, PRIMASK
10001cde:	b672      	cpsid	i
10001ce0:	4b27      	ldr	r3, [pc, #156]	; (10001d80 <hardware_alarm_set_target+0xc8>)
10001ce2:	681b      	ldr	r3, [r3, #0]
10001ce4:	2b00      	cmp	r3, #0
10001ce6:	d0fb      	beq.n	10001ce0 <hardware_alarm_set_target+0x28>
10001ce8:	f3bf 8f5f 	dmb	sy
10001cec:	4a25      	ldr	r2, [pc, #148]	; (10001d84 <hardware_alarm_set_target+0xcc>)
10001cee:	7817      	ldrb	r7, [r2, #0]
10001cf0:	2501      	movs	r5, #1
10001cf2:	40a5      	lsls	r5, r4
10001cf4:	b2eb      	uxtb	r3, r5
10001cf6:	433b      	orrs	r3, r7
10001cf8:	7013      	strb	r3, [r2, #0]
10001cfa:	4b23      	ldr	r3, [pc, #140]	; (10001d88 <hardware_alarm_set_target+0xd0>)
10001cfc:	635d      	str	r5, [r3, #52]	; 0x34
10001cfe:	1d22      	adds	r2, r4, #4
10001d00:	0092      	lsls	r2, r2, #2
10001d02:	9901      	ldr	r1, [sp, #4]
10001d04:	50d1      	str	r1, [r2, r3]
10001d06:	00a2      	lsls	r2, r4, #2
10001d08:	4920      	ldr	r1, [pc, #128]	; (10001d8c <hardware_alarm_set_target+0xd4>)
10001d0a:	9802      	ldr	r0, [sp, #8]
10001d0c:	5050      	str	r0, [r2, r1]
10001d0e:	6a1b      	ldr	r3, [r3, #32]
10001d10:	422b      	tst	r3, r5
10001d12:	d112      	bne.n	10001d3a <hardware_alarm_set_target+0x82>
10001d14:	4b1c      	ldr	r3, [pc, #112]	; (10001d88 <hardware_alarm_set_target+0xd0>)
10001d16:	6c1b      	ldr	r3, [r3, #64]	; 0x40
10001d18:	422b      	tst	r3, r5
10001d1a:	d008      	beq.n	10001d2e <hardware_alarm_set_target+0x76>
10001d1c:	2000      	movs	r0, #0
10001d1e:	f3bf 8f5f 	dmb	sy
10001d22:	4b17      	ldr	r3, [pc, #92]	; (10001d80 <hardware_alarm_set_target+0xc8>)
10001d24:	2200      	movs	r2, #0
10001d26:	601a      	str	r2, [r3, #0]
10001d28:	f38b 8810 	msr	PRIMASK, fp
10001d2c:	e023      	b.n	10001d76 <hardware_alarm_set_target+0xbe>
10001d2e:	4b18      	ldr	r3, [pc, #96]	; (10001d90 <hardware_alarm_set_target+0xd8>)
10001d30:	4a18      	ldr	r2, [pc, #96]	; (10001d94 <hardware_alarm_set_target+0xdc>)
10001d32:	21c1      	movs	r1, #193	; 0xc1
10001d34:	4818      	ldr	r0, [pc, #96]	; (10001d98 <hardware_alarm_set_target+0xe0>)
10001d36:	f000 faf7 	bl	10002328 <__assert_func>
10001d3a:	f7ff ff57 	bl	10001bec <time_us_64>
10001d3e:	428e      	cmp	r6, r1
10001d40:	d814      	bhi.n	10001d6c <hardware_alarm_set_target+0xb4>
10001d42:	d102      	bne.n	10001d4a <hardware_alarm_set_target+0x92>
10001d44:	9b03      	ldr	r3, [sp, #12]
10001d46:	4283      	cmp	r3, r0
10001d48:	d810      	bhi.n	10001d6c <hardware_alarm_set_target+0xb4>
10001d4a:	4b0e      	ldr	r3, [pc, #56]	; (10001d84 <hardware_alarm_set_target+0xcc>)
10001d4c:	781b      	ldrb	r3, [r3, #0]
10001d4e:	42bb      	cmp	r3, r7
10001d50:	d00e      	beq.n	10001d70 <hardware_alarm_set_target+0xb8>
10001d52:	4b0d      	ldr	r3, [pc, #52]	; (10001d88 <hardware_alarm_set_target+0xd0>)
10001d54:	621d      	str	r5, [r3, #32]
10001d56:	635d      	str	r5, [r3, #52]	; 0x34
10001d58:	201f      	movs	r0, #31
10001d5a:	4004      	ands	r4, r0
10001d5c:	2301      	movs	r3, #1
10001d5e:	40a3      	lsls	r3, r4
10001d60:	4a0e      	ldr	r2, [pc, #56]	; (10001d9c <hardware_alarm_set_target+0xe4>)
10001d62:	6013      	str	r3, [r2, #0]
10001d64:	4b07      	ldr	r3, [pc, #28]	; (10001d84 <hardware_alarm_set_target+0xcc>)
10001d66:	701f      	strb	r7, [r3, #0]
10001d68:	381e      	subs	r0, #30
10001d6a:	e7d8      	b.n	10001d1e <hardware_alarm_set_target+0x66>
10001d6c:	2000      	movs	r0, #0
10001d6e:	e7d6      	b.n	10001d1e <hardware_alarm_set_target+0x66>
10001d70:	2001      	movs	r0, #1
10001d72:	e7d4      	b.n	10001d1e <hardware_alarm_set_target+0x66>
10001d74:	2001      	movs	r0, #1
10001d76:	b004      	add	sp, #16
10001d78:	bc04      	pop	{r2}
10001d7a:	4693      	mov	fp, r2
10001d7c:	bdf0      	pop	{r4, r5, r6, r7, pc}
10001d7e:	46c0      	nop			; (mov r8, r8)
10001d80:	d0000128 	.word	0xd0000128
10001d84:	20005d4e 	.word	0x20005d4e
10001d88:	40054000 	.word	0x40054000
10001d8c:	20005d34 	.word	0x20005d34
10001d90:	10005a24 	.word	0x10005a24
10001d94:	10005a94 	.word	0x10005a94
10001d98:	10005a48 	.word	0x10005a48
10001d9c:	e000e280 	.word	0xe000e280

10001da0 <hardware_alarm_cancel>:
10001da0:	b510      	push	{r4, lr}
10001da2:	f3ef 8410 	mrs	r4, PRIMASK
10001da6:	b672      	cpsid	i
10001da8:	4b0a      	ldr	r3, [pc, #40]	; (10001dd4 <hardware_alarm_cancel+0x34>)
10001daa:	681b      	ldr	r3, [r3, #0]
10001dac:	2b00      	cmp	r3, #0
10001dae:	d0fb      	beq.n	10001da8 <hardware_alarm_cancel+0x8>
10001db0:	f3bf 8f5f 	dmb	sy
10001db4:	2301      	movs	r3, #1
10001db6:	4083      	lsls	r3, r0
10001db8:	4a07      	ldr	r2, [pc, #28]	; (10001dd8 <hardware_alarm_cancel+0x38>)
10001dba:	6213      	str	r3, [r2, #32]
10001dbc:	4907      	ldr	r1, [pc, #28]	; (10001ddc <hardware_alarm_cancel+0x3c>)
10001dbe:	780a      	ldrb	r2, [r1, #0]
10001dc0:	439a      	bics	r2, r3
10001dc2:	700a      	strb	r2, [r1, #0]
10001dc4:	f3bf 8f5f 	dmb	sy
10001dc8:	4b02      	ldr	r3, [pc, #8]	; (10001dd4 <hardware_alarm_cancel+0x34>)
10001dca:	2200      	movs	r2, #0
10001dcc:	601a      	str	r2, [r3, #0]
10001dce:	f384 8810 	msr	PRIMASK, r4
10001dd2:	bd10      	pop	{r4, pc}
10001dd4:	d0000128 	.word	0xd0000128
10001dd8:	40054000 	.word	0x40054000
10001ddc:	20005d4e 	.word	0x20005d4e

10001de0 <lock_init>:
10001de0:	4b02      	ldr	r3, [pc, #8]	; (10001dec <lock_init+0xc>)
10001de2:	469c      	mov	ip, r3
10001de4:	4461      	add	r1, ip
10001de6:	0089      	lsls	r1, r1, #2
10001de8:	6001      	str	r1, [r0, #0]
10001dea:	4770      	bx	lr
10001dec:	34000040 	.word	0x34000040

10001df0 <mutex_init_internal>:
10001df0:	b570      	push	{r4, r5, r6, lr}
10001df2:	0004      	movs	r4, r0
10001df4:	000d      	movs	r5, r1
10001df6:	f7ff f94b 	bl	10001090 <next_striped_spin_lock_num>
10001dfa:	0001      	movs	r1, r0
10001dfc:	0020      	movs	r0, r4
10001dfe:	f7ff ffef 	bl	10001de0 <lock_init>
10001e02:	23ff      	movs	r3, #255	; 0xff
10001e04:	7123      	strb	r3, [r4, #4]
10001e06:	7165      	strb	r5, [r4, #5]
10001e08:	f3bf 8f5f 	dmb	sy
10001e0c:	bd70      	pop	{r4, r5, r6, pc}

10001e0e <mutex_init>:
10001e0e:	b510      	push	{r4, lr}
10001e10:	2100      	movs	r1, #0
10001e12:	f7ff ffed 	bl	10001df0 <mutex_init_internal>
10001e16:	bd10      	pop	{r4, pc}

10001e18 <recursive_mutex_init>:
10001e18:	b510      	push	{r4, lr}
10001e1a:	21ff      	movs	r1, #255	; 0xff
10001e1c:	f7ff ffe8 	bl	10001df0 <mutex_init_internal>
10001e20:	bd10      	pop	{r4, pc}
	...

10001e24 <ph_add_child_node>:
10001e24:	b510      	push	{r4, lr}
10001e26:	2900      	cmp	r1, #0
10001e28:	d01e      	beq.n	10001e68 <ph_add_child_node+0x44>
10001e2a:	7b03      	ldrb	r3, [r0, #12]
10001e2c:	4299      	cmp	r1, r3
10001e2e:	d81b      	bhi.n	10001e68 <ph_add_child_node+0x44>
10001e30:	004b      	lsls	r3, r1, #1
10001e32:	185b      	adds	r3, r3, r1
10001e34:	3b03      	subs	r3, #3
10001e36:	6804      	ldr	r4, [r0, #0]
10001e38:	46a4      	mov	ip, r4
10001e3a:	4463      	add	r3, ip
10001e3c:	2900      	cmp	r1, #0
10001e3e:	d019      	beq.n	10001e74 <ph_add_child_node+0x50>
10001e40:	2a00      	cmp	r2, #0
10001e42:	d01d      	beq.n	10001e80 <ph_add_child_node+0x5c>
10001e44:	4291      	cmp	r1, r2
10001e46:	d021      	beq.n	10001e8c <ph_add_child_node+0x68>
10001e48:	2a00      	cmp	r2, #0
10001e4a:	d025      	beq.n	10001e98 <ph_add_child_node+0x74>
10001e4c:	7b04      	ldrb	r4, [r0, #12]
10001e4e:	42a2      	cmp	r2, r4
10001e50:	d822      	bhi.n	10001e98 <ph_add_child_node+0x74>
10001e52:	6804      	ldr	r4, [r0, #0]
10001e54:	0050      	lsls	r0, r2, #1
10001e56:	1880      	adds	r0, r0, r2
10001e58:	3803      	subs	r0, #3
10001e5a:	1820      	adds	r0, r4, r0
10001e5c:	7081      	strb	r1, [r0, #2]
10001e5e:	7819      	ldrb	r1, [r3, #0]
10001e60:	2900      	cmp	r1, #0
10001e62:	d11f      	bne.n	10001ea4 <ph_add_child_node+0x80>
10001e64:	701a      	strb	r2, [r3, #0]
10001e66:	bd10      	pop	{r4, pc}
10001e68:	4b10      	ldr	r3, [pc, #64]	; (10001eac <ph_add_child_node+0x88>)
10001e6a:	4a11      	ldr	r2, [pc, #68]	; (10001eb0 <ph_add_child_node+0x8c>)
10001e6c:	2169      	movs	r1, #105	; 0x69
10001e6e:	4811      	ldr	r0, [pc, #68]	; (10001eb4 <ph_add_child_node+0x90>)
10001e70:	f000 fa5a 	bl	10002328 <__assert_func>
10001e74:	4b10      	ldr	r3, [pc, #64]	; (10001eb8 <ph_add_child_node+0x94>)
10001e76:	4a11      	ldr	r2, [pc, #68]	; (10001ebc <ph_add_child_node+0x98>)
10001e78:	3170      	adds	r1, #112	; 0x70
10001e7a:	480e      	ldr	r0, [pc, #56]	; (10001eb4 <ph_add_child_node+0x90>)
10001e7c:	f000 fa54 	bl	10002328 <__assert_func>
10001e80:	4b0f      	ldr	r3, [pc, #60]	; (10001ec0 <ph_add_child_node+0x9c>)
10001e82:	4a0e      	ldr	r2, [pc, #56]	; (10001ebc <ph_add_child_node+0x98>)
10001e84:	2171      	movs	r1, #113	; 0x71
10001e86:	480b      	ldr	r0, [pc, #44]	; (10001eb4 <ph_add_child_node+0x90>)
10001e88:	f000 fa4e 	bl	10002328 <__assert_func>
10001e8c:	4b0d      	ldr	r3, [pc, #52]	; (10001ec4 <ph_add_child_node+0xa0>)
10001e8e:	4a0b      	ldr	r2, [pc, #44]	; (10001ebc <ph_add_child_node+0x98>)
10001e90:	2172      	movs	r1, #114	; 0x72
10001e92:	4808      	ldr	r0, [pc, #32]	; (10001eb4 <ph_add_child_node+0x90>)
10001e94:	f000 fa48 	bl	10002328 <__assert_func>
10001e98:	4b04      	ldr	r3, [pc, #16]	; (10001eac <ph_add_child_node+0x88>)
10001e9a:	4a05      	ldr	r2, [pc, #20]	; (10001eb0 <ph_add_child_node+0x8c>)
10001e9c:	2169      	movs	r1, #105	; 0x69
10001e9e:	4805      	ldr	r0, [pc, #20]	; (10001eb4 <ph_add_child_node+0x90>)
10001ea0:	f000 fa42 	bl	10002328 <__assert_func>
10001ea4:	7041      	strb	r1, [r0, #1]
10001ea6:	701a      	strb	r2, [r3, #0]
10001ea8:	e7dd      	b.n	10001e66 <ph_add_child_node+0x42>
10001eaa:	46c0      	nop			; (mov r8, r8)
10001eac:	10005710 	.word	0x10005710
10001eb0:	10005c54 	.word	0x10005c54
10001eb4:	1000572c 	.word	0x1000572c
10001eb8:	10005780 	.word	0x10005780
10001ebc:	10005c60 	.word	0x10005c60
10001ec0:	1000578c 	.word	0x1000578c
10001ec4:	10005798 	.word	0x10005798

10001ec8 <ph_merge_nodes>:
10001ec8:	b570      	push	{r4, r5, r6, lr}
10001eca:	0006      	movs	r6, r0
10001ecc:	000d      	movs	r5, r1
10001ece:	0014      	movs	r4, r2
10001ed0:	2900      	cmp	r1, #0
10001ed2:	d014      	beq.n	10001efe <ph_merge_nodes+0x36>
10001ed4:	2a00      	cmp	r2, #0
10001ed6:	d014      	beq.n	10001f02 <ph_merge_nodes+0x3a>
10001ed8:	6880      	ldr	r0, [r0, #8]
10001eda:	6873      	ldr	r3, [r6, #4]
10001edc:	4798      	blx	r3
10001ede:	2800      	cmp	r0, #0
10001ee0:	d006      	beq.n	10001ef0 <ph_merge_nodes+0x28>
10001ee2:	0022      	movs	r2, r4
10001ee4:	0029      	movs	r1, r5
10001ee6:	0030      	movs	r0, r6
10001ee8:	f7ff ff9c 	bl	10001e24 <ph_add_child_node>
10001eec:	0028      	movs	r0, r5
10001eee:	e007      	b.n	10001f00 <ph_merge_nodes+0x38>
10001ef0:	002a      	movs	r2, r5
10001ef2:	0021      	movs	r1, r4
10001ef4:	0030      	movs	r0, r6
10001ef6:	f7ff ff95 	bl	10001e24 <ph_add_child_node>
10001efa:	0020      	movs	r0, r4
10001efc:	e000      	b.n	10001f00 <ph_merge_nodes+0x38>
10001efe:	0010      	movs	r0, r2
10001f00:	bd70      	pop	{r4, r5, r6, pc}
10001f02:	0008      	movs	r0, r1
10001f04:	e7fc      	b.n	10001f00 <ph_merge_nodes+0x38>
	...

10001f08 <ph_clear>:
10001f08:	b510      	push	{r4, lr}
10001f0a:	2300      	movs	r3, #0
10001f0c:	7343      	strb	r3, [r0, #13]
10001f0e:	3301      	adds	r3, #1
10001f10:	7383      	strb	r3, [r0, #14]
10001f12:	7b03      	ldrb	r3, [r0, #12]
10001f14:	73c3      	strb	r3, [r0, #15]
10001f16:	2301      	movs	r3, #1
10001f18:	7b02      	ldrb	r2, [r0, #12]
10001f1a:	429a      	cmp	r2, r3
10001f1c:	d914      	bls.n	10001f48 <ph_clear+0x40>
10001f1e:	2b00      	cmp	r3, #0
10001f20:	d00c      	beq.n	10001f3c <ph_clear+0x34>
10001f22:	7b02      	ldrb	r2, [r0, #12]
10001f24:	4293      	cmp	r3, r2
10001f26:	d809      	bhi.n	10001f3c <ph_clear+0x34>
10001f28:	005a      	lsls	r2, r3, #1
10001f2a:	18d2      	adds	r2, r2, r3
10001f2c:	3a03      	subs	r2, #3
10001f2e:	6801      	ldr	r1, [r0, #0]
10001f30:	468c      	mov	ip, r1
10001f32:	4462      	add	r2, ip
10001f34:	3301      	adds	r3, #1
10001f36:	b2db      	uxtb	r3, r3
10001f38:	7053      	strb	r3, [r2, #1]
10001f3a:	e7ed      	b.n	10001f18 <ph_clear+0x10>
10001f3c:	4b0b      	ldr	r3, [pc, #44]	; (10001f6c <ph_clear+0x64>)
10001f3e:	4a0c      	ldr	r2, [pc, #48]	; (10001f70 <ph_clear+0x68>)
10001f40:	2169      	movs	r1, #105	; 0x69
10001f42:	480c      	ldr	r0, [pc, #48]	; (10001f74 <ph_clear+0x6c>)
10001f44:	f000 f9f0 	bl	10002328 <__assert_func>
10001f48:	2a00      	cmp	r2, #0
10001f4a:	d009      	beq.n	10001f60 <ph_clear+0x58>
10001f4c:	4292      	cmp	r2, r2
10001f4e:	d807      	bhi.n	10001f60 <ph_clear+0x58>
10001f50:	6801      	ldr	r1, [r0, #0]
10001f52:	0053      	lsls	r3, r2, #1
10001f54:	189a      	adds	r2, r3, r2
10001f56:	3a03      	subs	r2, #3
10001f58:	188a      	adds	r2, r1, r2
10001f5a:	2300      	movs	r3, #0
10001f5c:	7053      	strb	r3, [r2, #1]
10001f5e:	bd10      	pop	{r4, pc}
10001f60:	4b02      	ldr	r3, [pc, #8]	; (10001f6c <ph_clear+0x64>)
10001f62:	4a03      	ldr	r2, [pc, #12]	; (10001f70 <ph_clear+0x68>)
10001f64:	2169      	movs	r1, #105	; 0x69
10001f66:	4803      	ldr	r0, [pc, #12]	; (10001f74 <ph_clear+0x6c>)
10001f68:	f000 f9de 	bl	10002328 <__assert_func>
10001f6c:	10005710 	.word	0x10005710
10001f70:	10005c54 	.word	0x10005c54
10001f74:	1000572c 	.word	0x1000572c

10001f78 <ph_post_alloc_init>:
10001f78:	b510      	push	{r4, lr}
10001f7a:	7301      	strb	r1, [r0, #12]
10001f7c:	6042      	str	r2, [r0, #4]
10001f7e:	6083      	str	r3, [r0, #8]
10001f80:	f7ff ffc2 	bl	10001f08 <ph_clear>
10001f84:	bd10      	pop	{r4, pc}
	...

10001f88 <ph_merge_two_pass>:
10001f88:	b570      	push	{r4, r5, r6, lr}
10001f8a:	0004      	movs	r4, r0
10001f8c:	1e08      	subs	r0, r1, #0
10001f8e:	d100      	bne.n	10001f92 <ph_merge_two_pass+0xa>
10001f90:	bd70      	pop	{r4, r5, r6, pc}
10001f92:	2900      	cmp	r1, #0
10001f94:	d034      	beq.n	10002000 <ph_merge_two_pass+0x78>
10001f96:	7b23      	ldrb	r3, [r4, #12]
10001f98:	4299      	cmp	r1, r3
10001f9a:	d831      	bhi.n	10002000 <ph_merge_two_pass+0x78>
10001f9c:	004b      	lsls	r3, r1, #1
10001f9e:	185b      	adds	r3, r3, r1
10001fa0:	3b03      	subs	r3, #3
10001fa2:	6822      	ldr	r2, [r4, #0]
10001fa4:	4694      	mov	ip, r2
10001fa6:	4463      	add	r3, ip
10001fa8:	785a      	ldrb	r2, [r3, #1]
10001faa:	2a00      	cmp	r2, #0
10001fac:	d0f0      	beq.n	10001f90 <ph_merge_two_pass+0x8>
10001fae:	d02d      	beq.n	1000200c <ph_merge_two_pass+0x84>
10001fb0:	7b23      	ldrb	r3, [r4, #12]
10001fb2:	429a      	cmp	r2, r3
10001fb4:	d82a      	bhi.n	1000200c <ph_merge_two_pass+0x84>
10001fb6:	0053      	lsls	r3, r2, #1
10001fb8:	189b      	adds	r3, r3, r2
10001fba:	3b03      	subs	r3, #3
10001fbc:	6821      	ldr	r1, [r4, #0]
10001fbe:	468c      	mov	ip, r1
10001fc0:	4463      	add	r3, ip
10001fc2:	785d      	ldrb	r5, [r3, #1]
10001fc4:	2100      	movs	r1, #0
10001fc6:	7059      	strb	r1, [r3, #1]
10001fc8:	2800      	cmp	r0, #0
10001fca:	d025      	beq.n	10002018 <ph_merge_two_pass+0x90>
10001fcc:	7b23      	ldrb	r3, [r4, #12]
10001fce:	4298      	cmp	r0, r3
10001fd0:	d822      	bhi.n	10002018 <ph_merge_two_pass+0x90>
10001fd2:	0043      	lsls	r3, r0, #1
10001fd4:	181b      	adds	r3, r3, r0
10001fd6:	3b03      	subs	r3, #3
10001fd8:	6821      	ldr	r1, [r4, #0]
10001fda:	468c      	mov	ip, r1
10001fdc:	4463      	add	r3, ip
10001fde:	2100      	movs	r1, #0
10001fe0:	7059      	strb	r1, [r3, #1]
10001fe2:	0001      	movs	r1, r0
10001fe4:	0020      	movs	r0, r4
10001fe6:	f7ff ff6f 	bl	10001ec8 <ph_merge_nodes>
10001fea:	0006      	movs	r6, r0
10001fec:	0029      	movs	r1, r5
10001fee:	0020      	movs	r0, r4
10001ff0:	f7ff ffca 	bl	10001f88 <ph_merge_two_pass>
10001ff4:	0002      	movs	r2, r0
10001ff6:	0031      	movs	r1, r6
10001ff8:	0020      	movs	r0, r4
10001ffa:	f7ff ff65 	bl	10001ec8 <ph_merge_nodes>
10001ffe:	e7c7      	b.n	10001f90 <ph_merge_two_pass+0x8>
10002000:	4b08      	ldr	r3, [pc, #32]	; (10002024 <ph_merge_two_pass+0x9c>)
10002002:	4a09      	ldr	r2, [pc, #36]	; (10002028 <ph_merge_two_pass+0xa0>)
10002004:	2169      	movs	r1, #105	; 0x69
10002006:	4809      	ldr	r0, [pc, #36]	; (1000202c <ph_merge_two_pass+0xa4>)
10002008:	f000 f98e 	bl	10002328 <__assert_func>
1000200c:	4b05      	ldr	r3, [pc, #20]	; (10002024 <ph_merge_two_pass+0x9c>)
1000200e:	4a06      	ldr	r2, [pc, #24]	; (10002028 <ph_merge_two_pass+0xa0>)
10002010:	2169      	movs	r1, #105	; 0x69
10002012:	4806      	ldr	r0, [pc, #24]	; (1000202c <ph_merge_two_pass+0xa4>)
10002014:	f000 f988 	bl	10002328 <__assert_func>
10002018:	4b02      	ldr	r3, [pc, #8]	; (10002024 <ph_merge_two_pass+0x9c>)
1000201a:	4a03      	ldr	r2, [pc, #12]	; (10002028 <ph_merge_two_pass+0xa0>)
1000201c:	2169      	movs	r1, #105	; 0x69
1000201e:	4803      	ldr	r0, [pc, #12]	; (1000202c <ph_merge_two_pass+0xa4>)
10002020:	f000 f982 	bl	10002328 <__assert_func>
10002024:	10005710 	.word	0x10005710
10002028:	10005c54 	.word	0x10005c54
1000202c:	1000572c 	.word	0x1000572c

10002030 <ph_remove_any_head>:
10002030:	b570      	push	{r4, r5, r6, lr}
10002032:	0005      	movs	r5, r0
10002034:	000c      	movs	r4, r1
10002036:	0016      	movs	r6, r2
10002038:	2900      	cmp	r1, #0
1000203a:	d028      	beq.n	1000208e <ph_remove_any_head+0x5e>
1000203c:	d02d      	beq.n	1000209a <ph_remove_any_head+0x6a>
1000203e:	7b03      	ldrb	r3, [r0, #12]
10002040:	4299      	cmp	r1, r3
10002042:	d82a      	bhi.n	1000209a <ph_remove_any_head+0x6a>
10002044:	004b      	lsls	r3, r1, #1
10002046:	185b      	adds	r3, r3, r1
10002048:	3b03      	subs	r3, #3
1000204a:	6802      	ldr	r2, [r0, #0]
1000204c:	4694      	mov	ip, r2
1000204e:	4463      	add	r3, ip
10002050:	785a      	ldrb	r2, [r3, #1]
10002052:	2a00      	cmp	r2, #0
10002054:	d127      	bne.n	100020a6 <ph_remove_any_head+0x76>
10002056:	789a      	ldrb	r2, [r3, #2]
10002058:	2a00      	cmp	r2, #0
1000205a:	d12a      	bne.n	100020b2 <ph_remove_any_head+0x82>
1000205c:	7819      	ldrb	r1, [r3, #0]
1000205e:	f7ff ff93 	bl	10001f88 <ph_merge_two_pass>
10002062:	0003      	movs	r3, r0
10002064:	2e00      	cmp	r6, #0
10002066:	d003      	beq.n	10002070 <ph_remove_any_head+0x40>
10002068:	7bea      	ldrb	r2, [r5, #15]
1000206a:	2a00      	cmp	r2, #0
1000206c:	d127      	bne.n	100020be <ph_remove_any_head+0x8e>
1000206e:	73ec      	strb	r4, [r5, #15]
10002070:	2b00      	cmp	r3, #0
10002072:	d137      	bne.n	100020e4 <ph_remove_any_head+0xb4>
10002074:	2c00      	cmp	r4, #0
10002076:	d049      	beq.n	1000210c <ph_remove_any_head+0xdc>
10002078:	7b2b      	ldrb	r3, [r5, #12]
1000207a:	429c      	cmp	r4, r3
1000207c:	d846      	bhi.n	1000210c <ph_remove_any_head+0xdc>
1000207e:	682b      	ldr	r3, [r5, #0]
10002080:	0061      	lsls	r1, r4, #1
10002082:	190c      	adds	r4, r1, r4
10002084:	3c03      	subs	r4, #3
10002086:	191c      	adds	r4, r3, r4
10002088:	2300      	movs	r3, #0
1000208a:	7063      	strb	r3, [r4, #1]
1000208c:	bd70      	pop	{r4, r5, r6, pc}
1000208e:	4b22      	ldr	r3, [pc, #136]	; (10002118 <ph_remove_any_head+0xe8>)
10002090:	4a22      	ldr	r2, [pc, #136]	; (1000211c <ph_remove_any_head+0xec>)
10002092:	2138      	movs	r1, #56	; 0x38
10002094:	4822      	ldr	r0, [pc, #136]	; (10002120 <ph_remove_any_head+0xf0>)
10002096:	f000 f947 	bl	10002328 <__assert_func>
1000209a:	4b22      	ldr	r3, [pc, #136]	; (10002124 <ph_remove_any_head+0xf4>)
1000209c:	4a22      	ldr	r2, [pc, #136]	; (10002128 <ph_remove_any_head+0xf8>)
1000209e:	2169      	movs	r1, #105	; 0x69
100020a0:	4822      	ldr	r0, [pc, #136]	; (1000212c <ph_remove_any_head+0xfc>)
100020a2:	f000 f941 	bl	10002328 <__assert_func>
100020a6:	4b22      	ldr	r3, [pc, #136]	; (10002130 <ph_remove_any_head+0x100>)
100020a8:	4a1c      	ldr	r2, [pc, #112]	; (1000211c <ph_remove_any_head+0xec>)
100020aa:	213a      	movs	r1, #58	; 0x3a
100020ac:	481c      	ldr	r0, [pc, #112]	; (10002120 <ph_remove_any_head+0xf0>)
100020ae:	f000 f93b 	bl	10002328 <__assert_func>
100020b2:	4b20      	ldr	r3, [pc, #128]	; (10002134 <ph_remove_any_head+0x104>)
100020b4:	4a19      	ldr	r2, [pc, #100]	; (1000211c <ph_remove_any_head+0xec>)
100020b6:	213b      	movs	r1, #59	; 0x3b
100020b8:	4819      	ldr	r0, [pc, #100]	; (10002120 <ph_remove_any_head+0xf0>)
100020ba:	f000 f935 	bl	10002328 <__assert_func>
100020be:	2a00      	cmp	r2, #0
100020c0:	d00a      	beq.n	100020d8 <ph_remove_any_head+0xa8>
100020c2:	7b29      	ldrb	r1, [r5, #12]
100020c4:	428a      	cmp	r2, r1
100020c6:	d807      	bhi.n	100020d8 <ph_remove_any_head+0xa8>
100020c8:	0051      	lsls	r1, r2, #1
100020ca:	188a      	adds	r2, r1, r2
100020cc:	3a03      	subs	r2, #3
100020ce:	6829      	ldr	r1, [r5, #0]
100020d0:	468c      	mov	ip, r1
100020d2:	4462      	add	r2, ip
100020d4:	7054      	strb	r4, [r2, #1]
100020d6:	e7ca      	b.n	1000206e <ph_remove_any_head+0x3e>
100020d8:	4b12      	ldr	r3, [pc, #72]	; (10002124 <ph_remove_any_head+0xf4>)
100020da:	4a13      	ldr	r2, [pc, #76]	; (10002128 <ph_remove_any_head+0xf8>)
100020dc:	2169      	movs	r1, #105	; 0x69
100020de:	4813      	ldr	r0, [pc, #76]	; (1000212c <ph_remove_any_head+0xfc>)
100020e0:	f000 f922 	bl	10002328 <__assert_func>
100020e4:	2b00      	cmp	r3, #0
100020e6:	d00b      	beq.n	10002100 <ph_remove_any_head+0xd0>
100020e8:	7b2a      	ldrb	r2, [r5, #12]
100020ea:	4293      	cmp	r3, r2
100020ec:	d808      	bhi.n	10002100 <ph_remove_any_head+0xd0>
100020ee:	0043      	lsls	r3, r0, #1
100020f0:	181b      	adds	r3, r3, r0
100020f2:	3b03      	subs	r3, #3
100020f4:	682a      	ldr	r2, [r5, #0]
100020f6:	4694      	mov	ip, r2
100020f8:	4463      	add	r3, ip
100020fa:	2200      	movs	r2, #0
100020fc:	709a      	strb	r2, [r3, #2]
100020fe:	e7b9      	b.n	10002074 <ph_remove_any_head+0x44>
10002100:	4b08      	ldr	r3, [pc, #32]	; (10002124 <ph_remove_any_head+0xf4>)
10002102:	4a09      	ldr	r2, [pc, #36]	; (10002128 <ph_remove_any_head+0xf8>)
10002104:	2169      	movs	r1, #105	; 0x69
10002106:	4809      	ldr	r0, [pc, #36]	; (1000212c <ph_remove_any_head+0xfc>)
10002108:	f000 f90e 	bl	10002328 <__assert_func>
1000210c:	4b05      	ldr	r3, [pc, #20]	; (10002124 <ph_remove_any_head+0xf4>)
1000210e:	4a06      	ldr	r2, [pc, #24]	; (10002128 <ph_remove_any_head+0xf8>)
10002110:	2169      	movs	r1, #105	; 0x69
10002112:	4806      	ldr	r0, [pc, #24]	; (1000212c <ph_remove_any_head+0xfc>)
10002114:	f000 f908 	bl	10002328 <__assert_func>
10002118:	10005b94 	.word	0x10005b94
1000211c:	10005c74 	.word	0x10005c74
10002120:	10005b9c 	.word	0x10005b9c
10002124:	10005710 	.word	0x10005710
10002128:	10005c54 	.word	0x10005c54
1000212c:	1000572c 	.word	0x1000572c
10002130:	10005be0 	.word	0x10005be0
10002134:	10005c08 	.word	0x10005c08

10002138 <ph_remove_head>:
10002138:	b570      	push	{r4, r5, r6, lr}
1000213a:	0004      	movs	r4, r0
1000213c:	000a      	movs	r2, r1
1000213e:	7b45      	ldrb	r5, [r0, #13]
10002140:	0029      	movs	r1, r5
10002142:	f7ff ff75 	bl	10002030 <ph_remove_any_head>
10002146:	7360      	strb	r0, [r4, #13]
10002148:	0028      	movs	r0, r5
1000214a:	bd70      	pop	{r4, r5, r6, pc}

1000214c <ph_remove_and_free_node>:
1000214c:	b570      	push	{r4, r5, r6, lr}
1000214e:	0004      	movs	r4, r0
10002150:	2900      	cmp	r1, #0
10002152:	d066      	beq.n	10002222 <ph_remove_and_free_node+0xd6>
10002154:	7b43      	ldrb	r3, [r0, #13]
10002156:	428b      	cmp	r3, r1
10002158:	d00e      	beq.n	10002178 <ph_remove_and_free_node+0x2c>
1000215a:	2900      	cmp	r1, #0
1000215c:	d011      	beq.n	10002182 <ph_remove_and_free_node+0x36>
1000215e:	7b03      	ldrb	r3, [r0, #12]
10002160:	4299      	cmp	r1, r3
10002162:	d80e      	bhi.n	10002182 <ph_remove_and_free_node+0x36>
10002164:	004b      	lsls	r3, r1, #1
10002166:	185b      	adds	r3, r3, r1
10002168:	3b03      	subs	r3, #3
1000216a:	6802      	ldr	r2, [r0, #0]
1000216c:	18d0      	adds	r0, r2, r3
1000216e:	7883      	ldrb	r3, [r0, #2]
10002170:	2b00      	cmp	r3, #0
10002172:	d10c      	bne.n	1000218e <ph_remove_and_free_node+0x42>
10002174:	2000      	movs	r0, #0
10002176:	e055      	b.n	10002224 <ph_remove_and_free_node+0xd8>
10002178:	2101      	movs	r1, #1
1000217a:	f7ff ffdd 	bl	10002138 <ph_remove_head>
1000217e:	2001      	movs	r0, #1
10002180:	e050      	b.n	10002224 <ph_remove_and_free_node+0xd8>
10002182:	4b29      	ldr	r3, [pc, #164]	; (10002228 <ph_remove_and_free_node+0xdc>)
10002184:	4a29      	ldr	r2, [pc, #164]	; (1000222c <ph_remove_and_free_node+0xe0>)
10002186:	2169      	movs	r1, #105	; 0x69
10002188:	4829      	ldr	r0, [pc, #164]	; (10002230 <ph_remove_and_free_node+0xe4>)
1000218a:	f000 f8cd 	bl	10002328 <__assert_func>
1000218e:	2b00      	cmp	r3, #0
10002190:	d01f      	beq.n	100021d2 <ph_remove_and_free_node+0x86>
10002192:	7b22      	ldrb	r2, [r4, #12]
10002194:	4293      	cmp	r3, r2
10002196:	d81c      	bhi.n	100021d2 <ph_remove_and_free_node+0x86>
10002198:	6825      	ldr	r5, [r4, #0]
1000219a:	005a      	lsls	r2, r3, #1
1000219c:	18d3      	adds	r3, r2, r3
1000219e:	3b03      	subs	r3, #3
100021a0:	18ea      	adds	r2, r5, r3
100021a2:	5ceb      	ldrb	r3, [r5, r3]
100021a4:	428b      	cmp	r3, r1
100021a6:	d01a      	beq.n	100021de <ph_remove_and_free_node+0x92>
100021a8:	2b00      	cmp	r3, #0
100021aa:	d01b      	beq.n	100021e4 <ph_remove_and_free_node+0x98>
100021ac:	7b22      	ldrb	r2, [r4, #12]
100021ae:	4293      	cmp	r3, r2
100021b0:	d818      	bhi.n	100021e4 <ph_remove_and_free_node+0x98>
100021b2:	005a      	lsls	r2, r3, #1
100021b4:	18d3      	adds	r3, r2, r3
100021b6:	3b03      	subs	r3, #3
100021b8:	6822      	ldr	r2, [r4, #0]
100021ba:	18d2      	adds	r2, r2, r3
100021bc:	7853      	ldrb	r3, [r2, #1]
100021be:	428b      	cmp	r3, r1
100021c0:	d016      	beq.n	100021f0 <ph_remove_and_free_node+0xa4>
100021c2:	2b00      	cmp	r3, #0
100021c4:	d1f0      	bne.n	100021a8 <ph_remove_and_free_node+0x5c>
100021c6:	4b1b      	ldr	r3, [pc, #108]	; (10002234 <ph_remove_and_free_node+0xe8>)
100021c8:	4a1b      	ldr	r2, [pc, #108]	; (10002238 <ph_remove_and_free_node+0xec>)
100021ca:	2167      	movs	r1, #103	; 0x67
100021cc:	481b      	ldr	r0, [pc, #108]	; (1000223c <ph_remove_and_free_node+0xf0>)
100021ce:	f000 f8ab 	bl	10002328 <__assert_func>
100021d2:	4b15      	ldr	r3, [pc, #84]	; (10002228 <ph_remove_and_free_node+0xdc>)
100021d4:	4a15      	ldr	r2, [pc, #84]	; (1000222c <ph_remove_and_free_node+0xe0>)
100021d6:	2169      	movs	r1, #105	; 0x69
100021d8:	4815      	ldr	r0, [pc, #84]	; (10002230 <ph_remove_and_free_node+0xe4>)
100021da:	f000 f8a5 	bl	10002328 <__assert_func>
100021de:	7843      	ldrb	r3, [r0, #1]
100021e0:	7013      	strb	r3, [r2, #0]
100021e2:	e007      	b.n	100021f4 <ph_remove_and_free_node+0xa8>
100021e4:	4b10      	ldr	r3, [pc, #64]	; (10002228 <ph_remove_and_free_node+0xdc>)
100021e6:	4a11      	ldr	r2, [pc, #68]	; (1000222c <ph_remove_and_free_node+0xe0>)
100021e8:	2169      	movs	r1, #105	; 0x69
100021ea:	4811      	ldr	r0, [pc, #68]	; (10002230 <ph_remove_and_free_node+0xe4>)
100021ec:	f000 f89c 	bl	10002328 <__assert_func>
100021f0:	7843      	ldrb	r3, [r0, #1]
100021f2:	7053      	strb	r3, [r2, #1]
100021f4:	2300      	movs	r3, #0
100021f6:	7083      	strb	r3, [r0, #2]
100021f8:	7043      	strb	r3, [r0, #1]
100021fa:	2201      	movs	r2, #1
100021fc:	0020      	movs	r0, r4
100021fe:	f7ff ff17 	bl	10002030 <ph_remove_any_head>
10002202:	0002      	movs	r2, r0
10002204:	7b61      	ldrb	r1, [r4, #13]
10002206:	4281      	cmp	r1, r0
10002208:	d005      	beq.n	10002216 <ph_remove_and_free_node+0xca>
1000220a:	0020      	movs	r0, r4
1000220c:	f7ff fe5c 	bl	10001ec8 <ph_merge_nodes>
10002210:	7360      	strb	r0, [r4, #13]
10002212:	2001      	movs	r0, #1
10002214:	e006      	b.n	10002224 <ph_remove_and_free_node+0xd8>
10002216:	4b0a      	ldr	r3, [pc, #40]	; (10002240 <ph_remove_and_free_node+0xf4>)
10002218:	4a07      	ldr	r2, [pc, #28]	; (10002238 <ph_remove_and_free_node+0xec>)
1000221a:	216d      	movs	r1, #109	; 0x6d
1000221c:	4807      	ldr	r0, [pc, #28]	; (1000223c <ph_remove_and_free_node+0xf0>)
1000221e:	f000 f883 	bl	10002328 <__assert_func>
10002222:	2000      	movs	r0, #0
10002224:	bd70      	pop	{r4, r5, r6, pc}
10002226:	46c0      	nop			; (mov r8, r8)
10002228:	10005710 	.word	0x10005710
1000222c:	10005c54 	.word	0x10005c54
10002230:	1000572c 	.word	0x1000572c
10002234:	10005c2c 	.word	0x10005c2c
10002238:	10005c88 	.word	0x10005c88
1000223c:	10005b9c 	.word	0x10005b9c
10002240:	10005c34 	.word	0x10005c34

10002244 <runtime_init>:
10002244:	b570      	push	{r4, r5, r6, lr}
10002246:	4b26      	ldr	r3, [pc, #152]	; (100022e0 <runtime_init+0x9c>)
10002248:	4a26      	ldr	r2, [pc, #152]	; (100022e4 <runtime_init+0xa0>)
1000224a:	601a      	str	r2, [r3, #0]
1000224c:	4b26      	ldr	r3, [pc, #152]	; (100022e8 <runtime_init+0xa4>)
1000224e:	4a27      	ldr	r2, [pc, #156]	; (100022ec <runtime_init+0xa8>)
10002250:	601a      	str	r2, [r3, #0]
10002252:	4b27      	ldr	r3, [pc, #156]	; (100022f0 <runtime_init+0xac>)
10002254:	689a      	ldr	r2, [r3, #8]
10002256:	4b25      	ldr	r3, [pc, #148]	; (100022ec <runtime_init+0xa8>)
10002258:	4393      	bics	r3, r2
1000225a:	d1fa      	bne.n	10002252 <runtime_init+0xe>
1000225c:	4c25      	ldr	r4, [pc, #148]	; (100022f4 <runtime_init+0xb0>)
1000225e:	4b26      	ldr	r3, [pc, #152]	; (100022f8 <runtime_init+0xb4>)
10002260:	429c      	cmp	r4, r3
10002262:	d202      	bcs.n	1000226a <runtime_init+0x26>
10002264:	cc08      	ldmia	r4!, {r3}
10002266:	4798      	blx	r3
10002268:	e7f9      	b.n	1000225e <runtime_init+0x1a>
1000226a:	f000 f915 	bl	10002498 <clocks_init>
1000226e:	4b1e      	ldr	r3, [pc, #120]	; (100022e8 <runtime_init+0xa4>)
10002270:	4a22      	ldr	r2, [pc, #136]	; (100022fc <runtime_init+0xb8>)
10002272:	601a      	str	r2, [r3, #0]
10002274:	4b1e      	ldr	r3, [pc, #120]	; (100022f0 <runtime_init+0xac>)
10002276:	689b      	ldr	r3, [r3, #8]
10002278:	43db      	mvns	r3, r3
1000227a:	01db      	lsls	r3, r3, #7
1000227c:	d1fa      	bne.n	10002274 <runtime_init+0x30>
1000227e:	4b20      	ldr	r3, [pc, #128]	; (10002300 <runtime_init+0xbc>)
10002280:	2240      	movs	r2, #64	; 0x40
10002282:	679a      	str	r2, [r3, #120]	; 0x78
10002284:	675a      	str	r2, [r3, #116]	; 0x74
10002286:	671a      	str	r2, [r3, #112]	; 0x70
10002288:	66da      	str	r2, [r3, #108]	; 0x6c
1000228a:	4c1e      	ldr	r4, [pc, #120]	; (10002304 <runtime_init+0xc0>)
1000228c:	e003      	b.n	10002296 <runtime_init+0x52>
1000228e:	0020      	movs	r0, r4
10002290:	f7ff fdbd 	bl	10001e0e <mutex_init>
10002294:	3408      	adds	r4, #8
10002296:	4b1c      	ldr	r3, [pc, #112]	; (10002308 <runtime_init+0xc4>)
10002298:	429c      	cmp	r4, r3
1000229a:	d206      	bcs.n	100022aa <runtime_init+0x66>
1000229c:	7963      	ldrb	r3, [r4, #5]
1000229e:	2b00      	cmp	r3, #0
100022a0:	d0f5      	beq.n	1000228e <runtime_init+0x4a>
100022a2:	0020      	movs	r0, r4
100022a4:	f7ff fdb8 	bl	10001e18 <recursive_mutex_init>
100022a8:	e7f4      	b.n	10002294 <runtime_init+0x50>
100022aa:	4c18      	ldr	r4, [pc, #96]	; (1000230c <runtime_init+0xc8>)
100022ac:	68a1      	ldr	r1, [r4, #8]
100022ae:	4d18      	ldr	r5, [pc, #96]	; (10002310 <runtime_init+0xcc>)
100022b0:	22c0      	movs	r2, #192	; 0xc0
100022b2:	0028      	movs	r0, r5
100022b4:	f002 fc9e 	bl	10004bf4 <__wrap___aeabi_memcpy>
100022b8:	60a5      	str	r5, [r4, #8]
100022ba:	f7fd ffd4 	bl	10000266 <__get_current_exception>
100022be:	2800      	cmp	r0, #0
100022c0:	d000      	beq.n	100022c4 <runtime_init+0x80>
100022c2:	be00      	bkpt	0x0000
100022c4:	f7fe fed4 	bl	10001070 <spin_locks_reset>
100022c8:	f000 fb72 	bl	100029b0 <irq_init_priorities>
100022cc:	f7ff faa8 	bl	10001820 <alarm_pool_init_default>
100022d0:	4c10      	ldr	r4, [pc, #64]	; (10002314 <runtime_init+0xd0>)
100022d2:	e001      	b.n	100022d8 <runtime_init+0x94>
100022d4:	cc08      	ldmia	r4!, {r3}
100022d6:	4798      	blx	r3
100022d8:	4b0f      	ldr	r3, [pc, #60]	; (10002318 <runtime_init+0xd4>)
100022da:	429c      	cmp	r4, r3
100022dc:	d3fa      	bcc.n	100022d4 <runtime_init+0x90>
100022de:	bd70      	pop	{r4, r5, r6, pc}
100022e0:	4000e000 	.word	0x4000e000
100022e4:	fefbcdbf 	.word	0xfefbcdbf
100022e8:	4000f000 	.word	0x4000f000
100022ec:	003c7ffe 	.word	0x003c7ffe
100022f0:	4000c000 	.word	0x4000c000
100022f4:	20005b54 	.word	0x20005b54
100022f8:	20005b64 	.word	0x20005b64
100022fc:	01ffffff 	.word	0x01ffffff
10002300:	4001f000 	.word	0x4001f000
10002304:	20005b44 	.word	0x20005b44
10002308:	20005b54 	.word	0x20005b54
1000230c:	e000ed00 	.word	0xe000ed00
10002310:	20000000 	.word	0x20000000
10002314:	20005b64 	.word	0x20005b64
10002318:	20005b68 	.word	0x20005b68

1000231c <_exit>:
1000231c:	be00      	bkpt	0x0000
1000231e:	e7fd      	b.n	1000231c <_exit>

10002320 <exit>:
10002320:	b510      	push	{r4, lr}
10002322:	f7ff fffb 	bl	1000231c <_exit>
	...

10002328 <__assert_func>:
10002328:	b510      	push	{r4, lr}
1000232a:	b082      	sub	sp, #8
1000232c:	000c      	movs	r4, r1
1000232e:	0019      	movs	r1, r3
10002330:	2a00      	cmp	r2, #0
10002332:	d00c      	beq.n	1000234e <__assert_func+0x26>
10002334:	4b08      	ldr	r3, [pc, #32]	; (10002358 <__assert_func+0x30>)
10002336:	2a00      	cmp	r2, #0
10002338:	d00b      	beq.n	10002352 <__assert_func+0x2a>
1000233a:	9201      	str	r2, [sp, #4]
1000233c:	9300      	str	r3, [sp, #0]
1000233e:	0023      	movs	r3, r4
10002340:	0002      	movs	r2, r0
10002342:	4806      	ldr	r0, [pc, #24]	; (1000235c <__assert_func+0x34>)
10002344:	f002 fd8c 	bl	10004e60 <__wrap_printf>
10002348:	2001      	movs	r0, #1
1000234a:	f7ff ffe7 	bl	1000231c <_exit>
1000234e:	4b04      	ldr	r3, [pc, #16]	; (10002360 <__assert_func+0x38>)
10002350:	e7f1      	b.n	10002336 <__assert_func+0xe>
10002352:	4a03      	ldr	r2, [pc, #12]	; (10002360 <__assert_func+0x38>)
10002354:	e7f1      	b.n	1000233a <__assert_func+0x12>
10002356:	46c0      	nop			; (mov r8, r8)
10002358:	10005ca0 	.word	0x10005ca0
1000235c:	10005cb0 	.word	0x10005cb0
10002360:	10005464 	.word	0x10005464

10002364 <panic>:
10002364:	b40f      	push	{r0, r1, r2, r3}
10002366:	b500      	push	{lr}
10002368:	b083      	sub	sp, #12
1000236a:	4808      	ldr	r0, [pc, #32]	; (1000238c <panic+0x28>)
1000236c:	f002 fd48 	bl	10004e00 <__wrap_puts>
10002370:	9b04      	ldr	r3, [sp, #16]
10002372:	2b00      	cmp	r3, #0
10002374:	d007      	beq.n	10002386 <panic+0x22>
10002376:	a905      	add	r1, sp, #20
10002378:	9101      	str	r1, [sp, #4]
1000237a:	0018      	movs	r0, r3
1000237c:	f002 fd4e 	bl	10004e1c <__wrap_vprintf>
10002380:	4803      	ldr	r0, [pc, #12]	; (10002390 <panic+0x2c>)
10002382:	f002 fd3d 	bl	10004e00 <__wrap_puts>
10002386:	2001      	movs	r0, #1
10002388:	f7ff ffc8 	bl	1000231c <_exit>
1000238c:	10005ce0 	.word	0x10005ce0
10002390:	10005cf0 	.word	0x10005cf0

10002394 <clock_configure>:
10002394:	b5f8      	push	{r3, r4, r5, r6, r7, lr}
10002396:	46de      	mov	lr, fp
10002398:	4657      	mov	r7, sl
1000239a:	464e      	mov	r6, r9
1000239c:	4645      	mov	r5, r8
1000239e:	b5e0      	push	{r5, r6, r7, lr}
100023a0:	0005      	movs	r5, r0
100023a2:	000f      	movs	r7, r1
100023a4:	4692      	mov	sl, r2
100023a6:	001e      	movs	r6, r3
100023a8:	9b0a      	ldr	r3, [sp, #40]	; 0x28
100023aa:	429e      	cmp	r6, r3
100023ac:	d34e      	bcc.n	1000244c <clock_configure+0xb8>
100023ae:	0e33      	lsrs	r3, r6, #24
100023b0:	4699      	mov	r9, r3
100023b2:	0236      	lsls	r6, r6, #8
100023b4:	9a0a      	ldr	r2, [sp, #40]	; 0x28
100023b6:	2300      	movs	r3, #0
100023b8:	0030      	movs	r0, r6
100023ba:	4649      	mov	r1, r9
100023bc:	f001 fce6 	bl	10003d8c <__wrap___aeabi_uldivmod>
100023c0:	4680      	mov	r8, r0
100023c2:	006c      	lsls	r4, r5, #1
100023c4:	1964      	adds	r4, r4, r5
100023c6:	00a4      	lsls	r4, r4, #2
100023c8:	4b2e      	ldr	r3, [pc, #184]	; (10002484 <clock_configure+0xf0>)
100023ca:	469c      	mov	ip, r3
100023cc:	4464      	add	r4, ip
100023ce:	6863      	ldr	r3, [r4, #4]
100023d0:	4283      	cmp	r3, r0
100023d2:	d200      	bcs.n	100023d6 <clock_configure+0x42>
100023d4:	6060      	str	r0, [r4, #4]
100023d6:	1f2b      	subs	r3, r5, #4
100023d8:	b2db      	uxtb	r3, r3
100023da:	469b      	mov	fp, r3
100023dc:	2b01      	cmp	r3, #1
100023de:	d93b      	bls.n	10002458 <clock_configure+0xc4>
100023e0:	23c0      	movs	r3, #192	; 0xc0
100023e2:	019b      	lsls	r3, r3, #6
100023e4:	4323      	orrs	r3, r4
100023e6:	2280      	movs	r2, #128	; 0x80
100023e8:	0112      	lsls	r2, r2, #4
100023ea:	601a      	str	r2, [r3, #0]
100023ec:	00ab      	lsls	r3, r5, #2
100023ee:	4a26      	ldr	r2, [pc, #152]	; (10002488 <clock_configure+0xf4>)
100023f0:	5899      	ldr	r1, [r3, r2]
100023f2:	2900      	cmp	r1, #0
100023f4:	d005      	beq.n	10002402 <clock_configure+0x6e>
100023f6:	6950      	ldr	r0, [r2, #20]
100023f8:	f001 fc86 	bl	10003d08 <__wrap___aeabi_uidiv>
100023fc:	3001      	adds	r0, #1
100023fe:	3801      	subs	r0, #1
10002400:	d1fd      	bne.n	100023fe <clock_configure+0x6a>
10002402:	4653      	mov	r3, sl
10002404:	015a      	lsls	r2, r3, #5
10002406:	6823      	ldr	r3, [r4, #0]
10002408:	405a      	eors	r2, r3
1000240a:	23e0      	movs	r3, #224	; 0xe0
1000240c:	401a      	ands	r2, r3
1000240e:	2380      	movs	r3, #128	; 0x80
10002410:	015b      	lsls	r3, r3, #5
10002412:	4323      	orrs	r3, r4
10002414:	601a      	str	r2, [r3, #0]
10002416:	465a      	mov	r2, fp
10002418:	2a01      	cmp	r2, #1
1000241a:	d928      	bls.n	1000246e <clock_configure+0xda>
1000241c:	2380      	movs	r3, #128	; 0x80
1000241e:	019b      	lsls	r3, r3, #6
10002420:	4323      	orrs	r3, r4
10002422:	2280      	movs	r2, #128	; 0x80
10002424:	0112      	lsls	r2, r2, #4
10002426:	601a      	str	r2, [r3, #0]
10002428:	4643      	mov	r3, r8
1000242a:	6063      	str	r3, [r4, #4]
1000242c:	4642      	mov	r2, r8
1000242e:	2300      	movs	r3, #0
10002430:	0030      	movs	r0, r6
10002432:	4649      	mov	r1, r9
10002434:	f001 fcaa 	bl	10003d8c <__wrap___aeabi_uldivmod>
10002438:	00ad      	lsls	r5, r5, #2
1000243a:	4b13      	ldr	r3, [pc, #76]	; (10002488 <clock_configure+0xf4>)
1000243c:	5158      	str	r0, [r3, r5]
1000243e:	2001      	movs	r0, #1
10002440:	bc3c      	pop	{r2, r3, r4, r5}
10002442:	4690      	mov	r8, r2
10002444:	4699      	mov	r9, r3
10002446:	46a2      	mov	sl, r4
10002448:	46ab      	mov	fp, r5
1000244a:	bdf8      	pop	{r3, r4, r5, r6, r7, pc}
1000244c:	4b0f      	ldr	r3, [pc, #60]	; (1000248c <clock_configure+0xf8>)
1000244e:	4a10      	ldr	r2, [pc, #64]	; (10002490 <clock_configure+0xfc>)
10002450:	212d      	movs	r1, #45	; 0x2d
10002452:	4810      	ldr	r0, [pc, #64]	; (10002494 <clock_configure+0x100>)
10002454:	f7ff ff68 	bl	10002328 <__assert_func>
10002458:	2f01      	cmp	r7, #1
1000245a:	d1c1      	bne.n	100023e0 <clock_configure+0x4c>
1000245c:	23c0      	movs	r3, #192	; 0xc0
1000245e:	019b      	lsls	r3, r3, #6
10002460:	4323      	orrs	r3, r4
10002462:	2203      	movs	r2, #3
10002464:	601a      	str	r2, [r3, #0]
10002466:	68a3      	ldr	r3, [r4, #8]
10002468:	07db      	lsls	r3, r3, #31
1000246a:	d5fc      	bpl.n	10002466 <clock_configure+0xd2>
1000246c:	e7c9      	b.n	10002402 <clock_configure+0x6e>
1000246e:	6821      	ldr	r1, [r4, #0]
10002470:	4079      	eors	r1, r7
10002472:	2203      	movs	r2, #3
10002474:	400a      	ands	r2, r1
10002476:	601a      	str	r2, [r3, #0]
10002478:	68a3      	ldr	r3, [r4, #8]
1000247a:	2201      	movs	r2, #1
1000247c:	40ba      	lsls	r2, r7
1000247e:	421a      	tst	r2, r3
10002480:	d0fa      	beq.n	10002478 <clock_configure+0xe4>
10002482:	e7cb      	b.n	1000241c <clock_configure+0x88>
10002484:	40008000 	.word	0x40008000
10002488:	20005c9c 	.word	0x20005c9c
1000248c:	10005cf4 	.word	0x10005cf4
10002490:	10005d58 	.word	0x10005d58
10002494:	10005d08 	.word	0x10005d08

10002498 <clocks_init>:
10002498:	b530      	push	{r4, r5, lr}
1000249a:	b083      	sub	sp, #12
1000249c:	200c      	movs	r0, #12
1000249e:	f000 fb1f 	bl	10002ae0 <watchdog_start_tick>
100024a2:	f7fe fddb 	bl	1000105c <running_on_fpga>
100024a6:	2800      	cmp	r0, #0
100024a8:	d00d      	beq.n	100024c6 <clocks_init+0x2e>
100024aa:	2300      	movs	r3, #0
100024ac:	2b09      	cmp	r3, #9
100024ae:	d805      	bhi.n	100024bc <clocks_init+0x24>
100024b0:	0099      	lsls	r1, r3, #2
100024b2:	4a2d      	ldr	r2, [pc, #180]	; (10002568 <clocks_init+0xd0>)
100024b4:	482d      	ldr	r0, [pc, #180]	; (1000256c <clocks_init+0xd4>)
100024b6:	5088      	str	r0, [r1, r2]
100024b8:	3301      	adds	r3, #1
100024ba:	e7f7      	b.n	100024ac <clocks_init+0x14>
100024bc:	4b2a      	ldr	r3, [pc, #168]	; (10002568 <clocks_init+0xd0>)
100024be:	4a2c      	ldr	r2, [pc, #176]	; (10002570 <clocks_init+0xd8>)
100024c0:	625a      	str	r2, [r3, #36]	; 0x24
100024c2:	b003      	add	sp, #12
100024c4:	bd30      	pop	{r4, r5, pc}
100024c6:	4b2b      	ldr	r3, [pc, #172]	; (10002574 <clocks_init+0xdc>)
100024c8:	2200      	movs	r2, #0
100024ca:	679a      	str	r2, [r3, #120]	; 0x78
100024cc:	f000 fb10 	bl	10002af0 <xosc_init>
100024d0:	4b29      	ldr	r3, [pc, #164]	; (10002578 <clocks_init+0xe0>)
100024d2:	2201      	movs	r2, #1
100024d4:	601a      	str	r2, [r3, #0]
100024d6:	4b27      	ldr	r3, [pc, #156]	; (10002574 <clocks_init+0xdc>)
100024d8:	6c5b      	ldr	r3, [r3, #68]	; 0x44
100024da:	2b01      	cmp	r3, #1
100024dc:	d1fb      	bne.n	100024d6 <clocks_init+0x3e>
100024de:	4b27      	ldr	r3, [pc, #156]	; (1000257c <clocks_init+0xe4>)
100024e0:	2203      	movs	r2, #3
100024e2:	601a      	str	r2, [r3, #0]
100024e4:	4b23      	ldr	r3, [pc, #140]	; (10002574 <clocks_init+0xdc>)
100024e6:	6b9b      	ldr	r3, [r3, #56]	; 0x38
100024e8:	2b01      	cmp	r3, #1
100024ea:	d1fb      	bne.n	100024e4 <clocks_init+0x4c>
100024ec:	2402      	movs	r4, #2
100024ee:	9400      	str	r4, [sp, #0]
100024f0:	3305      	adds	r3, #5
100024f2:	4a23      	ldr	r2, [pc, #140]	; (10002580 <clocks_init+0xe8>)
100024f4:	2101      	movs	r1, #1
100024f6:	4823      	ldr	r0, [pc, #140]	; (10002584 <clocks_init+0xec>)
100024f8:	f000 fa66 	bl	100029c8 <pll_init>
100024fc:	9400      	str	r4, [sp, #0]
100024fe:	2305      	movs	r3, #5
10002500:	4a21      	ldr	r2, [pc, #132]	; (10002588 <clocks_init+0xf0>)
10002502:	2101      	movs	r1, #1
10002504:	4821      	ldr	r0, [pc, #132]	; (1000258c <clocks_init+0xf4>)
10002506:	f000 fa5f 	bl	100029c8 <pll_init>
1000250a:	4b21      	ldr	r3, [pc, #132]	; (10002590 <clocks_init+0xf8>)
1000250c:	9300      	str	r3, [sp, #0]
1000250e:	2200      	movs	r2, #0
10002510:	2102      	movs	r1, #2
10002512:	2004      	movs	r0, #4
10002514:	f7ff ff3e 	bl	10002394 <clock_configure>
10002518:	4d1e      	ldr	r5, [pc, #120]	; (10002594 <clocks_init+0xfc>)
1000251a:	9500      	str	r5, [sp, #0]
1000251c:	002b      	movs	r3, r5
1000251e:	2200      	movs	r2, #0
10002520:	2101      	movs	r1, #1
10002522:	2005      	movs	r0, #5
10002524:	f7ff ff36 	bl	10002394 <clock_configure>
10002528:	4c10      	ldr	r4, [pc, #64]	; (1000256c <clocks_init+0xd4>)
1000252a:	9400      	str	r4, [sp, #0]
1000252c:	0023      	movs	r3, r4
1000252e:	2200      	movs	r2, #0
10002530:	2100      	movs	r1, #0
10002532:	2007      	movs	r0, #7
10002534:	f7ff ff2e 	bl	10002394 <clock_configure>
10002538:	9400      	str	r4, [sp, #0]
1000253a:	0023      	movs	r3, r4
1000253c:	2200      	movs	r2, #0
1000253e:	2100      	movs	r1, #0
10002540:	2008      	movs	r0, #8
10002542:	f7ff ff27 	bl	10002394 <clock_configure>
10002546:	4b0a      	ldr	r3, [pc, #40]	; (10002570 <clocks_init+0xd8>)
10002548:	9300      	str	r3, [sp, #0]
1000254a:	0023      	movs	r3, r4
1000254c:	2200      	movs	r2, #0
1000254e:	2100      	movs	r1, #0
10002550:	2009      	movs	r0, #9
10002552:	f7ff ff1f 	bl	10002394 <clock_configure>
10002556:	9500      	str	r5, [sp, #0]
10002558:	002b      	movs	r3, r5
1000255a:	2200      	movs	r2, #0
1000255c:	2100      	movs	r1, #0
1000255e:	2006      	movs	r0, #6
10002560:	f7ff ff18 	bl	10002394 <clock_configure>
10002564:	e7ad      	b.n	100024c2 <clocks_init+0x2a>
10002566:	46c0      	nop			; (mov r8, r8)
10002568:	20005c9c 	.word	0x20005c9c
1000256c:	02dc6c00 	.word	0x02dc6c00
10002570:	0000b71b 	.word	0x0000b71b
10002574:	40008000 	.word	0x40008000
10002578:	4000b03c 	.word	0x4000b03c
1000257c:	4000b030 	.word	0x4000b030
10002580:	59682f00 	.word	0x59682f00
10002584:	40028000 	.word	0x40028000
10002588:	1c9c3800 	.word	0x1c9c3800
1000258c:	4002c000 	.word	0x4002c000
10002590:	00b71b00 	.word	0x00b71b00
10002594:	07735940 	.word	0x07735940

10002598 <clock_get_hz>:
10002598:	0080      	lsls	r0, r0, #2
1000259a:	4b01      	ldr	r3, [pc, #4]	; (100025a0 <clock_get_hz+0x8>)
1000259c:	58c0      	ldr	r0, [r0, r3]
1000259e:	4770      	bx	lr
100025a0:	20005c9c 	.word	0x20005c9c

100025a4 <set_raw_irq_handler_and_unlock>:
100025a4:	4b07      	ldr	r3, [pc, #28]	; (100025c4 <set_raw_irq_handler_and_unlock+0x20>)
100025a6:	689b      	ldr	r3, [r3, #8]
100025a8:	3010      	adds	r0, #16
100025aa:	0080      	lsls	r0, r0, #2
100025ac:	5019      	str	r1, [r3, r0]
100025ae:	f3bf 8f5f 	dmb	sy
100025b2:	f3bf 8f5f 	dmb	sy
100025b6:	4b04      	ldr	r3, [pc, #16]	; (100025c8 <set_raw_irq_handler_and_unlock+0x24>)
100025b8:	2100      	movs	r1, #0
100025ba:	6019      	str	r1, [r3, #0]
100025bc:	f382 8810 	msr	PRIMASK, r2
100025c0:	4770      	bx	lr
100025c2:	46c0      	nop			; (mov r8, r8)
100025c4:	e000ed00 	.word	0xe000ed00
100025c8:	d0000124 	.word	0xd0000124

100025cc <make_branch>:
100025cc:	b510      	push	{r4, lr}
100025ce:	1a09      	subs	r1, r1, r0
100025d0:	3904      	subs	r1, #4
100025d2:	0848      	lsrs	r0, r1, #1
100025d4:	0b09      	lsrs	r1, r1, #12
100025d6:	d105      	bne.n	100025e4 <make_branch+0x18>
100025d8:	0540      	lsls	r0, r0, #21
100025da:	0d40      	lsrs	r0, r0, #21
100025dc:	4b04      	ldr	r3, [pc, #16]	; (100025f0 <make_branch+0x24>)
100025de:	4318      	orrs	r0, r3
100025e0:	b280      	uxth	r0, r0
100025e2:	bd10      	pop	{r4, pc}
100025e4:	4b03      	ldr	r3, [pc, #12]	; (100025f4 <make_branch+0x28>)
100025e6:	4a04      	ldr	r2, [pc, #16]	; (100025f8 <make_branch+0x2c>)
100025e8:	218c      	movs	r1, #140	; 0x8c
100025ea:	4804      	ldr	r0, [pc, #16]	; (100025fc <make_branch+0x30>)
100025ec:	f7ff fe9c 	bl	10002328 <__assert_func>
100025f0:	ffffe000 	.word	0xffffe000
100025f4:	10005d68 	.word	0x10005d68
100025f8:	10005f50 	.word	0x10005f50
100025fc:	10005d78 	.word	0x10005d78

10002600 <insert_branch_and_link>:
10002600:	b510      	push	{r4, lr}
10002602:	1a09      	subs	r1, r1, r0
10002604:	3904      	subs	r1, #4
10002606:	084c      	lsrs	r4, r1, #1
10002608:	0b09      	lsrs	r1, r1, #12
1000260a:	d108      	bne.n	1000261e <insert_branch_and_link+0x1e>
1000260c:	0549      	lsls	r1, r1, #21
1000260e:	0d49      	lsrs	r1, r1, #21
10002610:	4a06      	ldr	r2, [pc, #24]	; (1000262c <insert_branch_and_link+0x2c>)
10002612:	4311      	orrs	r1, r2
10002614:	8001      	strh	r1, [r0, #0]
10002616:	4b06      	ldr	r3, [pc, #24]	; (10002630 <insert_branch_and_link+0x30>)
10002618:	4323      	orrs	r3, r4
1000261a:	8043      	strh	r3, [r0, #2]
1000261c:	bd10      	pop	{r4, pc}
1000261e:	4b05      	ldr	r3, [pc, #20]	; (10002634 <insert_branch_and_link+0x34>)
10002620:	4a05      	ldr	r2, [pc, #20]	; (10002638 <insert_branch_and_link+0x38>)
10002622:	2194      	movs	r1, #148	; 0x94
10002624:	4805      	ldr	r0, [pc, #20]	; (1000263c <insert_branch_and_link+0x3c>)
10002626:	f7ff fe7f 	bl	10002328 <__assert_func>
1000262a:	46c0      	nop			; (mov r8, r8)
1000262c:	fffff000 	.word	0xfffff000
10002630:	fffff800 	.word	0xfffff800
10002634:	10005d68 	.word	0x10005d68
10002638:	10005f5c 	.word	0x10005f5c
1000263c:	10005d78 	.word	0x10005d78

10002640 <irq_is_enabled>:
10002640:	2301      	movs	r3, #1
10002642:	4083      	lsls	r3, r0
10002644:	4a03      	ldr	r2, [pc, #12]	; (10002654 <irq_is_enabled+0x14>)
10002646:	6810      	ldr	r0, [r2, #0]
10002648:	4018      	ands	r0, r3
1000264a:	1e43      	subs	r3, r0, #1
1000264c:	4198      	sbcs	r0, r3
1000264e:	b2c0      	uxtb	r0, r0
10002650:	4770      	bx	lr
10002652:	46c0      	nop			; (mov r8, r8)
10002654:	e000e100 	.word	0xe000e100

10002658 <irq_set_mask_enabled>:
10002658:	2900      	cmp	r1, #0
1000265a:	d004      	beq.n	10002666 <irq_set_mask_enabled+0xe>
1000265c:	4b03      	ldr	r3, [pc, #12]	; (1000266c <irq_set_mask_enabled+0x14>)
1000265e:	6018      	str	r0, [r3, #0]
10002660:	4b03      	ldr	r3, [pc, #12]	; (10002670 <irq_set_mask_enabled+0x18>)
10002662:	6018      	str	r0, [r3, #0]
10002664:	4770      	bx	lr
10002666:	4b03      	ldr	r3, [pc, #12]	; (10002674 <irq_set_mask_enabled+0x1c>)
10002668:	6018      	str	r0, [r3, #0]
1000266a:	e7fb      	b.n	10002664 <irq_set_mask_enabled+0xc>
1000266c:	e000e280 	.word	0xe000e280
10002670:	e000e100 	.word	0xe000e100
10002674:	e000e180 	.word	0xe000e180

10002678 <irq_set_enabled>:
10002678:	b510      	push	{r4, lr}
1000267a:	2301      	movs	r3, #1
1000267c:	4083      	lsls	r3, r0
1000267e:	0018      	movs	r0, r3
10002680:	f7ff ffea 	bl	10002658 <irq_set_mask_enabled>
10002684:	bd10      	pop	{r4, pc}
	...

10002688 <irq_get_vtable_handler>:
10002688:	4b02      	ldr	r3, [pc, #8]	; (10002694 <irq_get_vtable_handler+0xc>)
1000268a:	689b      	ldr	r3, [r3, #8]
1000268c:	3010      	adds	r0, #16
1000268e:	0080      	lsls	r0, r0, #2
10002690:	58c0      	ldr	r0, [r0, r3]
10002692:	4770      	bx	lr
10002694:	e000ed00 	.word	0xe000ed00

10002698 <irq_set_exclusive_handler>:
10002698:	b570      	push	{r4, r5, r6, lr}
1000269a:	0004      	movs	r4, r0
1000269c:	000d      	movs	r5, r1
1000269e:	f3ef 8610 	mrs	r6, PRIMASK
100026a2:	b672      	cpsid	i
100026a4:	4b0c      	ldr	r3, [pc, #48]	; (100026d8 <irq_set_exclusive_handler+0x40>)
100026a6:	681b      	ldr	r3, [r3, #0]
100026a8:	2b00      	cmp	r3, #0
100026aa:	d0fb      	beq.n	100026a4 <irq_set_exclusive_handler+0xc>
100026ac:	f3bf 8f5f 	dmb	sy
100026b0:	0020      	movs	r0, r4
100026b2:	f7ff ffe9 	bl	10002688 <irq_get_vtable_handler>
100026b6:	4b09      	ldr	r3, [pc, #36]	; (100026dc <irq_set_exclusive_handler+0x44>)
100026b8:	4298      	cmp	r0, r3
100026ba:	d001      	beq.n	100026c0 <irq_set_exclusive_handler+0x28>
100026bc:	42a8      	cmp	r0, r5
100026be:	d105      	bne.n	100026cc <irq_set_exclusive_handler+0x34>
100026c0:	0032      	movs	r2, r6
100026c2:	0029      	movs	r1, r5
100026c4:	0020      	movs	r0, r4
100026c6:	f7ff ff6d 	bl	100025a4 <set_raw_irq_handler_and_unlock>
100026ca:	bd70      	pop	{r4, r5, r6, pc}
100026cc:	4b04      	ldr	r3, [pc, #16]	; (100026e0 <irq_set_exclusive_handler+0x48>)
100026ce:	4a05      	ldr	r2, [pc, #20]	; (100026e4 <irq_set_exclusive_handler+0x4c>)
100026d0:	2170      	movs	r1, #112	; 0x70
100026d2:	4805      	ldr	r0, [pc, #20]	; (100026e8 <irq_set_exclusive_handler+0x50>)
100026d4:	f7ff fe28 	bl	10002328 <__assert_func>
100026d8:	d0000124 	.word	0xd0000124
100026dc:	100001cd 	.word	0x100001cd
100026e0:	10005dc0 	.word	0x10005dc0
100026e4:	10005f34 	.word	0x10005f34
100026e8:	10005d78 	.word	0x10005d78

100026ec <irq_remove_handler>:
100026ec:	b5f0      	push	{r4, r5, r6, r7, lr}
100026ee:	46ce      	mov	lr, r9
100026f0:	4647      	mov	r7, r8
100026f2:	b580      	push	{r7, lr}
100026f4:	b083      	sub	sp, #12
100026f6:	0006      	movs	r6, r0
100026f8:	000d      	movs	r5, r1
100026fa:	f3ef 8810 	mrs	r8, PRIMASK
100026fe:	b672      	cpsid	i
10002700:	4b57      	ldr	r3, [pc, #348]	; (10002860 <irq_remove_handler+0x174>)
10002702:	681b      	ldr	r3, [r3, #0]
10002704:	2b00      	cmp	r3, #0
10002706:	d0fb      	beq.n	10002700 <irq_remove_handler+0x14>
10002708:	f3bf 8f5f 	dmb	sy
1000270c:	4b55      	ldr	r3, [pc, #340]	; (10002864 <irq_remove_handler+0x178>)
1000270e:	689a      	ldr	r2, [r3, #8]
10002710:	0034      	movs	r4, r6
10002712:	3410      	adds	r4, #16
10002714:	00a3      	lsls	r3, r4, #2
10002716:	58d7      	ldr	r7, [r2, r3]
10002718:	4b53      	ldr	r3, [pc, #332]	; (10002868 <irq_remove_handler+0x17c>)
1000271a:	429f      	cmp	r7, r3
1000271c:	d007      	beq.n	1000272e <irq_remove_handler+0x42>
1000271e:	42af      	cmp	r7, r5
10002720:	d100      	bne.n	10002724 <irq_remove_handler+0x38>
10002722:	e09b      	b.n	1000285c <irq_remove_handler+0x170>
10002724:	9701      	str	r7, [sp, #4]
10002726:	4b51      	ldr	r3, [pc, #324]	; (1000286c <irq_remove_handler+0x180>)
10002728:	1afb      	subs	r3, r7, r3
1000272a:	2b2f      	cmp	r3, #47	; 0x2f
1000272c:	d909      	bls.n	10002742 <irq_remove_handler+0x56>
1000272e:	4642      	mov	r2, r8
10002730:	0039      	movs	r1, r7
10002732:	0030      	movs	r0, r6
10002734:	f7ff ff36 	bl	100025a4 <set_raw_irq_handler_and_unlock>
10002738:	b003      	add	sp, #12
1000273a:	bc0c      	pop	{r2, r3}
1000273c:	4690      	mov	r8, r2
1000273e:	4699      	mov	r9, r3
10002740:	bdf0      	pop	{r4, r5, r6, r7, pc}
10002742:	0030      	movs	r0, r6
10002744:	f7ff ff7c 	bl	10002640 <irq_is_enabled>
10002748:	4681      	mov	r9, r0
1000274a:	2100      	movs	r1, #0
1000274c:	0030      	movs	r0, r6
1000274e:	f7ff ff93 	bl	10002678 <irq_set_enabled>
10002752:	f3bf 8f5f 	dmb	sy
10002756:	f7fd fd86 	bl	10000266 <__get_current_exception>
1000275a:	2800      	cmp	r0, #0
1000275c:	d001      	beq.n	10002762 <irq_remove_handler+0x76>
1000275e:	4284      	cmp	r4, r0
10002760:	d119      	bne.n	10002796 <irq_remove_handler+0xaa>
10002762:	2301      	movs	r3, #1
10002764:	9c01      	ldr	r4, [sp, #4]
10002766:	439c      	bics	r4, r3
10002768:	0023      	movs	r3, r4
1000276a:	4940      	ldr	r1, [pc, #256]	; (1000286c <irq_remove_handler+0x180>)
1000276c:	1a5b      	subs	r3, r3, r1
1000276e:	415b      	adcs	r3, r3
10002770:	4948      	ldr	r1, [pc, #288]	; (10002894 <irq_remove_handler+0x1a8>)
10002772:	4359      	muls	r1, r3
10002774:	0d09      	lsrs	r1, r1, #20
10002776:	b249      	sxtb	r1, r1
10002778:	2200      	movs	r2, #0
1000277a:	68a3      	ldr	r3, [r4, #8]
1000277c:	42ab      	cmp	r3, r5
1000277e:	d012      	beq.n	100027a6 <irq_remove_handler+0xba>
10002780:	2206      	movs	r2, #6
10002782:	56a2      	ldrsb	r2, [r4, r2]
10002784:	2a00      	cmp	r2, #0
10002786:	db0d      	blt.n	100027a4 <irq_remove_handler+0xb8>
10002788:	0053      	lsls	r3, r2, #1
1000278a:	189b      	adds	r3, r3, r2
1000278c:	009b      	lsls	r3, r3, #2
1000278e:	0022      	movs	r2, r4
10002790:	4c36      	ldr	r4, [pc, #216]	; (1000286c <irq_remove_handler+0x180>)
10002792:	18e4      	adds	r4, r4, r3
10002794:	e7f1      	b.n	1000277a <irq_remove_handler+0x8e>
10002796:	2120      	movs	r1, #32
10002798:	4b35      	ldr	r3, [pc, #212]	; (10002870 <irq_remove_handler+0x184>)
1000279a:	4a36      	ldr	r2, [pc, #216]	; (10002874 <irq_remove_handler+0x188>)
1000279c:	31ff      	adds	r1, #255	; 0xff
1000279e:	4836      	ldr	r0, [pc, #216]	; (10002878 <irq_remove_handler+0x18c>)
100027a0:	f7ff fdc2 	bl	10002328 <__assert_func>
100027a4:	0022      	movs	r2, r4
100027a6:	42ab      	cmp	r3, r5
100027a8:	d151      	bne.n	1000284e <irq_remove_handler+0x162>
100027aa:	2506      	movs	r5, #6
100027ac:	5765      	ldrsb	r5, [r4, r5]
100027ae:	2d00      	cmp	r5, #0
100027b0:	db39      	blt.n	10002826 <irq_remove_handler+0x13a>
100027b2:	006b      	lsls	r3, r5, #1
100027b4:	195b      	adds	r3, r3, r5
100027b6:	009a      	lsls	r2, r3, #2
100027b8:	4b2c      	ldr	r3, [pc, #176]	; (1000286c <irq_remove_handler+0x180>)
100027ba:	189b      	adds	r3, r3, r2
100027bc:	689a      	ldr	r2, [r3, #8]
100027be:	60a2      	str	r2, [r4, #8]
100027c0:	79da      	ldrb	r2, [r3, #7]
100027c2:	71e2      	strb	r2, [r4, #7]
100027c4:	2206      	movs	r2, #6
100027c6:	569a      	ldrsb	r2, [r3, r2]
100027c8:	71a2      	strb	r2, [r4, #6]
100027ca:	799b      	ldrb	r3, [r3, #6]
100027cc:	b25b      	sxtb	r3, r3
100027ce:	2b00      	cmp	r3, #0
100027d0:	da10      	bge.n	100027f4 <irq_remove_handler+0x108>
100027d2:	20bd      	movs	r0, #189	; 0xbd
100027d4:	0200      	lsls	r0, r0, #8
100027d6:	80a0      	strh	r0, [r4, #4]
100027d8:	006b      	lsls	r3, r5, #1
100027da:	195b      	adds	r3, r3, r5
100027dc:	009b      	lsls	r3, r3, #2
100027de:	4a23      	ldr	r2, [pc, #140]	; (1000286c <irq_remove_handler+0x180>)
100027e0:	18d3      	adds	r3, r2, r3
100027e2:	4a26      	ldr	r2, [pc, #152]	; (1000287c <irq_remove_handler+0x190>)
100027e4:	7811      	ldrb	r1, [r2, #0]
100027e6:	7199      	strb	r1, [r3, #6]
100027e8:	7015      	strb	r5, [r2, #0]
100027ea:	4649      	mov	r1, r9
100027ec:	0030      	movs	r0, r6
100027ee:	f7ff ff43 	bl	10002678 <irq_set_enabled>
100027f2:	e79c      	b.n	1000272e <irq_remove_handler+0x42>
100027f4:	1d20      	adds	r0, r4, #4
100027f6:	006b      	lsls	r3, r5, #1
100027f8:	195b      	adds	r3, r3, r5
100027fa:	009b      	lsls	r3, r3, #2
100027fc:	4a1b      	ldr	r2, [pc, #108]	; (1000286c <irq_remove_handler+0x180>)
100027fe:	189b      	adds	r3, r3, r2
10002800:	1d1a      	adds	r2, r3, #4
10002802:	889b      	ldrh	r3, [r3, #4]
10002804:	0ad9      	lsrs	r1, r3, #11
10002806:	291c      	cmp	r1, #28
10002808:	d107      	bne.n	1000281a <irq_remove_handler+0x12e>
1000280a:	0559      	lsls	r1, r3, #21
1000280c:	1549      	asrs	r1, r1, #21
1000280e:	3102      	adds	r1, #2
10002810:	0049      	lsls	r1, r1, #1
10002812:	1851      	adds	r1, r2, r1
10002814:	f7ff feda 	bl	100025cc <make_branch>
10002818:	e7dd      	b.n	100027d6 <irq_remove_handler+0xea>
1000281a:	4b19      	ldr	r3, [pc, #100]	; (10002880 <irq_remove_handler+0x194>)
1000281c:	4a19      	ldr	r2, [pc, #100]	; (10002884 <irq_remove_handler+0x198>)
1000281e:	219a      	movs	r1, #154	; 0x9a
10002820:	4815      	ldr	r0, [pc, #84]	; (10002878 <irq_remove_handler+0x18c>)
10002822:	f7ff fd81 	bl	10002328 <__assert_func>
10002826:	2800      	cmp	r0, #0
10002828:	d10c      	bne.n	10002844 <irq_remove_handler+0x158>
1000282a:	2a00      	cmp	r2, #0
1000282c:	d008      	beq.n	10002840 <irq_remove_handler+0x154>
1000282e:	23ff      	movs	r3, #255	; 0xff
10002830:	7193      	strb	r3, [r2, #6]
10002832:	4b15      	ldr	r3, [pc, #84]	; (10002888 <irq_remove_handler+0x19c>)
10002834:	8093      	strh	r3, [r2, #4]
10002836:	4b11      	ldr	r3, [pc, #68]	; (1000287c <irq_remove_handler+0x190>)
10002838:	781a      	ldrb	r2, [r3, #0]
1000283a:	71a2      	strb	r2, [r4, #6]
1000283c:	7019      	strb	r1, [r3, #0]
1000283e:	e7d4      	b.n	100027ea <irq_remove_handler+0xfe>
10002840:	4f09      	ldr	r7, [pc, #36]	; (10002868 <irq_remove_handler+0x17c>)
10002842:	e7f8      	b.n	10002836 <irq_remove_handler+0x14a>
10002844:	1d20      	adds	r0, r4, #4
10002846:	4911      	ldr	r1, [pc, #68]	; (1000288c <irq_remove_handler+0x1a0>)
10002848:	f7ff feda 	bl	10002600 <insert_branch_and_link>
1000284c:	e7cd      	b.n	100027ea <irq_remove_handler+0xfe>
1000284e:	21aa      	movs	r1, #170	; 0xaa
10002850:	4b0f      	ldr	r3, [pc, #60]	; (10002890 <irq_remove_handler+0x1a4>)
10002852:	4a08      	ldr	r2, [pc, #32]	; (10002874 <irq_remove_handler+0x188>)
10002854:	0049      	lsls	r1, r1, #1
10002856:	4808      	ldr	r0, [pc, #32]	; (10002878 <irq_remove_handler+0x18c>)
10002858:	f7ff fd66 	bl	10002328 <__assert_func>
1000285c:	4f02      	ldr	r7, [pc, #8]	; (10002868 <irq_remove_handler+0x17c>)
1000285e:	e766      	b.n	1000272e <irq_remove_handler+0x42>
10002860:	d0000124 	.word	0xd0000124
10002864:	e000ed00 	.word	0xe000ed00
10002868:	100001cd 	.word	0x100001cd
1000286c:	20005abc 	.word	0x20005abc
10002870:	10005ed4 	.word	0x10005ed4
10002874:	10005f84 	.word	0x10005f84
10002878:	10005d78 	.word	0x10005d78
1000287c:	20005d4d 	.word	0x20005d4d
10002880:	10005ebc 	.word	0x10005ebc
10002884:	10005f74 	.word	0x10005f74
10002888:	ffffbd00 	.word	0xffffbd00
1000288c:	20005af6 	.word	0x20005af6
10002890:	10005ef8 	.word	0x10005ef8
10002894:	0000aaaa 	.word	0x0000aaaa

10002898 <irq_set_priority>:
10002898:	b510      	push	{r4, lr}
1000289a:	2303      	movs	r3, #3
1000289c:	0004      	movs	r4, r0
1000289e:	439c      	bics	r4, r3
100028a0:	4a06      	ldr	r2, [pc, #24]	; (100028bc <irq_set_priority+0x24>)
100028a2:	4694      	mov	ip, r2
100028a4:	4464      	add	r4, ip
100028a6:	6822      	ldr	r2, [r4, #0]
100028a8:	4018      	ands	r0, r3
100028aa:	00c0      	lsls	r0, r0, #3
100028ac:	33fc      	adds	r3, #252	; 0xfc
100028ae:	4083      	lsls	r3, r0
100028b0:	439a      	bics	r2, r3
100028b2:	0013      	movs	r3, r2
100028b4:	4081      	lsls	r1, r0
100028b6:	430b      	orrs	r3, r1
100028b8:	6023      	str	r3, [r4, #0]
100028ba:	bd10      	pop	{r4, pc}
100028bc:	e000e400 	.word	0xe000e400

100028c0 <irq_add_tail_to_free_list>:
100028c0:	b5f8      	push	{r3, r4, r5, r6, r7, lr}
100028c2:	0004      	movs	r4, r0
100028c4:	2601      	movs	r6, #1
100028c6:	4306      	orrs	r6, r0
100028c8:	4b2d      	ldr	r3, [pc, #180]	; (10002980 <irq_add_tail_to_free_list+0xc0>)
100028ca:	1af3      	subs	r3, r6, r3
100028cc:	2b2f      	cmp	r3, #47	; 0x2f
100028ce:	d828      	bhi.n	10002922 <irq_add_tail_to_free_list+0x62>
100028d0:	f7fd fcc9 	bl	10000266 <__get_current_exception>
100028d4:	2800      	cmp	r0, #0
100028d6:	d02b      	beq.n	10002930 <irq_add_tail_to_free_list+0x70>
100028d8:	f3ef 8710 	mrs	r7, PRIMASK
100028dc:	b672      	cpsid	i
100028de:	4b29      	ldr	r3, [pc, #164]	; (10002984 <irq_add_tail_to_free_list+0xc4>)
100028e0:	681b      	ldr	r3, [r3, #0]
100028e2:	2b00      	cmp	r3, #0
100028e4:	d0fb      	beq.n	100028de <irq_add_tail_to_free_list+0x1e>
100028e6:	f3bf 8f5f 	dmb	sy
100028ea:	0023      	movs	r3, r4
100028ec:	4d24      	ldr	r5, [pc, #144]	; (10002980 <irq_add_tail_to_free_list+0xc0>)
100028ee:	1b5b      	subs	r3, r3, r5
100028f0:	415b      	adcs	r3, r3
100028f2:	4d2e      	ldr	r5, [pc, #184]	; (100029ac <irq_add_tail_to_free_list+0xec>)
100028f4:	435d      	muls	r5, r3
100028f6:	0d2d      	lsrs	r5, r5, #20
100028f8:	b26d      	sxtb	r5, r5
100028fa:	4b23      	ldr	r3, [pc, #140]	; (10002988 <irq_add_tail_to_free_list+0xc8>)
100028fc:	689b      	ldr	r3, [r3, #8]
100028fe:	0080      	lsls	r0, r0, #2
10002900:	581b      	ldr	r3, [r3, r0]
10002902:	42b3      	cmp	r3, r6
10002904:	d01b      	beq.n	1000293e <irq_add_tail_to_free_list+0x7e>
10002906:	2200      	movs	r2, #0
10002908:	2a03      	cmp	r2, #3
1000290a:	d832      	bhi.n	10002972 <irq_add_tail_to_free_list+0xb2>
1000290c:	0053      	lsls	r3, r2, #1
1000290e:	189b      	adds	r3, r3, r2
10002910:	009b      	lsls	r3, r3, #2
10002912:	491b      	ldr	r1, [pc, #108]	; (10002980 <irq_add_tail_to_free_list+0xc0>)
10002914:	18cb      	adds	r3, r1, r3
10002916:	799b      	ldrb	r3, [r3, #6]
10002918:	b25b      	sxtb	r3, r3
1000291a:	42ab      	cmp	r3, r5
1000291c:	d01f      	beq.n	1000295e <irq_add_tail_to_free_list+0x9e>
1000291e:	3201      	adds	r2, #1
10002920:	e7f2      	b.n	10002908 <irq_add_tail_to_free_list+0x48>
10002922:	2172      	movs	r1, #114	; 0x72
10002924:	4b19      	ldr	r3, [pc, #100]	; (1000298c <irq_add_tail_to_free_list+0xcc>)
10002926:	4a1a      	ldr	r2, [pc, #104]	; (10002990 <irq_add_tail_to_free_list+0xd0>)
10002928:	31ff      	adds	r1, #255	; 0xff
1000292a:	481a      	ldr	r0, [pc, #104]	; (10002994 <irq_add_tail_to_free_list+0xd4>)
1000292c:	f7ff fcfc 	bl	10002328 <__assert_func>
10002930:	21ba      	movs	r1, #186	; 0xba
10002932:	4b19      	ldr	r3, [pc, #100]	; (10002998 <irq_add_tail_to_free_list+0xd8>)
10002934:	4a16      	ldr	r2, [pc, #88]	; (10002990 <irq_add_tail_to_free_list+0xd0>)
10002936:	0049      	lsls	r1, r1, #1
10002938:	4816      	ldr	r0, [pc, #88]	; (10002994 <irq_add_tail_to_free_list+0xd4>)
1000293a:	f7ff fcf5 	bl	10002328 <__assert_func>
1000293e:	4b12      	ldr	r3, [pc, #72]	; (10002988 <irq_add_tail_to_free_list+0xc8>)
10002940:	689b      	ldr	r3, [r3, #8]
10002942:	4a16      	ldr	r2, [pc, #88]	; (1000299c <irq_add_tail_to_free_list+0xdc>)
10002944:	501a      	str	r2, [r3, r0]
10002946:	4b16      	ldr	r3, [pc, #88]	; (100029a0 <irq_add_tail_to_free_list+0xe0>)
10002948:	781a      	ldrb	r2, [r3, #0]
1000294a:	71a2      	strb	r2, [r4, #6]
1000294c:	701d      	strb	r5, [r3, #0]
1000294e:	f3bf 8f5f 	dmb	sy
10002952:	4b0c      	ldr	r3, [pc, #48]	; (10002984 <irq_add_tail_to_free_list+0xc4>)
10002954:	2200      	movs	r2, #0
10002956:	601a      	str	r2, [r3, #0]
10002958:	f387 8810 	msr	PRIMASK, r7
1000295c:	bdf8      	pop	{r3, r4, r5, r6, r7, pc}
1000295e:	0008      	movs	r0, r1
10002960:	0053      	lsls	r3, r2, #1
10002962:	1899      	adds	r1, r3, r2
10002964:	0089      	lsls	r1, r1, #2
10002966:	1841      	adds	r1, r0, r1
10002968:	26ff      	movs	r6, #255	; 0xff
1000296a:	718e      	strb	r6, [r1, #6]
1000296c:	4a0d      	ldr	r2, [pc, #52]	; (100029a4 <irq_add_tail_to_free_list+0xe4>)
1000296e:	808a      	strh	r2, [r1, #4]
10002970:	e7e9      	b.n	10002946 <irq_add_tail_to_free_list+0x86>
10002972:	2186      	movs	r1, #134	; 0x86
10002974:	4b0c      	ldr	r3, [pc, #48]	; (100029a8 <irq_add_tail_to_free_list+0xe8>)
10002976:	4a06      	ldr	r2, [pc, #24]	; (10002990 <irq_add_tail_to_free_list+0xd0>)
10002978:	31ff      	adds	r1, #255	; 0xff
1000297a:	4806      	ldr	r0, [pc, #24]	; (10002994 <irq_add_tail_to_free_list+0xd4>)
1000297c:	f7ff fcd4 	bl	10002328 <__assert_func>
10002980:	20005abc 	.word	0x20005abc
10002984:	d0000124 	.word	0xd0000124
10002988:	e000ed00 	.word	0xe000ed00
1000298c:	10005f00 	.word	0x10005f00
10002990:	10005f98 	.word	0x10005f98
10002994:	10005d78 	.word	0x10005d78
10002998:	10005f28 	.word	0x10005f28
1000299c:	100001cd 	.word	0x100001cd
100029a0:	20005d4d 	.word	0x20005d4d
100029a4:	ffffbd00 	.word	0xffffbd00
100029a8:	10005c2c 	.word	0x10005c2c
100029ac:	0000aaaa 	.word	0x0000aaaa

100029b0 <irq_init_priorities>:
100029b0:	b510      	push	{r4, lr}
100029b2:	2400      	movs	r4, #0
100029b4:	2c1f      	cmp	r4, #31
100029b6:	d805      	bhi.n	100029c4 <irq_init_priorities+0x14>
100029b8:	2180      	movs	r1, #128	; 0x80
100029ba:	0020      	movs	r0, r4
100029bc:	f7ff ff6c 	bl	10002898 <irq_set_priority>
100029c0:	3401      	adds	r4, #1
100029c2:	e7f7      	b.n	100029b4 <irq_init_priorities+0x4>
100029c4:	bd10      	pop	{r4, pc}
	...

100029c8 <pll_init>:
100029c8:	b5f0      	push	{r4, r5, r6, r7, lr}
100029ca:	46ce      	mov	lr, r9
100029cc:	b500      	push	{lr}
100029ce:	0004      	movs	r4, r0
100029d0:	000e      	movs	r6, r1
100029d2:	4691      	mov	r9, r2
100029d4:	001f      	movs	r7, r3
100029d6:	200c      	movs	r0, #12
100029d8:	f001 f996 	bl	10003d08 <__wrap___aeabi_uidiv>
100029dc:	0005      	movs	r5, r0
100029de:	0143      	lsls	r3, r0, #5
100029e0:	1a1b      	subs	r3, r3, r0
100029e2:	0199      	lsls	r1, r3, #6
100029e4:	1ac9      	subs	r1, r1, r3
100029e6:	00c9      	lsls	r1, r1, #3
100029e8:	1809      	adds	r1, r1, r0
100029ea:	0189      	lsls	r1, r1, #6
100029ec:	4648      	mov	r0, r9
100029ee:	f001 f98b 	bl	10003d08 <__wrap___aeabi_uidiv>
100029f2:	0002      	movs	r2, r0
100029f4:	3a10      	subs	r2, #16
100029f6:	2398      	movs	r3, #152	; 0x98
100029f8:	005b      	lsls	r3, r3, #1
100029fa:	429a      	cmp	r2, r3
100029fc:	d833      	bhi.n	10002a66 <pll_init+0x9e>
100029fe:	1e7b      	subs	r3, r7, #1
10002a00:	2b06      	cmp	r3, #6
10002a02:	d836      	bhi.n	10002a72 <pll_init+0xaa>
10002a04:	9b06      	ldr	r3, [sp, #24]
10002a06:	3b01      	subs	r3, #1
10002a08:	2b06      	cmp	r3, #6
10002a0a:	d832      	bhi.n	10002a72 <pll_init+0xaa>
10002a0c:	9b06      	ldr	r3, [sp, #24]
10002a0e:	429f      	cmp	r7, r3
10002a10:	d335      	bcc.n	10002a7e <pll_init+0xb6>
10002a12:	464b      	mov	r3, r9
10002a14:	091a      	lsrs	r2, r3, #4
10002a16:	42aa      	cmp	r2, r5
10002a18:	d337      	bcc.n	10002a8a <pll_init+0xc2>
10002a1a:	043f      	lsls	r7, r7, #16
10002a1c:	9b06      	ldr	r3, [sp, #24]
10002a1e:	031d      	lsls	r5, r3, #12
10002a20:	432f      	orrs	r7, r5
10002a22:	6823      	ldr	r3, [r4, #0]
10002a24:	2b00      	cmp	r3, #0
10002a26:	db36      	blt.n	10002a96 <pll_init+0xce>
10002a28:	4b23      	ldr	r3, [pc, #140]	; (10002ab8 <pll_init+0xf0>)
10002a2a:	429c      	cmp	r4, r3
10002a2c:	d041      	beq.n	10002ab2 <pll_init+0xea>
10002a2e:	2580      	movs	r5, #128	; 0x80
10002a30:	016d      	lsls	r5, r5, #5
10002a32:	4b22      	ldr	r3, [pc, #136]	; (10002abc <pll_init+0xf4>)
10002a34:	601d      	str	r5, [r3, #0]
10002a36:	4b22      	ldr	r3, [pc, #136]	; (10002ac0 <pll_init+0xf8>)
10002a38:	601d      	str	r5, [r3, #0]
10002a3a:	4a22      	ldr	r2, [pc, #136]	; (10002ac4 <pll_init+0xfc>)
10002a3c:	6892      	ldr	r2, [r2, #8]
10002a3e:	002b      	movs	r3, r5
10002a40:	4393      	bics	r3, r2
10002a42:	d1fa      	bne.n	10002a3a <pll_init+0x72>
10002a44:	6026      	str	r6, [r4, #0]
10002a46:	60a0      	str	r0, [r4, #8]
10002a48:	1d22      	adds	r2, r4, #4
10002a4a:	23c0      	movs	r3, #192	; 0xc0
10002a4c:	019b      	lsls	r3, r3, #6
10002a4e:	4313      	orrs	r3, r2
10002a50:	2221      	movs	r2, #33	; 0x21
10002a52:	601a      	str	r2, [r3, #0]
10002a54:	6822      	ldr	r2, [r4, #0]
10002a56:	2a00      	cmp	r2, #0
10002a58:	dafc      	bge.n	10002a54 <pll_init+0x8c>
10002a5a:	60e7      	str	r7, [r4, #12]
10002a5c:	2208      	movs	r2, #8
10002a5e:	601a      	str	r2, [r3, #0]
10002a60:	bc04      	pop	{r2}
10002a62:	4691      	mov	r9, r2
10002a64:	bdf0      	pop	{r4, r5, r6, r7, pc}
10002a66:	4b18      	ldr	r3, [pc, #96]	; (10002ac8 <pll_init+0x100>)
10002a68:	4a18      	ldr	r2, [pc, #96]	; (10002acc <pll_init+0x104>)
10002a6a:	2116      	movs	r1, #22
10002a6c:	4818      	ldr	r0, [pc, #96]	; (10002ad0 <pll_init+0x108>)
10002a6e:	f7ff fc5b 	bl	10002328 <__assert_func>
10002a72:	4b18      	ldr	r3, [pc, #96]	; (10002ad4 <pll_init+0x10c>)
10002a74:	4a15      	ldr	r2, [pc, #84]	; (10002acc <pll_init+0x104>)
10002a76:	2119      	movs	r1, #25
10002a78:	4815      	ldr	r0, [pc, #84]	; (10002ad0 <pll_init+0x108>)
10002a7a:	f7ff fc55 	bl	10002328 <__assert_func>
10002a7e:	4b16      	ldr	r3, [pc, #88]	; (10002ad8 <pll_init+0x110>)
10002a80:	4a12      	ldr	r2, [pc, #72]	; (10002acc <pll_init+0x104>)
10002a82:	211f      	movs	r1, #31
10002a84:	4812      	ldr	r0, [pc, #72]	; (10002ad0 <pll_init+0x108>)
10002a86:	f7ff fc4f 	bl	10002328 <__assert_func>
10002a8a:	4b14      	ldr	r3, [pc, #80]	; (10002adc <pll_init+0x114>)
10002a8c:	4a0f      	ldr	r2, [pc, #60]	; (10002acc <pll_init+0x104>)
10002a8e:	2122      	movs	r1, #34	; 0x22
10002a90:	480f      	ldr	r0, [pc, #60]	; (10002ad0 <pll_init+0x108>)
10002a92:	f7ff fc49 	bl	10002328 <__assert_func>
10002a96:	6822      	ldr	r2, [r4, #0]
10002a98:	233f      	movs	r3, #63	; 0x3f
10002a9a:	4013      	ands	r3, r2
10002a9c:	42b3      	cmp	r3, r6
10002a9e:	d1c3      	bne.n	10002a28 <pll_init+0x60>
10002aa0:	68a3      	ldr	r3, [r4, #8]
10002aa2:	051b      	lsls	r3, r3, #20
10002aa4:	0d1b      	lsrs	r3, r3, #20
10002aa6:	4283      	cmp	r3, r0
10002aa8:	d1be      	bne.n	10002a28 <pll_init+0x60>
10002aaa:	68e3      	ldr	r3, [r4, #12]
10002aac:	2f00      	cmp	r7, #0
10002aae:	d1bb      	bne.n	10002a28 <pll_init+0x60>
10002ab0:	e7d6      	b.n	10002a60 <pll_init+0x98>
10002ab2:	2580      	movs	r5, #128	; 0x80
10002ab4:	01ad      	lsls	r5, r5, #6
10002ab6:	e7bc      	b.n	10002a32 <pll_init+0x6a>
10002ab8:	4002c000 	.word	0x4002c000
10002abc:	4000e000 	.word	0x4000e000
10002ac0:	4000f000 	.word	0x4000f000
10002ac4:	4000c000 	.word	0x4000c000
10002ac8:	10005fb4 	.word	0x10005fb4
10002acc:	10006098 	.word	0x10006098
10002ad0:	10005fd0 	.word	0x10005fd0
10002ad4:	10006018 	.word	0x10006018
10002ad8:	10006064 	.word	0x10006064
10002adc:	1000607c 	.word	0x1000607c

10002ae0 <watchdog_start_tick>:
10002ae0:	2380      	movs	r3, #128	; 0x80
10002ae2:	009b      	lsls	r3, r3, #2
10002ae4:	4303      	orrs	r3, r0
10002ae6:	4a01      	ldr	r2, [pc, #4]	; (10002aec <watchdog_start_tick+0xc>)
10002ae8:	62d3      	str	r3, [r2, #44]	; 0x2c
10002aea:	4770      	bx	lr
10002aec:	40058000 	.word	0x40058000

10002af0 <xosc_init>:
10002af0:	4b06      	ldr	r3, [pc, #24]	; (10002b0c <xosc_init+0x1c>)
10002af2:	22aa      	movs	r2, #170	; 0xaa
10002af4:	0112      	lsls	r2, r2, #4
10002af6:	601a      	str	r2, [r3, #0]
10002af8:	222f      	movs	r2, #47	; 0x2f
10002afa:	60da      	str	r2, [r3, #12]
10002afc:	4b04      	ldr	r3, [pc, #16]	; (10002b10 <xosc_init+0x20>)
10002afe:	4a05      	ldr	r2, [pc, #20]	; (10002b14 <xosc_init+0x24>)
10002b00:	601a      	str	r2, [r3, #0]
10002b02:	4b02      	ldr	r3, [pc, #8]	; (10002b0c <xosc_init+0x1c>)
10002b04:	685b      	ldr	r3, [r3, #4]
10002b06:	2b00      	cmp	r3, #0
10002b08:	dafb      	bge.n	10002b02 <xosc_init+0x12>
10002b0a:	4770      	bx	lr
10002b0c:	40024000 	.word	0x40024000
10002b10:	40026000 	.word	0x40026000
10002b14:	00fab000 	.word	0x00fab000

10002b18 <_out_null>:
10002b18:	4770      	bx	lr

10002b1a <_out_fct>:
10002b1a:	b510      	push	{r4, lr}
10002b1c:	2800      	cmp	r0, #0
10002b1e:	d002      	beq.n	10002b26 <_out_fct+0xc>
10002b20:	680b      	ldr	r3, [r1, #0]
10002b22:	6849      	ldr	r1, [r1, #4]
10002b24:	4798      	blx	r3
10002b26:	bd10      	pop	{r4, pc}

10002b28 <_atoi>:
10002b28:	0001      	movs	r1, r0
10002b2a:	2000      	movs	r0, #0
10002b2c:	680a      	ldr	r2, [r1, #0]
10002b2e:	7813      	ldrb	r3, [r2, #0]
10002b30:	3b30      	subs	r3, #48	; 0x30
10002b32:	b2db      	uxtb	r3, r3
10002b34:	2b09      	cmp	r3, #9
10002b36:	d808      	bhi.n	10002b4a <_atoi+0x22>
10002b38:	0083      	lsls	r3, r0, #2
10002b3a:	181b      	adds	r3, r3, r0
10002b3c:	005b      	lsls	r3, r3, #1
10002b3e:	1c50      	adds	r0, r2, #1
10002b40:	6008      	str	r0, [r1, #0]
10002b42:	7810      	ldrb	r0, [r2, #0]
10002b44:	18c0      	adds	r0, r0, r3
10002b46:	3830      	subs	r0, #48	; 0x30
10002b48:	e7f0      	b.n	10002b2c <_atoi+0x4>
10002b4a:	4770      	bx	lr

10002b4c <_out_rev>:
10002b4c:	b5f0      	push	{r4, r5, r6, r7, lr}
10002b4e:	46de      	mov	lr, fp
10002b50:	4657      	mov	r7, sl
10002b52:	464e      	mov	r6, r9
10002b54:	4645      	mov	r5, r8
10002b56:	b5e0      	push	{r5, r6, r7, lr}
10002b58:	b083      	sub	sp, #12
10002b5a:	4693      	mov	fp, r2
10002b5c:	001f      	movs	r7, r3
10002b5e:	9b0c      	ldr	r3, [sp, #48]	; 0x30
10002b60:	469a      	mov	sl, r3
10002b62:	9c0d      	ldr	r4, [sp, #52]	; 0x34
10002b64:	9b0e      	ldr	r3, [sp, #56]	; 0x38
10002b66:	4699      	mov	r9, r3
10002b68:	9b0f      	ldr	r3, [sp, #60]	; 0x3c
10002b6a:	079b      	lsls	r3, r3, #30
10002b6c:	d003      	beq.n	10002b76 <_out_rev+0x2a>
10002b6e:	46b8      	mov	r8, r7
10002b70:	000f      	movs	r7, r1
10002b72:	0006      	movs	r6, r0
10002b74:	e022      	b.n	10002bbc <_out_rev+0x70>
10002b76:	9201      	str	r2, [sp, #4]
10002b78:	46a3      	mov	fp, r4
10002b7a:	4688      	mov	r8, r1
10002b7c:	464e      	mov	r6, r9
10002b7e:	46b9      	mov	r9, r7
10002b80:	0007      	movs	r7, r0
10002b82:	42b4      	cmp	r4, r6
10002b84:	d207      	bcs.n	10002b96 <_out_rev+0x4a>
10002b86:	1c55      	adds	r5, r2, #1
10002b88:	464b      	mov	r3, r9
10002b8a:	4641      	mov	r1, r8
10002b8c:	2020      	movs	r0, #32
10002b8e:	47b8      	blx	r7
10002b90:	3401      	adds	r4, #1
10002b92:	002a      	movs	r2, r5
10002b94:	e7f5      	b.n	10002b82 <_out_rev+0x36>
10002b96:	003d      	movs	r5, r7
10002b98:	464f      	mov	r7, r9
10002b9a:	465c      	mov	r4, fp
10002b9c:	9b01      	ldr	r3, [sp, #4]
10002b9e:	469b      	mov	fp, r3
10002ba0:	46b1      	mov	r9, r6
10002ba2:	4646      	mov	r6, r8
10002ba4:	46b8      	mov	r8, r7
10002ba6:	0037      	movs	r7, r6
10002ba8:	002e      	movs	r6, r5
10002baa:	e007      	b.n	10002bbc <_out_rev+0x70>
10002bac:	3c01      	subs	r4, #1
10002bae:	1c55      	adds	r5, r2, #1
10002bb0:	4653      	mov	r3, sl
10002bb2:	5d18      	ldrb	r0, [r3, r4]
10002bb4:	4643      	mov	r3, r8
10002bb6:	0039      	movs	r1, r7
10002bb8:	47b0      	blx	r6
10002bba:	002a      	movs	r2, r5
10002bbc:	2c00      	cmp	r4, #0
10002bbe:	d1f5      	bne.n	10002bac <_out_rev+0x60>
10002bc0:	0035      	movs	r5, r6
10002bc2:	003e      	movs	r6, r7
10002bc4:	4647      	mov	r7, r8
10002bc6:	9b0f      	ldr	r3, [sp, #60]	; 0x3c
10002bc8:	079b      	lsls	r3, r3, #30
10002bca:	d407      	bmi.n	10002bdc <_out_rev+0x90>
10002bcc:	0010      	movs	r0, r2
10002bce:	b003      	add	sp, #12
10002bd0:	bc3c      	pop	{r2, r3, r4, r5}
10002bd2:	4690      	mov	r8, r2
10002bd4:	4699      	mov	r9, r3
10002bd6:	46a2      	mov	sl, r4
10002bd8:	46ab      	mov	fp, r5
10002bda:	bdf0      	pop	{r4, r5, r6, r7, pc}
10002bdc:	46b0      	mov	r8, r6
10002bde:	464e      	mov	r6, r9
10002be0:	46b9      	mov	r9, r7
10002be2:	002f      	movs	r7, r5
10002be4:	465d      	mov	r5, fp
10002be6:	1b53      	subs	r3, r2, r5
10002be8:	42b3      	cmp	r3, r6
10002bea:	d2ef      	bcs.n	10002bcc <_out_rev+0x80>
10002bec:	1c54      	adds	r4, r2, #1
10002bee:	464b      	mov	r3, r9
10002bf0:	4641      	mov	r1, r8
10002bf2:	2020      	movs	r0, #32
10002bf4:	47b8      	blx	r7
10002bf6:	0022      	movs	r2, r4
10002bf8:	e7f5      	b.n	10002be6 <_out_rev+0x9a>

10002bfa <_ntoa_format>:
10002bfa:	b5f0      	push	{r4, r5, r6, r7, lr}
10002bfc:	46ce      	mov	lr, r9
10002bfe:	4647      	mov	r7, r8
10002c00:	b580      	push	{r7, lr}
10002c02:	b085      	sub	sp, #20
10002c04:	4694      	mov	ip, r2
10002c06:	4698      	mov	r8, r3
10002c08:	9d0c      	ldr	r5, [sp, #48]	; 0x30
10002c0a:	9c0d      	ldr	r4, [sp, #52]	; 0x34
10002c0c:	ab0e      	add	r3, sp, #56	; 0x38
10002c0e:	781b      	ldrb	r3, [r3, #0]
10002c10:	4699      	mov	r9, r3
10002c12:	9a10      	ldr	r2, [sp, #64]	; 0x40
10002c14:	9b11      	ldr	r3, [sp, #68]	; 0x44
10002c16:	9e12      	ldr	r6, [sp, #72]	; 0x48
10002c18:	07b7      	lsls	r7, r6, #30
10002c1a:	d41b      	bmi.n	10002c54 <_ntoa_format+0x5a>
10002c1c:	2b00      	cmp	r3, #0
10002c1e:	d008      	beq.n	10002c32 <_ntoa_format+0x38>
10002c20:	07f7      	lsls	r7, r6, #31
10002c22:	d506      	bpl.n	10002c32 <_ntoa_format+0x38>
10002c24:	464f      	mov	r7, r9
10002c26:	2f00      	cmp	r7, #0
10002c28:	d102      	bne.n	10002c30 <_ntoa_format+0x36>
10002c2a:	370c      	adds	r7, #12
10002c2c:	4237      	tst	r7, r6
10002c2e:	d000      	beq.n	10002c32 <_ntoa_format+0x38>
10002c30:	3b01      	subs	r3, #1
10002c32:	4294      	cmp	r4, r2
10002c34:	d208      	bcs.n	10002c48 <_ntoa_format+0x4e>
10002c36:	2c1f      	cmp	r4, #31
10002c38:	d806      	bhi.n	10002c48 <_ntoa_format+0x4e>
10002c3a:	2730      	movs	r7, #48	; 0x30
10002c3c:	552f      	strb	r7, [r5, r4]
10002c3e:	3401      	adds	r4, #1
10002c40:	e7f7      	b.n	10002c32 <_ntoa_format+0x38>
10002c42:	2730      	movs	r7, #48	; 0x30
10002c44:	552f      	strb	r7, [r5, r4]
10002c46:	3401      	adds	r4, #1
10002c48:	07f7      	lsls	r7, r6, #31
10002c4a:	d503      	bpl.n	10002c54 <_ntoa_format+0x5a>
10002c4c:	429c      	cmp	r4, r3
10002c4e:	d201      	bcs.n	10002c54 <_ntoa_format+0x5a>
10002c50:	2c1f      	cmp	r4, #31
10002c52:	d9f6      	bls.n	10002c42 <_ntoa_format+0x48>
10002c54:	06f7      	lsls	r7, r6, #27
10002c56:	d515      	bpl.n	10002c84 <_ntoa_format+0x8a>
10002c58:	0577      	lsls	r7, r6, #21
10002c5a:	d405      	bmi.n	10002c68 <_ntoa_format+0x6e>
10002c5c:	2c00      	cmp	r4, #0
10002c5e:	d003      	beq.n	10002c68 <_ntoa_format+0x6e>
10002c60:	4294      	cmp	r4, r2
10002c62:	d024      	beq.n	10002cae <_ntoa_format+0xb4>
10002c64:	429c      	cmp	r4, r3
10002c66:	d022      	beq.n	10002cae <_ntoa_format+0xb4>
10002c68:	9a0f      	ldr	r2, [sp, #60]	; 0x3c
10002c6a:	2a10      	cmp	r2, #16
10002c6c:	d02b      	beq.n	10002cc6 <_ntoa_format+0xcc>
10002c6e:	9a0f      	ldr	r2, [sp, #60]	; 0x3c
10002c70:	2a10      	cmp	r2, #16
10002c72:	d030      	beq.n	10002cd6 <_ntoa_format+0xdc>
10002c74:	9a0f      	ldr	r2, [sp, #60]	; 0x3c
10002c76:	2a02      	cmp	r2, #2
10002c78:	d035      	beq.n	10002ce6 <_ntoa_format+0xec>
10002c7a:	2c1f      	cmp	r4, #31
10002c7c:	d802      	bhi.n	10002c84 <_ntoa_format+0x8a>
10002c7e:	2230      	movs	r2, #48	; 0x30
10002c80:	552a      	strb	r2, [r5, r4]
10002c82:	3401      	adds	r4, #1
10002c84:	2c1f      	cmp	r4, #31
10002c86:	d805      	bhi.n	10002c94 <_ntoa_format+0x9a>
10002c88:	464a      	mov	r2, r9
10002c8a:	2a00      	cmp	r2, #0
10002c8c:	d031      	beq.n	10002cf2 <_ntoa_format+0xf8>
10002c8e:	222d      	movs	r2, #45	; 0x2d
10002c90:	552a      	strb	r2, [r5, r4]
10002c92:	3401      	adds	r4, #1
10002c94:	9603      	str	r6, [sp, #12]
10002c96:	9302      	str	r3, [sp, #8]
10002c98:	9401      	str	r4, [sp, #4]
10002c9a:	9500      	str	r5, [sp, #0]
10002c9c:	4643      	mov	r3, r8
10002c9e:	4662      	mov	r2, ip
10002ca0:	f7ff ff54 	bl	10002b4c <_out_rev>
10002ca4:	b005      	add	sp, #20
10002ca6:	bc0c      	pop	{r2, r3}
10002ca8:	4690      	mov	r8, r2
10002caa:	4699      	mov	r9, r3
10002cac:	bdf0      	pop	{r4, r5, r6, r7, pc}
10002cae:	1e62      	subs	r2, r4, #1
10002cb0:	2c01      	cmp	r4, #1
10002cb2:	d006      	beq.n	10002cc2 <_ntoa_format+0xc8>
10002cb4:	9f0f      	ldr	r7, [sp, #60]	; 0x3c
10002cb6:	2f10      	cmp	r7, #16
10002cb8:	d001      	beq.n	10002cbe <_ntoa_format+0xc4>
10002cba:	0014      	movs	r4, r2
10002cbc:	e7d4      	b.n	10002c68 <_ntoa_format+0x6e>
10002cbe:	3c02      	subs	r4, #2
10002cc0:	e7d2      	b.n	10002c68 <_ntoa_format+0x6e>
10002cc2:	0014      	movs	r4, r2
10002cc4:	e7d0      	b.n	10002c68 <_ntoa_format+0x6e>
10002cc6:	06b2      	lsls	r2, r6, #26
10002cc8:	d4d1      	bmi.n	10002c6e <_ntoa_format+0x74>
10002cca:	2c1f      	cmp	r4, #31
10002ccc:	d8cf      	bhi.n	10002c6e <_ntoa_format+0x74>
10002cce:	2278      	movs	r2, #120	; 0x78
10002cd0:	552a      	strb	r2, [r5, r4]
10002cd2:	3401      	adds	r4, #1
10002cd4:	e7d1      	b.n	10002c7a <_ntoa_format+0x80>
10002cd6:	06b2      	lsls	r2, r6, #26
10002cd8:	d5cc      	bpl.n	10002c74 <_ntoa_format+0x7a>
10002cda:	2c1f      	cmp	r4, #31
10002cdc:	d8ca      	bhi.n	10002c74 <_ntoa_format+0x7a>
10002cde:	2258      	movs	r2, #88	; 0x58
10002ce0:	552a      	strb	r2, [r5, r4]
10002ce2:	3401      	adds	r4, #1
10002ce4:	e7c9      	b.n	10002c7a <_ntoa_format+0x80>
10002ce6:	2c1f      	cmp	r4, #31
10002ce8:	d8c7      	bhi.n	10002c7a <_ntoa_format+0x80>
10002cea:	3260      	adds	r2, #96	; 0x60
10002cec:	552a      	strb	r2, [r5, r4]
10002cee:	3401      	adds	r4, #1
10002cf0:	e7c3      	b.n	10002c7a <_ntoa_format+0x80>
10002cf2:	0772      	lsls	r2, r6, #29
10002cf4:	d503      	bpl.n	10002cfe <_ntoa_format+0x104>
10002cf6:	222b      	movs	r2, #43	; 0x2b
10002cf8:	552a      	strb	r2, [r5, r4]
10002cfa:	3401      	adds	r4, #1
10002cfc:	e7ca      	b.n	10002c94 <_ntoa_format+0x9a>
10002cfe:	0732      	lsls	r2, r6, #28
10002d00:	d5c8      	bpl.n	10002c94 <_ntoa_format+0x9a>
10002d02:	2220      	movs	r2, #32
10002d04:	552a      	strb	r2, [r5, r4]
10002d06:	3401      	adds	r4, #1
10002d08:	e7c4      	b.n	10002c94 <_ntoa_format+0x9a>

10002d0a <_ntoa_long>:
10002d0a:	b5f0      	push	{r4, r5, r6, r7, lr}
10002d0c:	46de      	mov	lr, fp
10002d0e:	4657      	mov	r7, sl
10002d10:	464e      	mov	r6, r9
10002d12:	4645      	mov	r5, r8
10002d14:	b5e0      	push	{r5, r6, r7, lr}
10002d16:	b093      	sub	sp, #76	; 0x4c
10002d18:	4681      	mov	r9, r0
10002d1a:	468a      	mov	sl, r1
10002d1c:	9208      	str	r2, [sp, #32]
10002d1e:	9309      	str	r3, [sp, #36]	; 0x24
10002d20:	ab1c      	add	r3, sp, #112	; 0x70
10002d22:	cb10      	ldmia	r3!, {r4}
10002d24:	781b      	ldrb	r3, [r3, #0]
10002d26:	469b      	mov	fp, r3
10002d28:	9d1e      	ldr	r5, [sp, #120]	; 0x78
10002d2a:	9b21      	ldr	r3, [sp, #132]	; 0x84
10002d2c:	4698      	mov	r8, r3
10002d2e:	2c00      	cmp	r4, #0
10002d30:	d103      	bne.n	10002d3a <_ntoa_long+0x30>
10002d32:	2310      	movs	r3, #16
10002d34:	4642      	mov	r2, r8
10002d36:	439a      	bics	r2, r3
10002d38:	4690      	mov	r8, r2
10002d3a:	2380      	movs	r3, #128	; 0x80
10002d3c:	00db      	lsls	r3, r3, #3
10002d3e:	4646      	mov	r6, r8
10002d40:	401e      	ands	r6, r3
10002d42:	4642      	mov	r2, r8
10002d44:	421a      	tst	r2, r3
10002d46:	d012      	beq.n	10002d6e <_ntoa_long+0x64>
10002d48:	2c00      	cmp	r4, #0
10002d4a:	d022      	beq.n	10002d92 <_ntoa_long+0x88>
10002d4c:	2600      	movs	r6, #0
10002d4e:	e00e      	b.n	10002d6e <_ntoa_long+0x64>
10002d50:	3330      	adds	r3, #48	; 0x30
10002d52:	b2d9      	uxtb	r1, r3
10002d54:	1c77      	adds	r7, r6, #1
10002d56:	ab0a      	add	r3, sp, #40	; 0x28
10002d58:	5599      	strb	r1, [r3, r6]
10002d5a:	0029      	movs	r1, r5
10002d5c:	0020      	movs	r0, r4
10002d5e:	f000 ffd3 	bl	10003d08 <__wrap___aeabi_uidiv>
10002d62:	42ac      	cmp	r4, r5
10002d64:	d316      	bcc.n	10002d94 <_ntoa_long+0x8a>
10002d66:	2f1f      	cmp	r7, #31
10002d68:	d814      	bhi.n	10002d94 <_ntoa_long+0x8a>
10002d6a:	003e      	movs	r6, r7
10002d6c:	0004      	movs	r4, r0
10002d6e:	0029      	movs	r1, r5
10002d70:	0020      	movs	r0, r4
10002d72:	f000 ffc9 	bl	10003d08 <__wrap___aeabi_uidiv>
10002d76:	b2cb      	uxtb	r3, r1
10002d78:	2b09      	cmp	r3, #9
10002d7a:	d9e9      	bls.n	10002d50 <_ntoa_long+0x46>
10002d7c:	4642      	mov	r2, r8
10002d7e:	0692      	lsls	r2, r2, #26
10002d80:	d505      	bpl.n	10002d8e <_ntoa_long+0x84>
10002d82:	2141      	movs	r1, #65	; 0x41
10002d84:	18c9      	adds	r1, r1, r3
10002d86:	b2c9      	uxtb	r1, r1
10002d88:	390a      	subs	r1, #10
10002d8a:	b2c9      	uxtb	r1, r1
10002d8c:	e7e2      	b.n	10002d54 <_ntoa_long+0x4a>
10002d8e:	2161      	movs	r1, #97	; 0x61
10002d90:	e7f8      	b.n	10002d84 <_ntoa_long+0x7a>
10002d92:	0027      	movs	r7, r4
10002d94:	4643      	mov	r3, r8
10002d96:	9306      	str	r3, [sp, #24]
10002d98:	9b20      	ldr	r3, [sp, #128]	; 0x80
10002d9a:	9305      	str	r3, [sp, #20]
10002d9c:	9b1f      	ldr	r3, [sp, #124]	; 0x7c
10002d9e:	9304      	str	r3, [sp, #16]
10002da0:	9503      	str	r5, [sp, #12]
10002da2:	465b      	mov	r3, fp
10002da4:	9302      	str	r3, [sp, #8]
10002da6:	9701      	str	r7, [sp, #4]
10002da8:	ab0a      	add	r3, sp, #40	; 0x28
10002daa:	9300      	str	r3, [sp, #0]
10002dac:	9b09      	ldr	r3, [sp, #36]	; 0x24
10002dae:	9a08      	ldr	r2, [sp, #32]
10002db0:	4651      	mov	r1, sl
10002db2:	4648      	mov	r0, r9
10002db4:	f7ff ff21 	bl	10002bfa <_ntoa_format>
10002db8:	b013      	add	sp, #76	; 0x4c
10002dba:	bc3c      	pop	{r2, r3, r4, r5}
10002dbc:	4690      	mov	r8, r2
10002dbe:	4699      	mov	r9, r3
10002dc0:	46a2      	mov	sl, r4
10002dc2:	46ab      	mov	fp, r5
10002dc4:	bdf0      	pop	{r4, r5, r6, r7, pc}

10002dc6 <_ntoa_long_long>:
10002dc6:	b5f0      	push	{r4, r5, r6, r7, lr}
10002dc8:	46de      	mov	lr, fp
10002dca:	4657      	mov	r7, sl
10002dcc:	464e      	mov	r6, r9
10002dce:	4645      	mov	r5, r8
10002dd0:	b5e0      	push	{r5, r6, r7, lr}
10002dd2:	b095      	sub	sp, #84	; 0x54
10002dd4:	9008      	str	r0, [sp, #32]
10002dd6:	9109      	str	r1, [sp, #36]	; 0x24
10002dd8:	920a      	str	r2, [sp, #40]	; 0x28
10002dda:	930b      	str	r3, [sp, #44]	; 0x2c
10002ddc:	9e1e      	ldr	r6, [sp, #120]	; 0x78
10002dde:	9c1f      	ldr	r4, [sp, #124]	; 0x7c
10002de0:	ab20      	add	r3, sp, #128	; 0x80
10002de2:	781b      	ldrb	r3, [r3, #0]
10002de4:	469b      	mov	fp, r3
10002de6:	9b22      	ldr	r3, [sp, #136]	; 0x88
10002de8:	4699      	mov	r9, r3
10002dea:	9d23      	ldr	r5, [sp, #140]	; 0x8c
10002dec:	9b26      	ldr	r3, [sp, #152]	; 0x98
10002dee:	469a      	mov	sl, r3
10002df0:	0033      	movs	r3, r6
10002df2:	4323      	orrs	r3, r4
10002df4:	d103      	bne.n	10002dfe <_ntoa_long_long+0x38>
10002df6:	3310      	adds	r3, #16
10002df8:	4652      	mov	r2, sl
10002dfa:	439a      	bics	r2, r3
10002dfc:	4692      	mov	sl, r2
10002dfe:	2380      	movs	r3, #128	; 0x80
10002e00:	00db      	lsls	r3, r3, #3
10002e02:	4657      	mov	r7, sl
10002e04:	401f      	ands	r7, r3
10002e06:	4652      	mov	r2, sl
10002e08:	421a      	tst	r2, r3
10002e0a:	d019      	beq.n	10002e40 <_ntoa_long_long+0x7a>
10002e0c:	0033      	movs	r3, r6
10002e0e:	4323      	orrs	r3, r4
10002e10:	d02d      	beq.n	10002e6e <_ntoa_long_long+0xa8>
10002e12:	2700      	movs	r7, #0
10002e14:	e014      	b.n	10002e40 <_ntoa_long_long+0x7a>
10002e16:	3330      	adds	r3, #48	; 0x30
10002e18:	b2da      	uxtb	r2, r3
10002e1a:	1c7b      	adds	r3, r7, #1
10002e1c:	4698      	mov	r8, r3
10002e1e:	ab0c      	add	r3, sp, #48	; 0x30
10002e20:	55da      	strb	r2, [r3, r7]
10002e22:	464a      	mov	r2, r9
10002e24:	002b      	movs	r3, r5
10002e26:	0030      	movs	r0, r6
10002e28:	0021      	movs	r1, r4
10002e2a:	f000 ffaf 	bl	10003d8c <__wrap___aeabi_uldivmod>
10002e2e:	42a5      	cmp	r5, r4
10002e30:	d81f      	bhi.n	10002e72 <_ntoa_long_long+0xac>
10002e32:	d019      	beq.n	10002e68 <_ntoa_long_long+0xa2>
10002e34:	4643      	mov	r3, r8
10002e36:	2b1f      	cmp	r3, #31
10002e38:	d81b      	bhi.n	10002e72 <_ntoa_long_long+0xac>
10002e3a:	4647      	mov	r7, r8
10002e3c:	0006      	movs	r6, r0
10002e3e:	000c      	movs	r4, r1
10002e40:	464a      	mov	r2, r9
10002e42:	002b      	movs	r3, r5
10002e44:	0030      	movs	r0, r6
10002e46:	0021      	movs	r1, r4
10002e48:	f000 ffa0 	bl	10003d8c <__wrap___aeabi_uldivmod>
10002e4c:	b2d3      	uxtb	r3, r2
10002e4e:	2b09      	cmp	r3, #9
10002e50:	d9e1      	bls.n	10002e16 <_ntoa_long_long+0x50>
10002e52:	4652      	mov	r2, sl
10002e54:	0692      	lsls	r2, r2, #26
10002e56:	d505      	bpl.n	10002e64 <_ntoa_long_long+0x9e>
10002e58:	2241      	movs	r2, #65	; 0x41
10002e5a:	18d2      	adds	r2, r2, r3
10002e5c:	b2d2      	uxtb	r2, r2
10002e5e:	3a0a      	subs	r2, #10
10002e60:	b2d2      	uxtb	r2, r2
10002e62:	e7da      	b.n	10002e1a <_ntoa_long_long+0x54>
10002e64:	2261      	movs	r2, #97	; 0x61
10002e66:	e7f8      	b.n	10002e5a <_ntoa_long_long+0x94>
10002e68:	45b1      	cmp	r9, r6
10002e6a:	d9e3      	bls.n	10002e34 <_ntoa_long_long+0x6e>
10002e6c:	e001      	b.n	10002e72 <_ntoa_long_long+0xac>
10002e6e:	2300      	movs	r3, #0
10002e70:	4698      	mov	r8, r3
10002e72:	4653      	mov	r3, sl
10002e74:	9306      	str	r3, [sp, #24]
10002e76:	9b25      	ldr	r3, [sp, #148]	; 0x94
10002e78:	9305      	str	r3, [sp, #20]
10002e7a:	9b24      	ldr	r3, [sp, #144]	; 0x90
10002e7c:	9304      	str	r3, [sp, #16]
10002e7e:	464b      	mov	r3, r9
10002e80:	9303      	str	r3, [sp, #12]
10002e82:	465b      	mov	r3, fp
10002e84:	9302      	str	r3, [sp, #8]
10002e86:	4643      	mov	r3, r8
10002e88:	9301      	str	r3, [sp, #4]
10002e8a:	ab0c      	add	r3, sp, #48	; 0x30
10002e8c:	9300      	str	r3, [sp, #0]
10002e8e:	9b0b      	ldr	r3, [sp, #44]	; 0x2c
10002e90:	9a0a      	ldr	r2, [sp, #40]	; 0x28
10002e92:	9909      	ldr	r1, [sp, #36]	; 0x24
10002e94:	9808      	ldr	r0, [sp, #32]
10002e96:	f7ff feb0 	bl	10002bfa <_ntoa_format>
10002e9a:	b015      	add	sp, #84	; 0x54
10002e9c:	bc3c      	pop	{r2, r3, r4, r5}
10002e9e:	4690      	mov	r8, r2
10002ea0:	4699      	mov	r9, r3
10002ea2:	46a2      	mov	sl, r4
10002ea4:	46ab      	mov	fp, r5
10002ea6:	bdf0      	pop	{r4, r5, r6, r7, pc}

10002ea8 <_etoa>:
10002ea8:	b5f0      	push	{r4, r5, r6, r7, lr}
10002eaa:	46de      	mov	lr, fp
10002eac:	4657      	mov	r7, sl
10002eae:	464e      	mov	r6, r9
10002eb0:	4645      	mov	r5, r8
10002eb2:	b5e0      	push	{r5, r6, r7, lr}
10002eb4:	b091      	sub	sp, #68	; 0x44
10002eb6:	4683      	mov	fp, r0
10002eb8:	468a      	mov	sl, r1
10002eba:	920c      	str	r2, [sp, #48]	; 0x30
10002ebc:	4698      	mov	r8, r3
10002ebe:	9c1a      	ldr	r4, [sp, #104]	; 0x68
10002ec0:	9408      	str	r4, [sp, #32]
10002ec2:	9d1b      	ldr	r5, [sp, #108]	; 0x6c
10002ec4:	9509      	str	r5, [sp, #36]	; 0x24
10002ec6:	0022      	movs	r2, r4
10002ec8:	002b      	movs	r3, r5
10002eca:	0020      	movs	r0, r4
10002ecc:	0029      	movs	r1, r5
10002ece:	f001 f9ea 	bl	100042a6 <__wrap___aeabi_dcmpun>
10002ed2:	2800      	cmp	r0, #0
10002ed4:	d000      	beq.n	10002ed8 <_etoa+0x30>
10002ed6:	e0e5      	b.n	100030a4 <_etoa+0x1fc>
10002ed8:	2201      	movs	r2, #1
10002eda:	4252      	negs	r2, r2
10002edc:	4bd3      	ldr	r3, [pc, #844]	; (1000322c <_etoa+0x384>)
10002ede:	0020      	movs	r0, r4
10002ee0:	0029      	movs	r1, r5
10002ee2:	f001 f9db 	bl	1000429c <__wrap___aeabi_dcmpgt>
10002ee6:	2800      	cmp	r0, #0
10002ee8:	d000      	beq.n	10002eec <_etoa+0x44>
10002eea:	e0db      	b.n	100030a4 <_etoa+0x1fc>
10002eec:	2201      	movs	r2, #1
10002eee:	4252      	negs	r2, r2
10002ef0:	4bcf      	ldr	r3, [pc, #828]	; (10003230 <_etoa+0x388>)
10002ef2:	0020      	movs	r0, r4
10002ef4:	0029      	movs	r1, r5
10002ef6:	f001 f9bb 	bl	10004270 <__wrap___aeabi_dcmplt>
10002efa:	2800      	cmp	r0, #0
10002efc:	d000      	beq.n	10002f00 <_etoa+0x58>
10002efe:	e0d1      	b.n	100030a4 <_etoa+0x1fc>
10002f00:	2200      	movs	r2, #0
10002f02:	2300      	movs	r3, #0
10002f04:	9d08      	ldr	r5, [sp, #32]
10002f06:	0028      	movs	r0, r5
10002f08:	9e09      	ldr	r6, [sp, #36]	; 0x24
10002f0a:	0031      	movs	r1, r6
10002f0c:	f001 f9b0 	bl	10004270 <__wrap___aeabi_dcmplt>
10002f10:	2800      	cmp	r0, #0
10002f12:	d000      	beq.n	10002f16 <_etoa+0x6e>
10002f14:	e0dd      	b.n	100030d2 <_etoa+0x22a>
10002f16:	9808      	ldr	r0, [sp, #32]
10002f18:	9909      	ldr	r1, [sp, #36]	; 0x24
10002f1a:	9006      	str	r0, [sp, #24]
10002f1c:	9107      	str	r1, [sp, #28]
10002f1e:	2380      	movs	r3, #128	; 0x80
10002f20:	00db      	lsls	r3, r3, #3
10002f22:	9a1e      	ldr	r2, [sp, #120]	; 0x78
10002f24:	401a      	ands	r2, r3
10002f26:	920d      	str	r2, [sp, #52]	; 0x34
10002f28:	9a1e      	ldr	r2, [sp, #120]	; 0x78
10002f2a:	421a      	tst	r2, r3
10002f2c:	d101      	bne.n	10002f32 <_etoa+0x8a>
10002f2e:	2306      	movs	r3, #6
10002f30:	931c      	str	r3, [sp, #112]	; 0x70
10002f32:	9806      	ldr	r0, [sp, #24]
10002f34:	9907      	ldr	r1, [sp, #28]
10002f36:	0004      	movs	r4, r0
10002f38:	000d      	movs	r5, r1
10002f3a:	000a      	movs	r2, r1
10002f3c:	0006      	movs	r6, r0
10002f3e:	4302      	orrs	r2, r0
10002f40:	d100      	bne.n	10002f44 <_etoa+0x9c>
10002f42:	e0cd      	b.n	100030e0 <_etoa+0x238>
10002f44:	0d08      	lsrs	r0, r1, #20
10002f46:	0540      	lsls	r0, r0, #21
10002f48:	0d40      	lsrs	r0, r0, #21
10002f4a:	4cba      	ldr	r4, [pc, #744]	; (10003234 <_etoa+0x38c>)
10002f4c:	46a4      	mov	ip, r4
10002f4e:	4460      	add	r0, ip
10002f50:	030a      	lsls	r2, r1, #12
10002f52:	0b12      	lsrs	r2, r2, #12
10002f54:	4bb8      	ldr	r3, [pc, #736]	; (10003238 <_etoa+0x390>)
10002f56:	4313      	orrs	r3, r2
10002f58:	001f      	movs	r7, r3
10002f5a:	f001 f9b7 	bl	100042cc <__wrap___aeabi_i2d>
10002f5e:	4ab7      	ldr	r2, [pc, #732]	; (1000323c <_etoa+0x394>)
10002f60:	4bb7      	ldr	r3, [pc, #732]	; (10003240 <_etoa+0x398>)
10002f62:	f001 f942 	bl	100041ea <__wrap___aeabi_dmul>
10002f66:	4ab7      	ldr	r2, [pc, #732]	; (10003244 <_etoa+0x39c>)
10002f68:	4bb7      	ldr	r3, [pc, #732]	; (10003248 <_etoa+0x3a0>)
10002f6a:	f001 f917 	bl	1000419c <__wrap___aeabi_dadd>
10002f6e:	0004      	movs	r4, r0
10002f70:	000d      	movs	r5, r1
10002f72:	2200      	movs	r2, #0
10002f74:	4bb5      	ldr	r3, [pc, #724]	; (1000324c <_etoa+0x3a4>)
10002f76:	0030      	movs	r0, r6
10002f78:	0039      	movs	r1, r7
10002f7a:	f001 f906 	bl	1000418a <__wrap___aeabi_dsub>
10002f7e:	4ab4      	ldr	r2, [pc, #720]	; (10003250 <_etoa+0x3a8>)
10002f80:	4bb4      	ldr	r3, [pc, #720]	; (10003254 <_etoa+0x3ac>)
10002f82:	f001 f932 	bl	100041ea <__wrap___aeabi_dmul>
10002f86:	0002      	movs	r2, r0
10002f88:	000b      	movs	r3, r1
10002f8a:	0020      	movs	r0, r4
10002f8c:	0029      	movs	r1, r5
10002f8e:	f001 f905 	bl	1000419c <__wrap___aeabi_dadd>
10002f92:	f001 f9b3 	bl	100042fc <__wrap___aeabi_d2iz>
10002f96:	4681      	mov	r9, r0
10002f98:	f001 f998 	bl	100042cc <__wrap___aeabi_i2d>
10002f9c:	0004      	movs	r4, r0
10002f9e:	000d      	movs	r5, r1
10002fa0:	4aad      	ldr	r2, [pc, #692]	; (10003258 <_etoa+0x3b0>)
10002fa2:	4bae      	ldr	r3, [pc, #696]	; (1000325c <_etoa+0x3b4>)
10002fa4:	f001 f921 	bl	100041ea <__wrap___aeabi_dmul>
10002fa8:	2200      	movs	r2, #0
10002faa:	4bad      	ldr	r3, [pc, #692]	; (10003260 <_etoa+0x3b8>)
10002fac:	f001 f8f6 	bl	1000419c <__wrap___aeabi_dadd>
10002fb0:	f001 f9a4 	bl	100042fc <__wrap___aeabi_d2iz>
10002fb4:	0006      	movs	r6, r0
10002fb6:	4aab      	ldr	r2, [pc, #684]	; (10003264 <_etoa+0x3bc>)
10002fb8:	4bab      	ldr	r3, [pc, #684]	; (10003268 <_etoa+0x3c0>)
10002fba:	0020      	movs	r0, r4
10002fbc:	0029      	movs	r1, r5
10002fbe:	f001 f914 	bl	100041ea <__wrap___aeabi_dmul>
10002fc2:	0004      	movs	r4, r0
10002fc4:	000d      	movs	r5, r1
10002fc6:	0030      	movs	r0, r6
10002fc8:	f001 f980 	bl	100042cc <__wrap___aeabi_i2d>
10002fcc:	4aa7      	ldr	r2, [pc, #668]	; (1000326c <_etoa+0x3c4>)
10002fce:	4ba8      	ldr	r3, [pc, #672]	; (10003270 <_etoa+0x3c8>)
10002fd0:	f001 f90b 	bl	100041ea <__wrap___aeabi_dmul>
10002fd4:	0002      	movs	r2, r0
10002fd6:	000b      	movs	r3, r1
10002fd8:	0020      	movs	r0, r4
10002fda:	0029      	movs	r1, r5
10002fdc:	f001 f8d5 	bl	1000418a <__wrap___aeabi_dsub>
10002fe0:	0004      	movs	r4, r0
10002fe2:	000d      	movs	r5, r1
10002fe4:	0002      	movs	r2, r0
10002fe6:	000b      	movs	r3, r1
10002fe8:	f001 f8ff 	bl	100041ea <__wrap___aeabi_dmul>
10002fec:	900a      	str	r0, [sp, #40]	; 0x28
10002fee:	910b      	str	r1, [sp, #44]	; 0x2c
10002ff0:	4ba0      	ldr	r3, [pc, #640]	; (10003274 <_etoa+0x3cc>)
10002ff2:	18f3      	adds	r3, r6, r3
10002ff4:	2600      	movs	r6, #0
10002ff6:	051f      	lsls	r7, r3, #20
10002ff8:	0022      	movs	r2, r4
10002ffa:	002b      	movs	r3, r5
10002ffc:	0020      	movs	r0, r4
10002ffe:	0029      	movs	r1, r5
10003000:	f001 f8cc 	bl	1000419c <__wrap___aeabi_dadd>
10003004:	900e      	str	r0, [sp, #56]	; 0x38
10003006:	910f      	str	r1, [sp, #60]	; 0x3c
10003008:	0022      	movs	r2, r4
1000300a:	002b      	movs	r3, r5
1000300c:	2000      	movs	r0, #0
1000300e:	2180      	movs	r1, #128	; 0x80
10003010:	05c9      	lsls	r1, r1, #23
10003012:	f001 f8ba 	bl	1000418a <__wrap___aeabi_dsub>
10003016:	0004      	movs	r4, r0
10003018:	000d      	movs	r5, r1
1000301a:	2200      	movs	r2, #0
1000301c:	4b96      	ldr	r3, [pc, #600]	; (10003278 <_etoa+0x3d0>)
1000301e:	980a      	ldr	r0, [sp, #40]	; 0x28
10003020:	990b      	ldr	r1, [sp, #44]	; 0x2c
10003022:	f001 f8c4 	bl	100041ae <__wrap___aeabi_ddiv>
10003026:	2200      	movs	r2, #0
10003028:	4b94      	ldr	r3, [pc, #592]	; (1000327c <_etoa+0x3d4>)
1000302a:	f001 f8b7 	bl	1000419c <__wrap___aeabi_dadd>
1000302e:	0002      	movs	r2, r0
10003030:	000b      	movs	r3, r1
10003032:	980a      	ldr	r0, [sp, #40]	; 0x28
10003034:	990b      	ldr	r1, [sp, #44]	; 0x2c
10003036:	f001 f8ba 	bl	100041ae <__wrap___aeabi_ddiv>
1000303a:	2200      	movs	r2, #0
1000303c:	4b90      	ldr	r3, [pc, #576]	; (10003280 <_etoa+0x3d8>)
1000303e:	f001 f8ad 	bl	1000419c <__wrap___aeabi_dadd>
10003042:	0002      	movs	r2, r0
10003044:	000b      	movs	r3, r1
10003046:	980a      	ldr	r0, [sp, #40]	; 0x28
10003048:	990b      	ldr	r1, [sp, #44]	; 0x2c
1000304a:	f001 f8b0 	bl	100041ae <__wrap___aeabi_ddiv>
1000304e:	0002      	movs	r2, r0
10003050:	000b      	movs	r3, r1
10003052:	0020      	movs	r0, r4
10003054:	0029      	movs	r1, r5
10003056:	f001 f8a1 	bl	1000419c <__wrap___aeabi_dadd>
1000305a:	0002      	movs	r2, r0
1000305c:	000b      	movs	r3, r1
1000305e:	980e      	ldr	r0, [sp, #56]	; 0x38
10003060:	990f      	ldr	r1, [sp, #60]	; 0x3c
10003062:	f001 f8a4 	bl	100041ae <__wrap___aeabi_ddiv>
10003066:	2200      	movs	r2, #0
10003068:	4b73      	ldr	r3, [pc, #460]	; (10003238 <_etoa+0x390>)
1000306a:	f001 f897 	bl	1000419c <__wrap___aeabi_dadd>
1000306e:	0032      	movs	r2, r6
10003070:	003b      	movs	r3, r7
10003072:	f001 f8ba 	bl	100041ea <__wrap___aeabi_dmul>
10003076:	0006      	movs	r6, r0
10003078:	000f      	movs	r7, r1
1000307a:	0004      	movs	r4, r0
1000307c:	000d      	movs	r5, r1
1000307e:	9a06      	ldr	r2, [sp, #24]
10003080:	9b07      	ldr	r3, [sp, #28]
10003082:	f001 f90b 	bl	1000429c <__wrap___aeabi_dcmpgt>
10003086:	2800      	cmp	r0, #0
10003088:	d02c      	beq.n	100030e4 <_etoa+0x23c>
1000308a:	2301      	movs	r3, #1
1000308c:	425b      	negs	r3, r3
1000308e:	469c      	mov	ip, r3
10003090:	44e1      	add	r9, ip
10003092:	2200      	movs	r2, #0
10003094:	4b79      	ldr	r3, [pc, #484]	; (1000327c <_etoa+0x3d4>)
10003096:	0030      	movs	r0, r6
10003098:	0039      	movs	r1, r7
1000309a:	f001 f888 	bl	100041ae <__wrap___aeabi_ddiv>
1000309e:	0004      	movs	r4, r0
100030a0:	000d      	movs	r5, r1
100030a2:	e01f      	b.n	100030e4 <_etoa+0x23c>
100030a4:	9b1e      	ldr	r3, [sp, #120]	; 0x78
100030a6:	9304      	str	r3, [sp, #16]
100030a8:	9b1d      	ldr	r3, [sp, #116]	; 0x74
100030aa:	9303      	str	r3, [sp, #12]
100030ac:	9b1c      	ldr	r3, [sp, #112]	; 0x70
100030ae:	9302      	str	r3, [sp, #8]
100030b0:	9a08      	ldr	r2, [sp, #32]
100030b2:	9b09      	ldr	r3, [sp, #36]	; 0x24
100030b4:	9200      	str	r2, [sp, #0]
100030b6:	9301      	str	r3, [sp, #4]
100030b8:	4643      	mov	r3, r8
100030ba:	9a0c      	ldr	r2, [sp, #48]	; 0x30
100030bc:	4651      	mov	r1, sl
100030be:	4658      	mov	r0, fp
100030c0:	f000 f8f8 	bl	100032b4 <_ftoa>
100030c4:	b011      	add	sp, #68	; 0x44
100030c6:	bc3c      	pop	{r2, r3, r4, r5}
100030c8:	4690      	mov	r8, r2
100030ca:	4699      	mov	r9, r3
100030cc:	46a2      	mov	sl, r4
100030ce:	46ab      	mov	fp, r5
100030d0:	bdf0      	pop	{r4, r5, r6, r7, pc}
100030d2:	9506      	str	r5, [sp, #24]
100030d4:	2380      	movs	r3, #128	; 0x80
100030d6:	061b      	lsls	r3, r3, #24
100030d8:	469c      	mov	ip, r3
100030da:	4466      	add	r6, ip
100030dc:	9607      	str	r6, [sp, #28]
100030de:	e71e      	b.n	10002f1e <_etoa+0x76>
100030e0:	2300      	movs	r3, #0
100030e2:	4699      	mov	r9, r3
100030e4:	464b      	mov	r3, r9
100030e6:	3363      	adds	r3, #99	; 0x63
100030e8:	2bc6      	cmp	r3, #198	; 0xc6
100030ea:	d81f      	bhi.n	1000312c <_etoa+0x284>
100030ec:	2604      	movs	r6, #4
100030ee:	9b1e      	ldr	r3, [sp, #120]	; 0x78
100030f0:	051b      	lsls	r3, r3, #20
100030f2:	d527      	bpl.n	10003144 <_etoa+0x29c>
100030f4:	002b      	movs	r3, r5
100030f6:	4323      	orrs	r3, r4
100030f8:	d010      	beq.n	1000311c <_etoa+0x274>
100030fa:	4a62      	ldr	r2, [pc, #392]	; (10003284 <_etoa+0x3dc>)
100030fc:	4b62      	ldr	r3, [pc, #392]	; (10003288 <_etoa+0x3e0>)
100030fe:	9806      	ldr	r0, [sp, #24]
10003100:	9907      	ldr	r1, [sp, #28]
10003102:	f001 f8c3 	bl	1000428c <__wrap___aeabi_dcmpge>
10003106:	2800      	cmp	r0, #0
10003108:	d100      	bne.n	1000310c <_etoa+0x264>
1000310a:	e083      	b.n	10003214 <_etoa+0x36c>
1000310c:	2200      	movs	r2, #0
1000310e:	4b5f      	ldr	r3, [pc, #380]	; (1000328c <_etoa+0x3e4>)
10003110:	9806      	ldr	r0, [sp, #24]
10003112:	9907      	ldr	r1, [sp, #28]
10003114:	f001 f8ac 	bl	10004270 <__wrap___aeabi_dcmplt>
10003118:	2800      	cmp	r0, #0
1000311a:	d07b      	beq.n	10003214 <_etoa+0x36c>
1000311c:	9b1c      	ldr	r3, [sp, #112]	; 0x70
1000311e:	454b      	cmp	r3, r9
10003120:	dd06      	ble.n	10003130 <_etoa+0x288>
10003122:	464a      	mov	r2, r9
10003124:	1a98      	subs	r0, r3, r2
10003126:	1e43      	subs	r3, r0, #1
10003128:	931c      	str	r3, [sp, #112]	; 0x70
1000312a:	e003      	b.n	10003134 <_etoa+0x28c>
1000312c:	2605      	movs	r6, #5
1000312e:	e7de      	b.n	100030ee <_etoa+0x246>
10003130:	2300      	movs	r3, #0
10003132:	931c      	str	r3, [sp, #112]	; 0x70
10003134:	2380      	movs	r3, #128	; 0x80
10003136:	00db      	lsls	r3, r3, #3
10003138:	9a1e      	ldr	r2, [sp, #120]	; 0x78
1000313a:	431a      	orrs	r2, r3
1000313c:	921e      	str	r2, [sp, #120]	; 0x78
1000313e:	2600      	movs	r6, #0
10003140:	2300      	movs	r3, #0
10003142:	4699      	mov	r9, r3
10003144:	9b1d      	ldr	r3, [sp, #116]	; 0x74
10003146:	429e      	cmp	r6, r3
10003148:	d26e      	bcs.n	10003228 <_etoa+0x380>
1000314a:	1b9f      	subs	r7, r3, r6
1000314c:	2302      	movs	r3, #2
1000314e:	9a1e      	ldr	r2, [sp, #120]	; 0x78
10003150:	401a      	ands	r2, r3
10003152:	920a      	str	r2, [sp, #40]	; 0x28
10003154:	9a1e      	ldr	r2, [sp, #120]	; 0x78
10003156:	4213      	tst	r3, r2
10003158:	d002      	beq.n	10003160 <_etoa+0x2b8>
1000315a:	2e00      	cmp	r6, #0
1000315c:	d000      	beq.n	10003160 <_etoa+0x2b8>
1000315e:	2700      	movs	r7, #0
10003160:	464b      	mov	r3, r9
10003162:	2b00      	cmp	r3, #0
10003164:	d007      	beq.n	10003176 <_etoa+0x2ce>
10003166:	0022      	movs	r2, r4
10003168:	002b      	movs	r3, r5
1000316a:	9806      	ldr	r0, [sp, #24]
1000316c:	9907      	ldr	r1, [sp, #28]
1000316e:	f001 f81e 	bl	100041ae <__wrap___aeabi_ddiv>
10003172:	9006      	str	r0, [sp, #24]
10003174:	9107      	str	r1, [sp, #28]
10003176:	2200      	movs	r2, #0
10003178:	2300      	movs	r3, #0
1000317a:	9808      	ldr	r0, [sp, #32]
1000317c:	9909      	ldr	r1, [sp, #36]	; 0x24
1000317e:	f001 f877 	bl	10004270 <__wrap___aeabi_dcmplt>
10003182:	2800      	cmp	r0, #0
10003184:	d000      	beq.n	10003188 <_etoa+0x2e0>
10003186:	e085      	b.n	10003294 <_etoa+0x3ec>
10003188:	4b41      	ldr	r3, [pc, #260]	; (10003290 <_etoa+0x3e8>)
1000318a:	9a1e      	ldr	r2, [sp, #120]	; 0x78
1000318c:	4013      	ands	r3, r2
1000318e:	9304      	str	r3, [sp, #16]
10003190:	9703      	str	r7, [sp, #12]
10003192:	9b1c      	ldr	r3, [sp, #112]	; 0x70
10003194:	9302      	str	r3, [sp, #8]
10003196:	9b06      	ldr	r3, [sp, #24]
10003198:	9c07      	ldr	r4, [sp, #28]
1000319a:	9300      	str	r3, [sp, #0]
1000319c:	9401      	str	r4, [sp, #4]
1000319e:	4643      	mov	r3, r8
100031a0:	9a0c      	ldr	r2, [sp, #48]	; 0x30
100031a2:	4651      	mov	r1, sl
100031a4:	4658      	mov	r0, fp
100031a6:	f000 f885 	bl	100032b4 <_ftoa>
100031aa:	2e00      	cmp	r6, #0
100031ac:	d100      	bne.n	100031b0 <_etoa+0x308>
100031ae:	e789      	b.n	100030c4 <_etoa+0x21c>
100031b0:	9b1e      	ldr	r3, [sp, #120]	; 0x78
100031b2:	069b      	lsls	r3, r3, #26
100031b4:	d57a      	bpl.n	100032ac <_etoa+0x404>
100031b6:	2545      	movs	r5, #69	; 0x45
100031b8:	1c44      	adds	r4, r0, #1
100031ba:	4643      	mov	r3, r8
100031bc:	0002      	movs	r2, r0
100031be:	4651      	mov	r1, sl
100031c0:	0028      	movs	r0, r5
100031c2:	47d8      	blx	fp
100031c4:	464b      	mov	r3, r9
100031c6:	17da      	asrs	r2, r3, #31
100031c8:	189b      	adds	r3, r3, r2
100031ca:	4053      	eors	r3, r2
100031cc:	2205      	movs	r2, #5
100031ce:	9205      	str	r2, [sp, #20]
100031d0:	3e01      	subs	r6, #1
100031d2:	9604      	str	r6, [sp, #16]
100031d4:	2200      	movs	r2, #0
100031d6:	9203      	str	r2, [sp, #12]
100031d8:	320a      	adds	r2, #10
100031da:	9202      	str	r2, [sp, #8]
100031dc:	464a      	mov	r2, r9
100031de:	0fd0      	lsrs	r0, r2, #31
100031e0:	9001      	str	r0, [sp, #4]
100031e2:	9300      	str	r3, [sp, #0]
100031e4:	4643      	mov	r3, r8
100031e6:	0022      	movs	r2, r4
100031e8:	4651      	mov	r1, sl
100031ea:	4658      	mov	r0, fp
100031ec:	f7ff fd8d 	bl	10002d0a <_ntoa_long>
100031f0:	9b0a      	ldr	r3, [sp, #40]	; 0x28
100031f2:	2b00      	cmp	r3, #0
100031f4:	d100      	bne.n	100031f8 <_etoa+0x350>
100031f6:	e765      	b.n	100030c4 <_etoa+0x21c>
100031f8:	0002      	movs	r2, r0
100031fa:	465f      	mov	r7, fp
100031fc:	9e0c      	ldr	r6, [sp, #48]	; 0x30
100031fe:	9d1d      	ldr	r5, [sp, #116]	; 0x74
10003200:	1b93      	subs	r3, r2, r6
10003202:	42ab      	cmp	r3, r5
10003204:	d254      	bcs.n	100032b0 <_etoa+0x408>
10003206:	1c54      	adds	r4, r2, #1
10003208:	4643      	mov	r3, r8
1000320a:	4651      	mov	r1, sl
1000320c:	2020      	movs	r0, #32
1000320e:	47b8      	blx	r7
10003210:	0022      	movs	r2, r4
10003212:	e7f5      	b.n	10003200 <_etoa+0x358>
10003214:	9b1c      	ldr	r3, [sp, #112]	; 0x70
10003216:	2b00      	cmp	r3, #0
10003218:	d094      	beq.n	10003144 <_etoa+0x29c>
1000321a:	9b0d      	ldr	r3, [sp, #52]	; 0x34
1000321c:	2b00      	cmp	r3, #0
1000321e:	d091      	beq.n	10003144 <_etoa+0x29c>
10003220:	9b1c      	ldr	r3, [sp, #112]	; 0x70
10003222:	3b01      	subs	r3, #1
10003224:	931c      	str	r3, [sp, #112]	; 0x70
10003226:	e78d      	b.n	10003144 <_etoa+0x29c>
10003228:	2700      	movs	r7, #0
1000322a:	e78f      	b.n	1000314c <_etoa+0x2a4>
1000322c:	7fefffff 	.word	0x7fefffff
10003230:	ffefffff 	.word	0xffefffff
10003234:	fffffc01 	.word	0xfffffc01
10003238:	3ff00000 	.word	0x3ff00000
1000323c:	509f79fb 	.word	0x509f79fb
10003240:	3fd34413 	.word	0x3fd34413
10003244:	8b60c8b3 	.word	0x8b60c8b3
10003248:	3fc68a28 	.word	0x3fc68a28
1000324c:	3ff80000 	.word	0x3ff80000
10003250:	636f4361 	.word	0x636f4361
10003254:	3fd287a7 	.word	0x3fd287a7
10003258:	0979a371 	.word	0x0979a371
1000325c:	400a934f 	.word	0x400a934f
10003260:	3fe00000 	.word	0x3fe00000
10003264:	bbb55516 	.word	0xbbb55516
10003268:	40026bb1 	.word	0x40026bb1
1000326c:	fefa39ef 	.word	0xfefa39ef
10003270:	3fe62e42 	.word	0x3fe62e42
10003274:	000003ff 	.word	0x000003ff
10003278:	402c0000 	.word	0x402c0000
1000327c:	40240000 	.word	0x40240000
10003280:	40180000 	.word	0x40180000
10003284:	eb1c432d 	.word	0xeb1c432d
10003288:	3f1a36e2 	.word	0x3f1a36e2
1000328c:	412e8480 	.word	0x412e8480
10003290:	fffff7ff 	.word	0xfffff7ff
10003294:	9c06      	ldr	r4, [sp, #24]
10003296:	9d07      	ldr	r5, [sp, #28]
10003298:	0022      	movs	r2, r4
1000329a:	0029      	movs	r1, r5
1000329c:	2080      	movs	r0, #128	; 0x80
1000329e:	0600      	lsls	r0, r0, #24
100032a0:	4684      	mov	ip, r0
100032a2:	4461      	add	r1, ip
100032a4:	000b      	movs	r3, r1
100032a6:	9206      	str	r2, [sp, #24]
100032a8:	9307      	str	r3, [sp, #28]
100032aa:	e76d      	b.n	10003188 <_etoa+0x2e0>
100032ac:	2565      	movs	r5, #101	; 0x65
100032ae:	e783      	b.n	100031b8 <_etoa+0x310>
100032b0:	0010      	movs	r0, r2
100032b2:	e707      	b.n	100030c4 <_etoa+0x21c>

100032b4 <_ftoa>:
100032b4:	b5f0      	push	{r4, r5, r6, r7, lr}
100032b6:	46de      	mov	lr, fp
100032b8:	4657      	mov	r7, sl
100032ba:	464e      	mov	r6, r9
100032bc:	4645      	mov	r5, r8
100032be:	b5e0      	push	{r5, r6, r7, lr}
100032c0:	b095      	sub	sp, #84	; 0x54
100032c2:	9006      	str	r0, [sp, #24]
100032c4:	9107      	str	r1, [sp, #28]
100032c6:	4693      	mov	fp, r2
100032c8:	4699      	mov	r9, r3
100032ca:	9f20      	ldr	r7, [sp, #128]	; 0x80
100032cc:	9a1e      	ldr	r2, [sp, #120]	; 0x78
100032ce:	9b1f      	ldr	r3, [sp, #124]	; 0x7c
100032d0:	0010      	movs	r0, r2
100032d2:	0019      	movs	r1, r3
100032d4:	f000 ffe7 	bl	100042a6 <__wrap___aeabi_dcmpun>
100032d8:	2800      	cmp	r0, #0
100032da:	d131      	bne.n	10003340 <_ftoa+0x8c>
100032dc:	2201      	movs	r2, #1
100032de:	4252      	negs	r2, r2
100032e0:	4bbf      	ldr	r3, [pc, #764]	; (100035e0 <_ftoa+0x32c>)
100032e2:	981e      	ldr	r0, [sp, #120]	; 0x78
100032e4:	991f      	ldr	r1, [sp, #124]	; 0x7c
100032e6:	f000 ffc3 	bl	10004270 <__wrap___aeabi_dcmplt>
100032ea:	2800      	cmp	r0, #0
100032ec:	d137      	bne.n	1000335e <_ftoa+0xaa>
100032ee:	2201      	movs	r2, #1
100032f0:	4252      	negs	r2, r2
100032f2:	4bbc      	ldr	r3, [pc, #752]	; (100035e4 <_ftoa+0x330>)
100032f4:	981e      	ldr	r0, [sp, #120]	; 0x78
100032f6:	991f      	ldr	r1, [sp, #124]	; 0x7c
100032f8:	f000 ffd0 	bl	1000429c <__wrap___aeabi_dcmpgt>
100032fc:	2800      	cmp	r0, #0
100032fe:	d13d      	bne.n	1000337c <_ftoa+0xc8>
10003300:	2200      	movs	r2, #0
10003302:	4bb9      	ldr	r3, [pc, #740]	; (100035e8 <_ftoa+0x334>)
10003304:	981e      	ldr	r0, [sp, #120]	; 0x78
10003306:	991f      	ldr	r1, [sp, #124]	; 0x7c
10003308:	f000 ffc8 	bl	1000429c <__wrap___aeabi_dcmpgt>
1000330c:	2800      	cmp	r0, #0
1000330e:	d150      	bne.n	100033b2 <_ftoa+0xfe>
10003310:	2200      	movs	r2, #0
10003312:	4bb6      	ldr	r3, [pc, #728]	; (100035ec <_ftoa+0x338>)
10003314:	981e      	ldr	r0, [sp, #120]	; 0x78
10003316:	991f      	ldr	r1, [sp, #124]	; 0x7c
10003318:	f000 ffaa 	bl	10004270 <__wrap___aeabi_dcmplt>
1000331c:	2800      	cmp	r0, #0
1000331e:	d148      	bne.n	100033b2 <_ftoa+0xfe>
10003320:	2200      	movs	r2, #0
10003322:	2300      	movs	r3, #0
10003324:	981e      	ldr	r0, [sp, #120]	; 0x78
10003326:	991f      	ldr	r1, [sp, #124]	; 0x7c
10003328:	f000 ffa2 	bl	10004270 <__wrap___aeabi_dcmplt>
1000332c:	2800      	cmp	r0, #0
1000332e:	d150      	bne.n	100033d2 <_ftoa+0x11e>
10003330:	2300      	movs	r3, #0
10003332:	4698      	mov	r8, r3
10003334:	9b22      	ldr	r3, [sp, #136]	; 0x88
10003336:	055b      	lsls	r3, r3, #21
10003338:	d400      	bmi.n	1000333c <_ftoa+0x88>
1000333a:	e0b6      	b.n	100034aa <_ftoa+0x1f6>
1000333c:	2400      	movs	r4, #0
1000333e:	e058      	b.n	100033f2 <_ftoa+0x13e>
10003340:	9b22      	ldr	r3, [sp, #136]	; 0x88
10003342:	9303      	str	r3, [sp, #12]
10003344:	9b21      	ldr	r3, [sp, #132]	; 0x84
10003346:	9302      	str	r3, [sp, #8]
10003348:	2303      	movs	r3, #3
1000334a:	9301      	str	r3, [sp, #4]
1000334c:	4ba8      	ldr	r3, [pc, #672]	; (100035f0 <_ftoa+0x33c>)
1000334e:	9300      	str	r3, [sp, #0]
10003350:	464b      	mov	r3, r9
10003352:	465a      	mov	r2, fp
10003354:	9907      	ldr	r1, [sp, #28]
10003356:	9806      	ldr	r0, [sp, #24]
10003358:	f7ff fbf8 	bl	10002b4c <_out_rev>
1000335c:	e10e      	b.n	1000357c <_ftoa+0x2c8>
1000335e:	9b22      	ldr	r3, [sp, #136]	; 0x88
10003360:	9303      	str	r3, [sp, #12]
10003362:	9b21      	ldr	r3, [sp, #132]	; 0x84
10003364:	9302      	str	r3, [sp, #8]
10003366:	2304      	movs	r3, #4
10003368:	9301      	str	r3, [sp, #4]
1000336a:	4ba2      	ldr	r3, [pc, #648]	; (100035f4 <_ftoa+0x340>)
1000336c:	9300      	str	r3, [sp, #0]
1000336e:	464b      	mov	r3, r9
10003370:	465a      	mov	r2, fp
10003372:	9907      	ldr	r1, [sp, #28]
10003374:	9806      	ldr	r0, [sp, #24]
10003376:	f7ff fbe9 	bl	10002b4c <_out_rev>
1000337a:	e0ff      	b.n	1000357c <_ftoa+0x2c8>
1000337c:	2304      	movs	r3, #4
1000337e:	9a22      	ldr	r2, [sp, #136]	; 0x88
10003380:	401a      	ands	r2, r3
10003382:	9922      	ldr	r1, [sp, #136]	; 0x88
10003384:	420b      	tst	r3, r1
10003386:	d010      	beq.n	100033aa <_ftoa+0xf6>
10003388:	4b9b      	ldr	r3, [pc, #620]	; (100035f8 <_ftoa+0x344>)
1000338a:	2a00      	cmp	r2, #0
1000338c:	d00f      	beq.n	100033ae <_ftoa+0xfa>
1000338e:	2204      	movs	r2, #4
10003390:	9922      	ldr	r1, [sp, #136]	; 0x88
10003392:	9103      	str	r1, [sp, #12]
10003394:	9921      	ldr	r1, [sp, #132]	; 0x84
10003396:	9102      	str	r1, [sp, #8]
10003398:	9201      	str	r2, [sp, #4]
1000339a:	9300      	str	r3, [sp, #0]
1000339c:	464b      	mov	r3, r9
1000339e:	465a      	mov	r2, fp
100033a0:	9907      	ldr	r1, [sp, #28]
100033a2:	9806      	ldr	r0, [sp, #24]
100033a4:	f7ff fbd2 	bl	10002b4c <_out_rev>
100033a8:	e0e8      	b.n	1000357c <_ftoa+0x2c8>
100033aa:	4b94      	ldr	r3, [pc, #592]	; (100035fc <_ftoa+0x348>)
100033ac:	e7ed      	b.n	1000338a <_ftoa+0xd6>
100033ae:	2203      	movs	r2, #3
100033b0:	e7ee      	b.n	10003390 <_ftoa+0xdc>
100033b2:	9b22      	ldr	r3, [sp, #136]	; 0x88
100033b4:	9304      	str	r3, [sp, #16]
100033b6:	9b21      	ldr	r3, [sp, #132]	; 0x84
100033b8:	9303      	str	r3, [sp, #12]
100033ba:	9702      	str	r7, [sp, #8]
100033bc:	9b1e      	ldr	r3, [sp, #120]	; 0x78
100033be:	9c1f      	ldr	r4, [sp, #124]	; 0x7c
100033c0:	9300      	str	r3, [sp, #0]
100033c2:	9401      	str	r4, [sp, #4]
100033c4:	464b      	mov	r3, r9
100033c6:	465a      	mov	r2, fp
100033c8:	9907      	ldr	r1, [sp, #28]
100033ca:	9806      	ldr	r0, [sp, #24]
100033cc:	f7ff fd6c 	bl	10002ea8 <_etoa>
100033d0:	e0d4      	b.n	1000357c <_ftoa+0x2c8>
100033d2:	9a1e      	ldr	r2, [sp, #120]	; 0x78
100033d4:	9b1f      	ldr	r3, [sp, #124]	; 0x7c
100033d6:	2000      	movs	r0, #0
100033d8:	2100      	movs	r1, #0
100033da:	f000 fed6 	bl	1000418a <__wrap___aeabi_dsub>
100033de:	901e      	str	r0, [sp, #120]	; 0x78
100033e0:	911f      	str	r1, [sp, #124]	; 0x7c
100033e2:	2301      	movs	r3, #1
100033e4:	4698      	mov	r8, r3
100033e6:	e7a5      	b.n	10003334 <_ftoa+0x80>
100033e8:	ab0c      	add	r3, sp, #48	; 0x30
100033ea:	2230      	movs	r2, #48	; 0x30
100033ec:	551a      	strb	r2, [r3, r4]
100033ee:	3f01      	subs	r7, #1
100033f0:	3401      	adds	r4, #1
100033f2:	2c1f      	cmp	r4, #31
100033f4:	d801      	bhi.n	100033fa <_ftoa+0x146>
100033f6:	2f09      	cmp	r7, #9
100033f8:	d8f6      	bhi.n	100033e8 <_ftoa+0x134>
100033fa:	981e      	ldr	r0, [sp, #120]	; 0x78
100033fc:	991f      	ldr	r1, [sp, #124]	; 0x7c
100033fe:	f000 ff7d 	bl	100042fc <__wrap___aeabi_d2iz>
10003402:	0005      	movs	r5, r0
10003404:	f000 ff62 	bl	100042cc <__wrap___aeabi_i2d>
10003408:	0002      	movs	r2, r0
1000340a:	000b      	movs	r3, r1
1000340c:	981e      	ldr	r0, [sp, #120]	; 0x78
1000340e:	991f      	ldr	r1, [sp, #124]	; 0x7c
10003410:	f000 febb 	bl	1000418a <__wrap___aeabi_dsub>
10003414:	00fa      	lsls	r2, r7, #3
10003416:	4b7a      	ldr	r3, [pc, #488]	; (10003600 <_ftoa+0x34c>)
10003418:	189b      	adds	r3, r3, r2
1000341a:	681a      	ldr	r2, [r3, #0]
1000341c:	685b      	ldr	r3, [r3, #4]
1000341e:	920a      	str	r2, [sp, #40]	; 0x28
10003420:	930b      	str	r3, [sp, #44]	; 0x2c
10003422:	f000 fee2 	bl	100041ea <__wrap___aeabi_dmul>
10003426:	9008      	str	r0, [sp, #32]
10003428:	9109      	str	r1, [sp, #36]	; 0x24
1000342a:	f000 ff8b 	bl	10004344 <__wrap___aeabi_d2uiz>
1000342e:	0006      	movs	r6, r0
10003430:	f000 ff48 	bl	100042c4 <__wrap___aeabi_ui2d>
10003434:	0002      	movs	r2, r0
10003436:	000b      	movs	r3, r1
10003438:	9808      	ldr	r0, [sp, #32]
1000343a:	9909      	ldr	r1, [sp, #36]	; 0x24
1000343c:	f000 fea5 	bl	1000418a <__wrap___aeabi_dsub>
10003440:	9008      	str	r0, [sp, #32]
10003442:	9109      	str	r1, [sp, #36]	; 0x24
10003444:	2200      	movs	r2, #0
10003446:	4b6f      	ldr	r3, [pc, #444]	; (10003604 <_ftoa+0x350>)
10003448:	f000 ff28 	bl	1000429c <__wrap___aeabi_dcmpgt>
1000344c:	2800      	cmp	r0, #0
1000344e:	d02e      	beq.n	100034ae <_ftoa+0x1fa>
10003450:	3601      	adds	r6, #1
10003452:	0030      	movs	r0, r6
10003454:	f000 ff36 	bl	100042c4 <__wrap___aeabi_ui2d>
10003458:	0002      	movs	r2, r0
1000345a:	000b      	movs	r3, r1
1000345c:	980a      	ldr	r0, [sp, #40]	; 0x28
1000345e:	990b      	ldr	r1, [sp, #44]	; 0x2c
10003460:	f000 ff0c 	bl	1000427c <__wrap___aeabi_dcmple>
10003464:	2800      	cmp	r0, #0
10003466:	d001      	beq.n	1000346c <_ftoa+0x1b8>
10003468:	3501      	adds	r5, #1
1000346a:	2600      	movs	r6, #0
1000346c:	2f00      	cmp	r7, #0
1000346e:	d12c      	bne.n	100034ca <_ftoa+0x216>
10003470:	0028      	movs	r0, r5
10003472:	f000 ff2b 	bl	100042cc <__wrap___aeabi_i2d>
10003476:	0002      	movs	r2, r0
10003478:	000b      	movs	r3, r1
1000347a:	981e      	ldr	r0, [sp, #120]	; 0x78
1000347c:	991f      	ldr	r1, [sp, #124]	; 0x7c
1000347e:	f000 fe84 	bl	1000418a <__wrap___aeabi_dsub>
10003482:	0006      	movs	r6, r0
10003484:	000f      	movs	r7, r1
10003486:	2200      	movs	r2, #0
10003488:	4b5e      	ldr	r3, [pc, #376]	; (10003604 <_ftoa+0x350>)
1000348a:	f000 fef1 	bl	10004270 <__wrap___aeabi_dcmplt>
1000348e:	2800      	cmp	r0, #0
10003490:	d142      	bne.n	10003518 <_ftoa+0x264>
10003492:	2200      	movs	r2, #0
10003494:	4b5b      	ldr	r3, [pc, #364]	; (10003604 <_ftoa+0x350>)
10003496:	0030      	movs	r0, r6
10003498:	0039      	movs	r1, r7
1000349a:	f000 feff 	bl	1000429c <__wrap___aeabi_dcmpgt>
1000349e:	2800      	cmp	r0, #0
100034a0:	d13a      	bne.n	10003518 <_ftoa+0x264>
100034a2:	07eb      	lsls	r3, r5, #31
100034a4:	d538      	bpl.n	10003518 <_ftoa+0x264>
100034a6:	3501      	adds	r5, #1
100034a8:	e036      	b.n	10003518 <_ftoa+0x264>
100034aa:	2706      	movs	r7, #6
100034ac:	e746      	b.n	1000333c <_ftoa+0x88>
100034ae:	2200      	movs	r2, #0
100034b0:	4b54      	ldr	r3, [pc, #336]	; (10003604 <_ftoa+0x350>)
100034b2:	9808      	ldr	r0, [sp, #32]
100034b4:	9909      	ldr	r1, [sp, #36]	; 0x24
100034b6:	f000 fedb 	bl	10004270 <__wrap___aeabi_dcmplt>
100034ba:	2800      	cmp	r0, #0
100034bc:	d1d6      	bne.n	1000346c <_ftoa+0x1b8>
100034be:	2e00      	cmp	r6, #0
100034c0:	d001      	beq.n	100034c6 <_ftoa+0x212>
100034c2:	07f3      	lsls	r3, r6, #31
100034c4:	d5d2      	bpl.n	1000346c <_ftoa+0x1b8>
100034c6:	3601      	adds	r6, #1
100034c8:	e7d0      	b.n	1000346c <_ftoa+0x1b8>
100034ca:	46aa      	mov	sl, r5
100034cc:	2c1f      	cmp	r4, #31
100034ce:	d811      	bhi.n	100034f4 <_ftoa+0x240>
100034d0:	3f01      	subs	r7, #1
100034d2:	210a      	movs	r1, #10
100034d4:	0030      	movs	r0, r6
100034d6:	f000 fc17 	bl	10003d08 <__wrap___aeabi_uidiv>
100034da:	1c65      	adds	r5, r4, #1
100034dc:	3130      	adds	r1, #48	; 0x30
100034de:	ab0c      	add	r3, sp, #48	; 0x30
100034e0:	5519      	strb	r1, [r3, r4]
100034e2:	210a      	movs	r1, #10
100034e4:	0030      	movs	r0, r6
100034e6:	f000 fc0f 	bl	10003d08 <__wrap___aeabi_uidiv>
100034ea:	2e09      	cmp	r6, #9
100034ec:	d926      	bls.n	1000353c <_ftoa+0x288>
100034ee:	0006      	movs	r6, r0
100034f0:	002c      	movs	r4, r5
100034f2:	e7eb      	b.n	100034cc <_ftoa+0x218>
100034f4:	4655      	mov	r5, sl
100034f6:	e004      	b.n	10003502 <_ftoa+0x24e>
100034f8:	aa0c      	add	r2, sp, #48	; 0x30
100034fa:	2130      	movs	r1, #48	; 0x30
100034fc:	5511      	strb	r1, [r2, r4]
100034fe:	001f      	movs	r7, r3
10003500:	3401      	adds	r4, #1
10003502:	2c1f      	cmp	r4, #31
10003504:	d802      	bhi.n	1000350c <_ftoa+0x258>
10003506:	1e7b      	subs	r3, r7, #1
10003508:	2f00      	cmp	r7, #0
1000350a:	d1f5      	bne.n	100034f8 <_ftoa+0x244>
1000350c:	2c1f      	cmp	r4, #31
1000350e:	d803      	bhi.n	10003518 <_ftoa+0x264>
10003510:	ab0c      	add	r3, sp, #48	; 0x30
10003512:	222e      	movs	r2, #46	; 0x2e
10003514:	551a      	strb	r2, [r3, r4]
10003516:	3401      	adds	r4, #1
10003518:	2c1f      	cmp	r4, #31
1000351a:	d814      	bhi.n	10003546 <_ftoa+0x292>
1000351c:	210a      	movs	r1, #10
1000351e:	0028      	movs	r0, r5
10003520:	f000 fbca 	bl	10003cb8 <__wrap___aeabi_idiv>
10003524:	1c66      	adds	r6, r4, #1
10003526:	3130      	adds	r1, #48	; 0x30
10003528:	ab0c      	add	r3, sp, #48	; 0x30
1000352a:	5519      	strb	r1, [r3, r4]
1000352c:	210a      	movs	r1, #10
1000352e:	0028      	movs	r0, r5
10003530:	f000 fbc2 	bl	10003cb8 <__wrap___aeabi_idiv>
10003534:	1e05      	subs	r5, r0, #0
10003536:	d005      	beq.n	10003544 <_ftoa+0x290>
10003538:	0034      	movs	r4, r6
1000353a:	e7ed      	b.n	10003518 <_ftoa+0x264>
1000353c:	002b      	movs	r3, r5
1000353e:	4655      	mov	r5, sl
10003540:	001c      	movs	r4, r3
10003542:	e7de      	b.n	10003502 <_ftoa+0x24e>
10003544:	0034      	movs	r4, r6
10003546:	2303      	movs	r3, #3
10003548:	9a22      	ldr	r2, [sp, #136]	; 0x88
1000354a:	4013      	ands	r3, r2
1000354c:	2b01      	cmp	r3, #1
1000354e:	d01c      	beq.n	1000358a <_ftoa+0x2d6>
10003550:	2c1f      	cmp	r4, #31
10003552:	d806      	bhi.n	10003562 <_ftoa+0x2ae>
10003554:	4643      	mov	r3, r8
10003556:	2b00      	cmp	r3, #0
10003558:	d032      	beq.n	100035c0 <_ftoa+0x30c>
1000355a:	ab0c      	add	r3, sp, #48	; 0x30
1000355c:	222d      	movs	r2, #45	; 0x2d
1000355e:	551a      	strb	r2, [r3, r4]
10003560:	3401      	adds	r4, #1
10003562:	9b22      	ldr	r3, [sp, #136]	; 0x88
10003564:	9303      	str	r3, [sp, #12]
10003566:	9b21      	ldr	r3, [sp, #132]	; 0x84
10003568:	9302      	str	r3, [sp, #8]
1000356a:	9401      	str	r4, [sp, #4]
1000356c:	ab0c      	add	r3, sp, #48	; 0x30
1000356e:	9300      	str	r3, [sp, #0]
10003570:	464b      	mov	r3, r9
10003572:	465a      	mov	r2, fp
10003574:	9907      	ldr	r1, [sp, #28]
10003576:	9806      	ldr	r0, [sp, #24]
10003578:	f7ff fae8 	bl	10002b4c <_out_rev>
1000357c:	b015      	add	sp, #84	; 0x54
1000357e:	bc3c      	pop	{r2, r3, r4, r5}
10003580:	4690      	mov	r8, r2
10003582:	4699      	mov	r9, r3
10003584:	46a2      	mov	sl, r4
10003586:	46ab      	mov	fp, r5
10003588:	bdf0      	pop	{r4, r5, r6, r7, pc}
1000358a:	9b21      	ldr	r3, [sp, #132]	; 0x84
1000358c:	2b00      	cmp	r3, #0
1000358e:	d013      	beq.n	100035b8 <_ftoa+0x304>
10003590:	4643      	mov	r3, r8
10003592:	2b00      	cmp	r3, #0
10003594:	d102      	bne.n	1000359c <_ftoa+0x2e8>
10003596:	330c      	adds	r3, #12
10003598:	4213      	tst	r3, r2
1000359a:	d00f      	beq.n	100035bc <_ftoa+0x308>
1000359c:	9b21      	ldr	r3, [sp, #132]	; 0x84
1000359e:	3b01      	subs	r3, #1
100035a0:	9321      	str	r3, [sp, #132]	; 0x84
100035a2:	0019      	movs	r1, r3
100035a4:	e003      	b.n	100035ae <_ftoa+0x2fa>
100035a6:	ab0c      	add	r3, sp, #48	; 0x30
100035a8:	2230      	movs	r2, #48	; 0x30
100035aa:	551a      	strb	r2, [r3, r4]
100035ac:	3401      	adds	r4, #1
100035ae:	428c      	cmp	r4, r1
100035b0:	d2ce      	bcs.n	10003550 <_ftoa+0x29c>
100035b2:	2c1f      	cmp	r4, #31
100035b4:	d9f7      	bls.n	100035a6 <_ftoa+0x2f2>
100035b6:	e7cb      	b.n	10003550 <_ftoa+0x29c>
100035b8:	9921      	ldr	r1, [sp, #132]	; 0x84
100035ba:	e7f8      	b.n	100035ae <_ftoa+0x2fa>
100035bc:	9921      	ldr	r1, [sp, #132]	; 0x84
100035be:	e7f6      	b.n	100035ae <_ftoa+0x2fa>
100035c0:	9b22      	ldr	r3, [sp, #136]	; 0x88
100035c2:	075b      	lsls	r3, r3, #29
100035c4:	d504      	bpl.n	100035d0 <_ftoa+0x31c>
100035c6:	ab0c      	add	r3, sp, #48	; 0x30
100035c8:	222b      	movs	r2, #43	; 0x2b
100035ca:	551a      	strb	r2, [r3, r4]
100035cc:	3401      	adds	r4, #1
100035ce:	e7c8      	b.n	10003562 <_ftoa+0x2ae>
100035d0:	9b22      	ldr	r3, [sp, #136]	; 0x88
100035d2:	071b      	lsls	r3, r3, #28
100035d4:	d5c5      	bpl.n	10003562 <_ftoa+0x2ae>
100035d6:	ab0c      	add	r3, sp, #48	; 0x30
100035d8:	2220      	movs	r2, #32
100035da:	551a      	strb	r2, [r3, r4]
100035dc:	3401      	adds	r4, #1
100035de:	e7c0      	b.n	10003562 <_ftoa+0x2ae>
100035e0:	ffefffff 	.word	0xffefffff
100035e4:	7fefffff 	.word	0x7fefffff
100035e8:	41cdcd65 	.word	0x41cdcd65
100035ec:	c1cdcd65 	.word	0xc1cdcd65
100035f0:	100060b0 	.word	0x100060b0
100035f4:	100060b4 	.word	0x100060b4
100035f8:	100060a8 	.word	0x100060a8
100035fc:	100060a4 	.word	0x100060a4
10003600:	100062a0 	.word	0x100062a0
10003604:	3fe00000 	.word	0x3fe00000

10003608 <_vsnprintf>:
10003608:	b5f0      	push	{r4, r5, r6, r7, lr}
1000360a:	46de      	mov	lr, fp
1000360c:	4657      	mov	r7, sl
1000360e:	464e      	mov	r6, r9
10003610:	4645      	mov	r5, r8
10003612:	b5e0      	push	{r5, r6, r7, lr}
10003614:	b093      	sub	sp, #76	; 0x4c
10003616:	4682      	mov	sl, r0
10003618:	468b      	mov	fp, r1
1000361a:	4690      	mov	r8, r2
1000361c:	9311      	str	r3, [sp, #68]	; 0x44
1000361e:	2900      	cmp	r1, #0
10003620:	d100      	bne.n	10003624 <_vsnprintf+0x1c>
10003622:	e2ec      	b.n	10003bfe <_vsnprintf+0x5f6>
10003624:	2700      	movs	r7, #0
10003626:	4655      	mov	r5, sl
10003628:	9b11      	ldr	r3, [sp, #68]	; 0x44
1000362a:	7818      	ldrb	r0, [r3, #0]
1000362c:	2800      	cmp	r0, #0
1000362e:	d100      	bne.n	10003632 <_vsnprintf+0x2a>
10003630:	e2e8      	b.n	10003c04 <_vsnprintf+0x5fc>
10003632:	2825      	cmp	r0, #37	; 0x25
10003634:	d009      	beq.n	1000364a <_vsnprintf+0x42>
10003636:	1c7c      	adds	r4, r7, #1
10003638:	4643      	mov	r3, r8
1000363a:	003a      	movs	r2, r7
1000363c:	4659      	mov	r1, fp
1000363e:	47a8      	blx	r5
10003640:	9b11      	ldr	r3, [sp, #68]	; 0x44
10003642:	3301      	adds	r3, #1
10003644:	9311      	str	r3, [sp, #68]	; 0x44
10003646:	0027      	movs	r7, r4
10003648:	e7ee      	b.n	10003628 <_vsnprintf+0x20>
1000364a:	3301      	adds	r3, #1
1000364c:	9311      	str	r3, [sp, #68]	; 0x44
1000364e:	2400      	movs	r4, #0
10003650:	e01d      	b.n	1000368e <_vsnprintf+0x86>
10003652:	000b      	movs	r3, r1
10003654:	3b30      	subs	r3, #48	; 0x30
10003656:	b2db      	uxtb	r3, r3
10003658:	2b09      	cmp	r3, #9
1000365a:	d937      	bls.n	100036cc <_vsnprintf+0xc4>
1000365c:	292a      	cmp	r1, #42	; 0x2a
1000365e:	d03a      	beq.n	100036d6 <_vsnprintf+0xce>
10003660:	2300      	movs	r3, #0
10003662:	930a      	str	r3, [sp, #40]	; 0x28
10003664:	9b11      	ldr	r3, [sp, #68]	; 0x44
10003666:	781a      	ldrb	r2, [r3, #0]
10003668:	2a2e      	cmp	r2, #46	; 0x2e
1000366a:	d044      	beq.n	100036f6 <_vsnprintf+0xee>
1000366c:	2300      	movs	r3, #0
1000366e:	469a      	mov	sl, r3
10003670:	9a11      	ldr	r2, [sp, #68]	; 0x44
10003672:	7813      	ldrb	r3, [r2, #0]
10003674:	3b68      	subs	r3, #104	; 0x68
10003676:	b2d9      	uxtb	r1, r3
10003678:	2912      	cmp	r1, #18
1000367a:	d900      	bls.n	1000367e <_vsnprintf+0x76>
1000367c:	e080      	b.n	10003780 <_vsnprintf+0x178>
1000367e:	008b      	lsls	r3, r1, #2
10003680:	49cb      	ldr	r1, [pc, #812]	; (100039b0 <_vsnprintf+0x3a8>)
10003682:	58cb      	ldr	r3, [r1, r3]
10003684:	469f      	mov	pc, r3
10003686:	2301      	movs	r3, #1
10003688:	431c      	orrs	r4, r3
1000368a:	3201      	adds	r2, #1
1000368c:	9211      	str	r2, [sp, #68]	; 0x44
1000368e:	9a11      	ldr	r2, [sp, #68]	; 0x44
10003690:	7811      	ldrb	r1, [r2, #0]
10003692:	000b      	movs	r3, r1
10003694:	3b20      	subs	r3, #32
10003696:	b2d8      	uxtb	r0, r3
10003698:	2810      	cmp	r0, #16
1000369a:	d8da      	bhi.n	10003652 <_vsnprintf+0x4a>
1000369c:	0083      	lsls	r3, r0, #2
1000369e:	48c5      	ldr	r0, [pc, #788]	; (100039b4 <_vsnprintf+0x3ac>)
100036a0:	58c3      	ldr	r3, [r0, r3]
100036a2:	469f      	mov	pc, r3
100036a4:	2302      	movs	r3, #2
100036a6:	431c      	orrs	r4, r3
100036a8:	3201      	adds	r2, #1
100036aa:	9211      	str	r2, [sp, #68]	; 0x44
100036ac:	e7ef      	b.n	1000368e <_vsnprintf+0x86>
100036ae:	2304      	movs	r3, #4
100036b0:	431c      	orrs	r4, r3
100036b2:	3201      	adds	r2, #1
100036b4:	9211      	str	r2, [sp, #68]	; 0x44
100036b6:	e7ea      	b.n	1000368e <_vsnprintf+0x86>
100036b8:	2308      	movs	r3, #8
100036ba:	431c      	orrs	r4, r3
100036bc:	3201      	adds	r2, #1
100036be:	9211      	str	r2, [sp, #68]	; 0x44
100036c0:	e7e5      	b.n	1000368e <_vsnprintf+0x86>
100036c2:	2310      	movs	r3, #16
100036c4:	431c      	orrs	r4, r3
100036c6:	3201      	adds	r2, #1
100036c8:	9211      	str	r2, [sp, #68]	; 0x44
100036ca:	e7e0      	b.n	1000368e <_vsnprintf+0x86>
100036cc:	a811      	add	r0, sp, #68	; 0x44
100036ce:	f7ff fa2b 	bl	10002b28 <_atoi>
100036d2:	900a      	str	r0, [sp, #40]	; 0x28
100036d4:	e7c6      	b.n	10003664 <_vsnprintf+0x5c>
100036d6:	9b1c      	ldr	r3, [sp, #112]	; 0x70
100036d8:	1d1a      	adds	r2, r3, #4
100036da:	921c      	str	r2, [sp, #112]	; 0x70
100036dc:	6818      	ldr	r0, [r3, #0]
100036de:	2800      	cmp	r0, #0
100036e0:	db04      	blt.n	100036ec <_vsnprintf+0xe4>
100036e2:	900a      	str	r0, [sp, #40]	; 0x28
100036e4:	9b11      	ldr	r3, [sp, #68]	; 0x44
100036e6:	3301      	adds	r3, #1
100036e8:	9311      	str	r3, [sp, #68]	; 0x44
100036ea:	e7bb      	b.n	10003664 <_vsnprintf+0x5c>
100036ec:	2302      	movs	r3, #2
100036ee:	431c      	orrs	r4, r3
100036f0:	4243      	negs	r3, r0
100036f2:	930a      	str	r3, [sp, #40]	; 0x28
100036f4:	e7f6      	b.n	100036e4 <_vsnprintf+0xdc>
100036f6:	2280      	movs	r2, #128	; 0x80
100036f8:	00d2      	lsls	r2, r2, #3
100036fa:	4314      	orrs	r4, r2
100036fc:	1c5a      	adds	r2, r3, #1
100036fe:	9211      	str	r2, [sp, #68]	; 0x44
10003700:	785a      	ldrb	r2, [r3, #1]
10003702:	0013      	movs	r3, r2
10003704:	3b30      	subs	r3, #48	; 0x30
10003706:	b2db      	uxtb	r3, r3
10003708:	2b09      	cmp	r3, #9
1000370a:	d904      	bls.n	10003716 <_vsnprintf+0x10e>
1000370c:	2a2a      	cmp	r2, #42	; 0x2a
1000370e:	d007      	beq.n	10003720 <_vsnprintf+0x118>
10003710:	2300      	movs	r3, #0
10003712:	469a      	mov	sl, r3
10003714:	e7ac      	b.n	10003670 <_vsnprintf+0x68>
10003716:	a811      	add	r0, sp, #68	; 0x44
10003718:	f7ff fa06 	bl	10002b28 <_atoi>
1000371c:	4682      	mov	sl, r0
1000371e:	e7a7      	b.n	10003670 <_vsnprintf+0x68>
10003720:	9b1c      	ldr	r3, [sp, #112]	; 0x70
10003722:	1d1a      	adds	r2, r3, #4
10003724:	921c      	str	r2, [sp, #112]	; 0x70
10003726:	6818      	ldr	r0, [r3, #0]
10003728:	2800      	cmp	r0, #0
1000372a:	db04      	blt.n	10003736 <_vsnprintf+0x12e>
1000372c:	4682      	mov	sl, r0
1000372e:	9b11      	ldr	r3, [sp, #68]	; 0x44
10003730:	3301      	adds	r3, #1
10003732:	9311      	str	r3, [sp, #68]	; 0x44
10003734:	e79c      	b.n	10003670 <_vsnprintf+0x68>
10003736:	2000      	movs	r0, #0
10003738:	e7f8      	b.n	1000372c <_vsnprintf+0x124>
1000373a:	2380      	movs	r3, #128	; 0x80
1000373c:	005b      	lsls	r3, r3, #1
1000373e:	4323      	orrs	r3, r4
10003740:	1c51      	adds	r1, r2, #1
10003742:	9111      	str	r1, [sp, #68]	; 0x44
10003744:	7852      	ldrb	r2, [r2, #1]
10003746:	2a6c      	cmp	r2, #108	; 0x6c
10003748:	d001      	beq.n	1000374e <_vsnprintf+0x146>
1000374a:	001c      	movs	r4, r3
1000374c:	e018      	b.n	10003780 <_vsnprintf+0x178>
1000374e:	23c0      	movs	r3, #192	; 0xc0
10003750:	009b      	lsls	r3, r3, #2
10003752:	431c      	orrs	r4, r3
10003754:	3101      	adds	r1, #1
10003756:	9111      	str	r1, [sp, #68]	; 0x44
10003758:	e012      	b.n	10003780 <_vsnprintf+0x178>
1000375a:	2380      	movs	r3, #128	; 0x80
1000375c:	4323      	orrs	r3, r4
1000375e:	1c51      	adds	r1, r2, #1
10003760:	9111      	str	r1, [sp, #68]	; 0x44
10003762:	7852      	ldrb	r2, [r2, #1]
10003764:	2a68      	cmp	r2, #104	; 0x68
10003766:	d001      	beq.n	1000376c <_vsnprintf+0x164>
10003768:	001c      	movs	r4, r3
1000376a:	e009      	b.n	10003780 <_vsnprintf+0x178>
1000376c:	23c0      	movs	r3, #192	; 0xc0
1000376e:	431c      	orrs	r4, r3
10003770:	3101      	adds	r1, #1
10003772:	9111      	str	r1, [sp, #68]	; 0x44
10003774:	e004      	b.n	10003780 <_vsnprintf+0x178>
10003776:	2380      	movs	r3, #128	; 0x80
10003778:	005b      	lsls	r3, r3, #1
1000377a:	431c      	orrs	r4, r3
1000377c:	3201      	adds	r2, #1
1000377e:	9211      	str	r2, [sp, #68]	; 0x44
10003780:	9b11      	ldr	r3, [sp, #68]	; 0x44
10003782:	7818      	ldrb	r0, [r3, #0]
10003784:	0003      	movs	r3, r0
10003786:	3b25      	subs	r3, #37	; 0x25
10003788:	b2da      	uxtb	r2, r3
1000378a:	2a53      	cmp	r2, #83	; 0x53
1000378c:	d900      	bls.n	10003790 <_vsnprintf+0x188>
1000378e:	e22c      	b.n	10003bea <_vsnprintf+0x5e2>
10003790:	0093      	lsls	r3, r2, #2
10003792:	4a89      	ldr	r2, [pc, #548]	; (100039b8 <_vsnprintf+0x3b0>)
10003794:	58d3      	ldr	r3, [r2, r3]
10003796:	469f      	mov	pc, r3
10003798:	2380      	movs	r3, #128	; 0x80
1000379a:	009b      	lsls	r3, r3, #2
1000379c:	431c      	orrs	r4, r3
1000379e:	3201      	adds	r2, #1
100037a0:	9211      	str	r2, [sp, #68]	; 0x44
100037a2:	e7ed      	b.n	10003780 <_vsnprintf+0x178>
100037a4:	2380      	movs	r3, #128	; 0x80
100037a6:	005b      	lsls	r3, r3, #1
100037a8:	431c      	orrs	r4, r3
100037aa:	3201      	adds	r2, #1
100037ac:	9211      	str	r2, [sp, #68]	; 0x44
100037ae:	e7e7      	b.n	10003780 <_vsnprintf+0x178>
100037b0:	2878      	cmp	r0, #120	; 0x78
100037b2:	d009      	beq.n	100037c8 <_vsnprintf+0x1c0>
100037b4:	2858      	cmp	r0, #88	; 0x58
100037b6:	d038      	beq.n	1000382a <_vsnprintf+0x222>
100037b8:	286f      	cmp	r0, #111	; 0x6f
100037ba:	d038      	beq.n	1000382e <_vsnprintf+0x226>
100037bc:	2862      	cmp	r0, #98	; 0x62
100037be:	d038      	beq.n	10003832 <_vsnprintf+0x22a>
100037c0:	2310      	movs	r3, #16
100037c2:	439c      	bics	r4, r3
100037c4:	260a      	movs	r6, #10
100037c6:	e000      	b.n	100037ca <_vsnprintf+0x1c2>
100037c8:	2610      	movs	r6, #16
100037ca:	2858      	cmp	r0, #88	; 0x58
100037cc:	d033      	beq.n	10003836 <_vsnprintf+0x22e>
100037ce:	2869      	cmp	r0, #105	; 0x69
100037d0:	d003      	beq.n	100037da <_vsnprintf+0x1d2>
100037d2:	2864      	cmp	r0, #100	; 0x64
100037d4:	d001      	beq.n	100037da <_vsnprintf+0x1d2>
100037d6:	220c      	movs	r2, #12
100037d8:	4394      	bics	r4, r2
100037da:	0563      	lsls	r3, r4, #21
100037dc:	d501      	bpl.n	100037e2 <_vsnprintf+0x1da>
100037de:	2201      	movs	r2, #1
100037e0:	4394      	bics	r4, r2
100037e2:	2869      	cmp	r0, #105	; 0x69
100037e4:	d02a      	beq.n	1000383c <_vsnprintf+0x234>
100037e6:	2864      	cmp	r0, #100	; 0x64
100037e8:	d028      	beq.n	1000383c <_vsnprintf+0x234>
100037ea:	05a3      	lsls	r3, r4, #22
100037ec:	d500      	bpl.n	100037f0 <_vsnprintf+0x1e8>
100037ee:	e09f      	b.n	10003930 <_vsnprintf+0x328>
100037f0:	05e3      	lsls	r3, r4, #23
100037f2:	d500      	bpl.n	100037f6 <_vsnprintf+0x1ee>
100037f4:	e0b8      	b.n	10003968 <_vsnprintf+0x360>
100037f6:	0663      	lsls	r3, r4, #25
100037f8:	d400      	bmi.n	100037fc <_vsnprintf+0x1f4>
100037fa:	e0ca      	b.n	10003992 <_vsnprintf+0x38a>
100037fc:	9a1c      	ldr	r2, [sp, #112]	; 0x70
100037fe:	1d11      	adds	r1, r2, #4
10003800:	911c      	str	r1, [sp, #112]	; 0x70
10003802:	6811      	ldr	r1, [r2, #0]
10003804:	22ff      	movs	r2, #255	; 0xff
10003806:	400a      	ands	r2, r1
10003808:	9405      	str	r4, [sp, #20]
1000380a:	9b0a      	ldr	r3, [sp, #40]	; 0x28
1000380c:	9304      	str	r3, [sp, #16]
1000380e:	4653      	mov	r3, sl
10003810:	9303      	str	r3, [sp, #12]
10003812:	9602      	str	r6, [sp, #8]
10003814:	2300      	movs	r3, #0
10003816:	9301      	str	r3, [sp, #4]
10003818:	9200      	str	r2, [sp, #0]
1000381a:	4643      	mov	r3, r8
1000381c:	003a      	movs	r2, r7
1000381e:	4659      	mov	r1, fp
10003820:	0028      	movs	r0, r5
10003822:	f7ff fa72 	bl	10002d0a <_ntoa_long>
10003826:	0007      	movs	r7, r0
10003828:	e027      	b.n	1000387a <_vsnprintf+0x272>
1000382a:	2610      	movs	r6, #16
1000382c:	e7cd      	b.n	100037ca <_vsnprintf+0x1c2>
1000382e:	2608      	movs	r6, #8
10003830:	e7cb      	b.n	100037ca <_vsnprintf+0x1c2>
10003832:	2602      	movs	r6, #2
10003834:	e7c9      	b.n	100037ca <_vsnprintf+0x1c2>
10003836:	2220      	movs	r2, #32
10003838:	4314      	orrs	r4, r2
1000383a:	e7c8      	b.n	100037ce <_vsnprintf+0x1c6>
1000383c:	05a3      	lsls	r3, r4, #22
1000383e:	d420      	bmi.n	10003882 <_vsnprintf+0x27a>
10003840:	05e3      	lsls	r3, r4, #23
10003842:	d450      	bmi.n	100038e6 <_vsnprintf+0x2de>
10003844:	0663      	lsls	r3, r4, #25
10003846:	d566      	bpl.n	10003916 <_vsnprintf+0x30e>
10003848:	9a1c      	ldr	r2, [sp, #112]	; 0x70
1000384a:	1d11      	adds	r1, r2, #4
1000384c:	911c      	str	r1, [sp, #112]	; 0x70
1000384e:	6811      	ldr	r1, [r2, #0]
10003850:	22ff      	movs	r2, #255	; 0xff
10003852:	400a      	ands	r2, r1
10003854:	17d3      	asrs	r3, r2, #31
10003856:	18d1      	adds	r1, r2, r3
10003858:	4059      	eors	r1, r3
1000385a:	9405      	str	r4, [sp, #20]
1000385c:	9b0a      	ldr	r3, [sp, #40]	; 0x28
1000385e:	9304      	str	r3, [sp, #16]
10003860:	4653      	mov	r3, sl
10003862:	9303      	str	r3, [sp, #12]
10003864:	9602      	str	r6, [sp, #8]
10003866:	0fd2      	lsrs	r2, r2, #31
10003868:	9201      	str	r2, [sp, #4]
1000386a:	9100      	str	r1, [sp, #0]
1000386c:	4643      	mov	r3, r8
1000386e:	003a      	movs	r2, r7
10003870:	4659      	mov	r1, fp
10003872:	0028      	movs	r0, r5
10003874:	f7ff fa49 	bl	10002d0a <_ntoa_long>
10003878:	0007      	movs	r7, r0
1000387a:	9b11      	ldr	r3, [sp, #68]	; 0x44
1000387c:	3301      	adds	r3, #1
1000387e:	9311      	str	r3, [sp, #68]	; 0x44
10003880:	e6d2      	b.n	10003628 <_vsnprintf+0x20>
10003882:	9b1c      	ldr	r3, [sp, #112]	; 0x70
10003884:	1dda      	adds	r2, r3, #7
10003886:	2107      	movs	r1, #7
10003888:	438a      	bics	r2, r1
1000388a:	0011      	movs	r1, r2
1000388c:	3108      	adds	r1, #8
1000388e:	911c      	str	r1, [sp, #112]	; 0x70
10003890:	6811      	ldr	r1, [r2, #0]
10003892:	6853      	ldr	r3, [r2, #4]
10003894:	469c      	mov	ip, r3
10003896:	17db      	asrs	r3, r3, #31
10003898:	930c      	str	r3, [sp, #48]	; 0x30
1000389a:	930d      	str	r3, [sp, #52]	; 0x34
1000389c:	9a0c      	ldr	r2, [sp, #48]	; 0x30
1000389e:	9b0d      	ldr	r3, [sp, #52]	; 0x34
100038a0:	0010      	movs	r0, r2
100038a2:	4048      	eors	r0, r1
100038a4:	900e      	str	r0, [sp, #56]	; 0x38
100038a6:	4662      	mov	r2, ip
100038a8:	4053      	eors	r3, r2
100038aa:	930f      	str	r3, [sp, #60]	; 0x3c
100038ac:	980e      	ldr	r0, [sp, #56]	; 0x38
100038ae:	990f      	ldr	r1, [sp, #60]	; 0x3c
100038b0:	9a0c      	ldr	r2, [sp, #48]	; 0x30
100038b2:	9b0d      	ldr	r3, [sp, #52]	; 0x34
100038b4:	1a80      	subs	r0, r0, r2
100038b6:	4199      	sbcs	r1, r3
100038b8:	900e      	str	r0, [sp, #56]	; 0x38
100038ba:	910f      	str	r1, [sp, #60]	; 0x3c
100038bc:	9408      	str	r4, [sp, #32]
100038be:	9b0a      	ldr	r3, [sp, #40]	; 0x28
100038c0:	9307      	str	r3, [sp, #28]
100038c2:	4653      	mov	r3, sl
100038c4:	9306      	str	r3, [sp, #24]
100038c6:	9604      	str	r6, [sp, #16]
100038c8:	2300      	movs	r3, #0
100038ca:	9305      	str	r3, [sp, #20]
100038cc:	4663      	mov	r3, ip
100038ce:	0fda      	lsrs	r2, r3, #31
100038d0:	9202      	str	r2, [sp, #8]
100038d2:	9000      	str	r0, [sp, #0]
100038d4:	9101      	str	r1, [sp, #4]
100038d6:	4643      	mov	r3, r8
100038d8:	003a      	movs	r2, r7
100038da:	4659      	mov	r1, fp
100038dc:	0028      	movs	r0, r5
100038de:	f7ff fa72 	bl	10002dc6 <_ntoa_long_long>
100038e2:	0007      	movs	r7, r0
100038e4:	e7c9      	b.n	1000387a <_vsnprintf+0x272>
100038e6:	9a1c      	ldr	r2, [sp, #112]	; 0x70
100038e8:	1d11      	adds	r1, r2, #4
100038ea:	911c      	str	r1, [sp, #112]	; 0x70
100038ec:	6812      	ldr	r2, [r2, #0]
100038ee:	17d3      	asrs	r3, r2, #31
100038f0:	18d1      	adds	r1, r2, r3
100038f2:	4059      	eors	r1, r3
100038f4:	9405      	str	r4, [sp, #20]
100038f6:	9b0a      	ldr	r3, [sp, #40]	; 0x28
100038f8:	9304      	str	r3, [sp, #16]
100038fa:	4653      	mov	r3, sl
100038fc:	9303      	str	r3, [sp, #12]
100038fe:	9602      	str	r6, [sp, #8]
10003900:	0fd2      	lsrs	r2, r2, #31
10003902:	9201      	str	r2, [sp, #4]
10003904:	9100      	str	r1, [sp, #0]
10003906:	4643      	mov	r3, r8
10003908:	003a      	movs	r2, r7
1000390a:	4659      	mov	r1, fp
1000390c:	0028      	movs	r0, r5
1000390e:	f7ff f9fc 	bl	10002d0a <_ntoa_long>
10003912:	0007      	movs	r7, r0
10003914:	e7b1      	b.n	1000387a <_vsnprintf+0x272>
10003916:	0623      	lsls	r3, r4, #24
10003918:	d505      	bpl.n	10003926 <_vsnprintf+0x31e>
1000391a:	9a1c      	ldr	r2, [sp, #112]	; 0x70
1000391c:	1d11      	adds	r1, r2, #4
1000391e:	911c      	str	r1, [sp, #112]	; 0x70
10003920:	2300      	movs	r3, #0
10003922:	5ed2      	ldrsh	r2, [r2, r3]
10003924:	e796      	b.n	10003854 <_vsnprintf+0x24c>
10003926:	9a1c      	ldr	r2, [sp, #112]	; 0x70
10003928:	1d11      	adds	r1, r2, #4
1000392a:	911c      	str	r1, [sp, #112]	; 0x70
1000392c:	6812      	ldr	r2, [r2, #0]
1000392e:	e791      	b.n	10003854 <_vsnprintf+0x24c>
10003930:	9b1c      	ldr	r3, [sp, #112]	; 0x70
10003932:	1dda      	adds	r2, r3, #7
10003934:	2107      	movs	r1, #7
10003936:	438a      	bics	r2, r1
10003938:	0011      	movs	r1, r2
1000393a:	3108      	adds	r1, #8
1000393c:	911c      	str	r1, [sp, #112]	; 0x70
1000393e:	9408      	str	r4, [sp, #32]
10003940:	9b0a      	ldr	r3, [sp, #40]	; 0x28
10003942:	9307      	str	r3, [sp, #28]
10003944:	4653      	mov	r3, sl
10003946:	9306      	str	r3, [sp, #24]
10003948:	9604      	str	r6, [sp, #16]
1000394a:	2300      	movs	r3, #0
1000394c:	9305      	str	r3, [sp, #20]
1000394e:	9302      	str	r3, [sp, #8]
10003950:	6813      	ldr	r3, [r2, #0]
10003952:	6854      	ldr	r4, [r2, #4]
10003954:	9300      	str	r3, [sp, #0]
10003956:	9401      	str	r4, [sp, #4]
10003958:	4643      	mov	r3, r8
1000395a:	003a      	movs	r2, r7
1000395c:	4659      	mov	r1, fp
1000395e:	0028      	movs	r0, r5
10003960:	f7ff fa31 	bl	10002dc6 <_ntoa_long_long>
10003964:	0007      	movs	r7, r0
10003966:	e788      	b.n	1000387a <_vsnprintf+0x272>
10003968:	9a1c      	ldr	r2, [sp, #112]	; 0x70
1000396a:	1d11      	adds	r1, r2, #4
1000396c:	911c      	str	r1, [sp, #112]	; 0x70
1000396e:	9405      	str	r4, [sp, #20]
10003970:	9b0a      	ldr	r3, [sp, #40]	; 0x28
10003972:	9304      	str	r3, [sp, #16]
10003974:	4653      	mov	r3, sl
10003976:	9303      	str	r3, [sp, #12]
10003978:	9602      	str	r6, [sp, #8]
1000397a:	2300      	movs	r3, #0
1000397c:	9301      	str	r3, [sp, #4]
1000397e:	6813      	ldr	r3, [r2, #0]
10003980:	9300      	str	r3, [sp, #0]
10003982:	4643      	mov	r3, r8
10003984:	003a      	movs	r2, r7
10003986:	4659      	mov	r1, fp
10003988:	0028      	movs	r0, r5
1000398a:	f7ff f9be 	bl	10002d0a <_ntoa_long>
1000398e:	0007      	movs	r7, r0
10003990:	e773      	b.n	1000387a <_vsnprintf+0x272>
10003992:	0623      	lsls	r3, r4, #24
10003994:	d506      	bpl.n	100039a4 <_vsnprintf+0x39c>
10003996:	9a1c      	ldr	r2, [sp, #112]	; 0x70
10003998:	1d11      	adds	r1, r2, #4
1000399a:	911c      	str	r1, [sp, #112]	; 0x70
1000399c:	6812      	ldr	r2, [r2, #0]
1000399e:	0412      	lsls	r2, r2, #16
100039a0:	0c12      	lsrs	r2, r2, #16
100039a2:	e731      	b.n	10003808 <_vsnprintf+0x200>
100039a4:	9a1c      	ldr	r2, [sp, #112]	; 0x70
100039a6:	1d11      	adds	r1, r2, #4
100039a8:	911c      	str	r1, [sp, #112]	; 0x70
100039aa:	6812      	ldr	r2, [r2, #0]
100039ac:	e72c      	b.n	10003808 <_vsnprintf+0x200>
100039ae:	46c0      	nop			; (mov r8, r8)
100039b0:	100060bc 	.word	0x100060bc
100039b4:	10006108 	.word	0x10006108
100039b8:	1000614c 	.word	0x1000614c
100039bc:	2846      	cmp	r0, #70	; 0x46
100039be:	d01a      	beq.n	100039f6 <_vsnprintf+0x3ee>
100039c0:	9b1c      	ldr	r3, [sp, #112]	; 0x70
100039c2:	3307      	adds	r3, #7
100039c4:	2207      	movs	r2, #7
100039c6:	4393      	bics	r3, r2
100039c8:	001a      	movs	r2, r3
100039ca:	3208      	adds	r2, #8
100039cc:	921c      	str	r2, [sp, #112]	; 0x70
100039ce:	9404      	str	r4, [sp, #16]
100039d0:	9a0a      	ldr	r2, [sp, #40]	; 0x28
100039d2:	9203      	str	r2, [sp, #12]
100039d4:	4652      	mov	r2, sl
100039d6:	9202      	str	r2, [sp, #8]
100039d8:	685c      	ldr	r4, [r3, #4]
100039da:	681b      	ldr	r3, [r3, #0]
100039dc:	9300      	str	r3, [sp, #0]
100039de:	9401      	str	r4, [sp, #4]
100039e0:	4643      	mov	r3, r8
100039e2:	003a      	movs	r2, r7
100039e4:	4659      	mov	r1, fp
100039e6:	0028      	movs	r0, r5
100039e8:	f7ff fc64 	bl	100032b4 <_ftoa>
100039ec:	0007      	movs	r7, r0
100039ee:	9b11      	ldr	r3, [sp, #68]	; 0x44
100039f0:	3301      	adds	r3, #1
100039f2:	9311      	str	r3, [sp, #68]	; 0x44
100039f4:	e618      	b.n	10003628 <_vsnprintf+0x20>
100039f6:	2320      	movs	r3, #32
100039f8:	431c      	orrs	r4, r3
100039fa:	e7e1      	b.n	100039c0 <_vsnprintf+0x3b8>
100039fc:	2867      	cmp	r0, #103	; 0x67
100039fe:	d001      	beq.n	10003a04 <_vsnprintf+0x3fc>
10003a00:	2847      	cmp	r0, #71	; 0x47
10003a02:	d102      	bne.n	10003a0a <_vsnprintf+0x402>
10003a04:	2380      	movs	r3, #128	; 0x80
10003a06:	011b      	lsls	r3, r3, #4
10003a08:	431c      	orrs	r4, r3
10003a0a:	2845      	cmp	r0, #69	; 0x45
10003a0c:	d001      	beq.n	10003a12 <_vsnprintf+0x40a>
10003a0e:	2847      	cmp	r0, #71	; 0x47
10003a10:	d101      	bne.n	10003a16 <_vsnprintf+0x40e>
10003a12:	2320      	movs	r3, #32
10003a14:	431c      	orrs	r4, r3
10003a16:	9b1c      	ldr	r3, [sp, #112]	; 0x70
10003a18:	3307      	adds	r3, #7
10003a1a:	2207      	movs	r2, #7
10003a1c:	4393      	bics	r3, r2
10003a1e:	001a      	movs	r2, r3
10003a20:	3208      	adds	r2, #8
10003a22:	921c      	str	r2, [sp, #112]	; 0x70
10003a24:	9404      	str	r4, [sp, #16]
10003a26:	9a0a      	ldr	r2, [sp, #40]	; 0x28
10003a28:	9203      	str	r2, [sp, #12]
10003a2a:	4652      	mov	r2, sl
10003a2c:	9202      	str	r2, [sp, #8]
10003a2e:	685c      	ldr	r4, [r3, #4]
10003a30:	681b      	ldr	r3, [r3, #0]
10003a32:	9300      	str	r3, [sp, #0]
10003a34:	9401      	str	r4, [sp, #4]
10003a36:	4643      	mov	r3, r8
10003a38:	003a      	movs	r2, r7
10003a3a:	4659      	mov	r1, fp
10003a3c:	0028      	movs	r0, r5
10003a3e:	f7ff fa33 	bl	10002ea8 <_etoa>
10003a42:	0007      	movs	r7, r0
10003a44:	9b11      	ldr	r3, [sp, #68]	; 0x44
10003a46:	3301      	adds	r3, #1
10003a48:	9311      	str	r3, [sp, #68]	; 0x44
10003a4a:	e5ed      	b.n	10003628 <_vsnprintf+0x20>
10003a4c:	2302      	movs	r3, #2
10003a4e:	001a      	movs	r2, r3
10003a50:	4022      	ands	r2, r4
10003a52:	4692      	mov	sl, r2
10003a54:	4223      	tst	r3, r4
10003a56:	d01f      	beq.n	10003a98 <_vsnprintf+0x490>
10003a58:	2401      	movs	r4, #1
10003a5a:	9b1c      	ldr	r3, [sp, #112]	; 0x70
10003a5c:	1d1a      	adds	r2, r3, #4
10003a5e:	921c      	str	r2, [sp, #112]	; 0x70
10003a60:	1c7a      	adds	r2, r7, #1
10003a62:	4691      	mov	r9, r2
10003a64:	7818      	ldrb	r0, [r3, #0]
10003a66:	4643      	mov	r3, r8
10003a68:	003a      	movs	r2, r7
10003a6a:	4659      	mov	r1, fp
10003a6c:	47a8      	blx	r5
10003a6e:	4653      	mov	r3, sl
10003a70:	2b00      	cmp	r3, #0
10003a72:	d116      	bne.n	10003aa2 <_vsnprintf+0x49a>
10003a74:	9b11      	ldr	r3, [sp, #68]	; 0x44
10003a76:	3301      	adds	r3, #1
10003a78:	9311      	str	r3, [sp, #68]	; 0x44
10003a7a:	464f      	mov	r7, r9
10003a7c:	e5d4      	b.n	10003628 <_vsnprintf+0x20>
10003a7e:	1c56      	adds	r6, r2, #1
10003a80:	4643      	mov	r3, r8
10003a82:	4659      	mov	r1, fp
10003a84:	2020      	movs	r0, #32
10003a86:	47b8      	blx	r7
10003a88:	0023      	movs	r3, r4
10003a8a:	0032      	movs	r2, r6
10003a8c:	1c5c      	adds	r4, r3, #1
10003a8e:	429d      	cmp	r5, r3
10003a90:	d8f5      	bhi.n	10003a7e <_vsnprintf+0x476>
10003a92:	003d      	movs	r5, r7
10003a94:	0017      	movs	r7, r2
10003a96:	e7e0      	b.n	10003a5a <_vsnprintf+0x452>
10003a98:	2301      	movs	r3, #1
10003a9a:	003a      	movs	r2, r7
10003a9c:	002f      	movs	r7, r5
10003a9e:	9d0a      	ldr	r5, [sp, #40]	; 0x28
10003aa0:	e7f4      	b.n	10003a8c <_vsnprintf+0x484>
10003aa2:	464a      	mov	r2, r9
10003aa4:	46a9      	mov	r9, r5
10003aa6:	9d0a      	ldr	r5, [sp, #40]	; 0x28
10003aa8:	e006      	b.n	10003ab8 <_vsnprintf+0x4b0>
10003aaa:	1c57      	adds	r7, r2, #1
10003aac:	4643      	mov	r3, r8
10003aae:	4659      	mov	r1, fp
10003ab0:	2020      	movs	r0, #32
10003ab2:	47c8      	blx	r9
10003ab4:	0034      	movs	r4, r6
10003ab6:	003a      	movs	r2, r7
10003ab8:	1c66      	adds	r6, r4, #1
10003aba:	42a5      	cmp	r5, r4
10003abc:	d8f5      	bhi.n	10003aaa <_vsnprintf+0x4a2>
10003abe:	464d      	mov	r5, r9
10003ac0:	4691      	mov	r9, r2
10003ac2:	e7d7      	b.n	10003a74 <_vsnprintf+0x46c>
10003ac4:	9b1c      	ldr	r3, [sp, #112]	; 0x70
10003ac6:	1d1a      	adds	r2, r3, #4
10003ac8:	921c      	str	r2, [sp, #112]	; 0x70
10003aca:	681b      	ldr	r3, [r3, #0]
10003acc:	4699      	mov	r9, r3
10003ace:	4653      	mov	r3, sl
10003ad0:	2b00      	cmp	r3, #0
10003ad2:	d100      	bne.n	10003ad6 <_vsnprintf+0x4ce>
10003ad4:	3b01      	subs	r3, #1
10003ad6:	464e      	mov	r6, r9
10003ad8:	e001      	b.n	10003ade <_vsnprintf+0x4d6>
10003ada:	3601      	adds	r6, #1
10003adc:	0013      	movs	r3, r2
10003ade:	7832      	ldrb	r2, [r6, #0]
10003ae0:	2a00      	cmp	r2, #0
10003ae2:	d002      	beq.n	10003aea <_vsnprintf+0x4e2>
10003ae4:	1e5a      	subs	r2, r3, #1
10003ae6:	2b00      	cmp	r3, #0
10003ae8:	d1f7      	bne.n	10003ada <_vsnprintf+0x4d2>
10003aea:	464b      	mov	r3, r9
10003aec:	1af2      	subs	r2, r6, r3
10003aee:	9210      	str	r2, [sp, #64]	; 0x40
10003af0:	2380      	movs	r3, #128	; 0x80
10003af2:	00db      	lsls	r3, r3, #3
10003af4:	0026      	movs	r6, r4
10003af6:	401e      	ands	r6, r3
10003af8:	421c      	tst	r4, r3
10003afa:	d003      	beq.n	10003b04 <_vsnprintf+0x4fc>
10003afc:	4552      	cmp	r2, sl
10003afe:	d901      	bls.n	10003b04 <_vsnprintf+0x4fc>
10003b00:	4653      	mov	r3, sl
10003b02:	9310      	str	r3, [sp, #64]	; 0x40
10003b04:	2302      	movs	r3, #2
10003b06:	001a      	movs	r2, r3
10003b08:	4022      	ands	r2, r4
10003b0a:	920b      	str	r2, [sp, #44]	; 0x2c
10003b0c:	4223      	tst	r3, r4
10003b0e:	d005      	beq.n	10003b1c <_vsnprintf+0x514>
10003b10:	003a      	movs	r2, r7
10003b12:	0037      	movs	r7, r6
10003b14:	464c      	mov	r4, r9
10003b16:	46a9      	mov	r9, r5
10003b18:	4655      	mov	r5, sl
10003b1a:	e020      	b.n	10003b5e <_vsnprintf+0x556>
10003b1c:	003a      	movs	r2, r7
10003b1e:	9b10      	ldr	r3, [sp, #64]	; 0x40
10003b20:	465f      	mov	r7, fp
10003b22:	46b3      	mov	fp, r6
10003b24:	002e      	movs	r6, r5
10003b26:	e006      	b.n	10003b36 <_vsnprintf+0x52e>
10003b28:	1c55      	adds	r5, r2, #1
10003b2a:	4643      	mov	r3, r8
10003b2c:	0039      	movs	r1, r7
10003b2e:	2020      	movs	r0, #32
10003b30:	47b0      	blx	r6
10003b32:	0023      	movs	r3, r4
10003b34:	002a      	movs	r2, r5
10003b36:	1c5c      	adds	r4, r3, #1
10003b38:	990a      	ldr	r1, [sp, #40]	; 0x28
10003b3a:	4299      	cmp	r1, r3
10003b3c:	d8f4      	bhi.n	10003b28 <_vsnprintf+0x520>
10003b3e:	0035      	movs	r5, r6
10003b40:	465e      	mov	r6, fp
10003b42:	46bb      	mov	fp, r7
10003b44:	9410      	str	r4, [sp, #64]	; 0x40
10003b46:	0037      	movs	r7, r6
10003b48:	464c      	mov	r4, r9
10003b4a:	46a9      	mov	r9, r5
10003b4c:	4655      	mov	r5, sl
10003b4e:	e006      	b.n	10003b5e <_vsnprintf+0x556>
10003b50:	001d      	movs	r5, r3
10003b52:	3401      	adds	r4, #1
10003b54:	1c56      	adds	r6, r2, #1
10003b56:	4643      	mov	r3, r8
10003b58:	4659      	mov	r1, fp
10003b5a:	47c8      	blx	r9
10003b5c:	0032      	movs	r2, r6
10003b5e:	7820      	ldrb	r0, [r4, #0]
10003b60:	2800      	cmp	r0, #0
10003b62:	d004      	beq.n	10003b6e <_vsnprintf+0x566>
10003b64:	2f00      	cmp	r7, #0
10003b66:	d0f4      	beq.n	10003b52 <_vsnprintf+0x54a>
10003b68:	1e6b      	subs	r3, r5, #1
10003b6a:	2d00      	cmp	r5, #0
10003b6c:	d1f0      	bne.n	10003b50 <_vsnprintf+0x548>
10003b6e:	0017      	movs	r7, r2
10003b70:	464d      	mov	r5, r9
10003b72:	9b0b      	ldr	r3, [sp, #44]	; 0x2c
10003b74:	2b00      	cmp	r3, #0
10003b76:	d103      	bne.n	10003b80 <_vsnprintf+0x578>
10003b78:	9b11      	ldr	r3, [sp, #68]	; 0x44
10003b7a:	3301      	adds	r3, #1
10003b7c:	9311      	str	r3, [sp, #68]	; 0x44
10003b7e:	e553      	b.n	10003628 <_vsnprintf+0x20>
10003b80:	9f0a      	ldr	r7, [sp, #40]	; 0x28
10003b82:	9b10      	ldr	r3, [sp, #64]	; 0x40
10003b84:	e006      	b.n	10003b94 <_vsnprintf+0x58c>
10003b86:	1c56      	adds	r6, r2, #1
10003b88:	4643      	mov	r3, r8
10003b8a:	4659      	mov	r1, fp
10003b8c:	2020      	movs	r0, #32
10003b8e:	47a8      	blx	r5
10003b90:	0023      	movs	r3, r4
10003b92:	0032      	movs	r2, r6
10003b94:	1c5c      	adds	r4, r3, #1
10003b96:	429f      	cmp	r7, r3
10003b98:	d8f5      	bhi.n	10003b86 <_vsnprintf+0x57e>
10003b9a:	0017      	movs	r7, r2
10003b9c:	e7ec      	b.n	10003b78 <_vsnprintf+0x570>
10003b9e:	2321      	movs	r3, #33	; 0x21
10003ba0:	431c      	orrs	r4, r3
10003ba2:	9b1c      	ldr	r3, [sp, #112]	; 0x70
10003ba4:	1d1a      	adds	r2, r3, #4
10003ba6:	921c      	str	r2, [sp, #112]	; 0x70
10003ba8:	681b      	ldr	r3, [r3, #0]
10003baa:	9300      	str	r3, [sp, #0]
10003bac:	9405      	str	r4, [sp, #20]
10003bae:	2308      	movs	r3, #8
10003bb0:	9304      	str	r3, [sp, #16]
10003bb2:	4653      	mov	r3, sl
10003bb4:	9303      	str	r3, [sp, #12]
10003bb6:	2310      	movs	r3, #16
10003bb8:	9302      	str	r3, [sp, #8]
10003bba:	2300      	movs	r3, #0
10003bbc:	9301      	str	r3, [sp, #4]
10003bbe:	4643      	mov	r3, r8
10003bc0:	003a      	movs	r2, r7
10003bc2:	4659      	mov	r1, fp
10003bc4:	0028      	movs	r0, r5
10003bc6:	f7ff f8a0 	bl	10002d0a <_ntoa_long>
10003bca:	0007      	movs	r7, r0
10003bcc:	9b11      	ldr	r3, [sp, #68]	; 0x44
10003bce:	3301      	adds	r3, #1
10003bd0:	9311      	str	r3, [sp, #68]	; 0x44
10003bd2:	e529      	b.n	10003628 <_vsnprintf+0x20>
10003bd4:	1c7c      	adds	r4, r7, #1
10003bd6:	4643      	mov	r3, r8
10003bd8:	003a      	movs	r2, r7
10003bda:	4659      	mov	r1, fp
10003bdc:	2025      	movs	r0, #37	; 0x25
10003bde:	47a8      	blx	r5
10003be0:	9b11      	ldr	r3, [sp, #68]	; 0x44
10003be2:	3301      	adds	r3, #1
10003be4:	9311      	str	r3, [sp, #68]	; 0x44
10003be6:	0027      	movs	r7, r4
10003be8:	e51e      	b.n	10003628 <_vsnprintf+0x20>
10003bea:	1c7c      	adds	r4, r7, #1
10003bec:	4643      	mov	r3, r8
10003bee:	003a      	movs	r2, r7
10003bf0:	4659      	mov	r1, fp
10003bf2:	47a8      	blx	r5
10003bf4:	9b11      	ldr	r3, [sp, #68]	; 0x44
10003bf6:	3301      	adds	r3, #1
10003bf8:	9311      	str	r3, [sp, #68]	; 0x44
10003bfa:	0027      	movs	r7, r4
10003bfc:	e514      	b.n	10003628 <_vsnprintf+0x20>
10003bfe:	4b0b      	ldr	r3, [pc, #44]	; (10003c2c <_vsnprintf+0x624>)
10003c00:	469a      	mov	sl, r3
10003c02:	e50f      	b.n	10003624 <_vsnprintf+0x1c>
10003c04:	46aa      	mov	sl, r5
10003c06:	4547      	cmp	r7, r8
10003c08:	d30d      	bcc.n	10003c26 <_vsnprintf+0x61e>
10003c0a:	4643      	mov	r3, r8
10003c0c:	1e5a      	subs	r2, r3, #1
10003c0e:	4643      	mov	r3, r8
10003c10:	4659      	mov	r1, fp
10003c12:	2000      	movs	r0, #0
10003c14:	47d0      	blx	sl
10003c16:	0038      	movs	r0, r7
10003c18:	b013      	add	sp, #76	; 0x4c
10003c1a:	bc3c      	pop	{r2, r3, r4, r5}
10003c1c:	4690      	mov	r8, r2
10003c1e:	4699      	mov	r9, r3
10003c20:	46a2      	mov	sl, r4
10003c22:	46ab      	mov	fp, r5
10003c24:	bdf0      	pop	{r4, r5, r6, r7, pc}
10003c26:	003a      	movs	r2, r7
10003c28:	e7f1      	b.n	10003c0e <_vsnprintf+0x606>
10003c2a:	46c0      	nop			; (mov r8, r8)
10003c2c:	10002b19 	.word	0x10002b19

10003c30 <vfctprintf>:
10003c30:	b500      	push	{lr}
10003c32:	b085      	sub	sp, #20
10003c34:	9002      	str	r0, [sp, #8]
10003c36:	9103      	str	r1, [sp, #12]
10003c38:	2101      	movs	r1, #1
10003c3a:	9300      	str	r3, [sp, #0]
10003c3c:	0013      	movs	r3, r2
10003c3e:	424a      	negs	r2, r1
10003c40:	a902      	add	r1, sp, #8
10003c42:	4802      	ldr	r0, [pc, #8]	; (10003c4c <vfctprintf+0x1c>)
10003c44:	f7ff fce0 	bl	10003608 <_vsnprintf>
10003c48:	b005      	add	sp, #20
10003c4a:	bd00      	pop	{pc}
10003c4c:	10002b1b 	.word	0x10002b1b

10003c50 <__aeabi_bits_init>:
10003c50:	4801      	ldr	r0, [pc, #4]	; (10003c58 <__aeabi_bits_init+0x8>)
10003c52:	2104      	movs	r1, #4
10003c54:	4b01      	ldr	r3, [pc, #4]	; (10003c5c <__aeabi_bits_init+0xc>)
10003c56:	4718      	bx	r3
10003c58:	20005b10 	.word	0x20005b10
10003c5c:	10003c81 	.word	0x10003c81

10003c60 <rom_func_lookup>:
10003c60:	b510      	push	{r4, lr}
10003c62:	0001      	movs	r1, r0
10003c64:	2318      	movs	r3, #24
10003c66:	881b      	ldrh	r3, [r3, #0]
10003c68:	2214      	movs	r2, #20
10003c6a:	8810      	ldrh	r0, [r2, #0]
10003c6c:	4798      	blx	r3
10003c6e:	bd10      	pop	{r4, pc}

10003c70 <rom_data_lookup>:
10003c70:	b510      	push	{r4, lr}
10003c72:	0001      	movs	r1, r0
10003c74:	2318      	movs	r3, #24
10003c76:	881b      	ldrh	r3, [r3, #0]
10003c78:	2216      	movs	r2, #22
10003c7a:	8810      	ldrh	r0, [r2, #0]
10003c7c:	4798      	blx	r3
10003c7e:	bd10      	pop	{r4, pc}

10003c80 <rom_funcs_lookup>:
10003c80:	b5f0      	push	{r4, r5, r6, r7, lr}
10003c82:	46c6      	mov	lr, r8
10003c84:	b500      	push	{lr}
10003c86:	0007      	movs	r7, r0
10003c88:	000e      	movs	r6, r1
10003c8a:	2500      	movs	r5, #0
10003c8c:	2301      	movs	r3, #1
10003c8e:	4698      	mov	r8, r3
10003c90:	e000      	b.n	10003c94 <rom_funcs_lookup+0x14>
10003c92:	3501      	adds	r5, #1
10003c94:	42b5      	cmp	r5, r6
10003c96:	d20a      	bcs.n	10003cae <rom_funcs_lookup+0x2e>
10003c98:	00ac      	lsls	r4, r5, #2
10003c9a:	193c      	adds	r4, r7, r4
10003c9c:	6820      	ldr	r0, [r4, #0]
10003c9e:	f7ff ffdf 	bl	10003c60 <rom_func_lookup>
10003ca2:	6020      	str	r0, [r4, #0]
10003ca4:	2800      	cmp	r0, #0
10003ca6:	d1f4      	bne.n	10003c92 <rom_funcs_lookup+0x12>
10003ca8:	2300      	movs	r3, #0
10003caa:	4698      	mov	r8, r3
10003cac:	e7f1      	b.n	10003c92 <rom_funcs_lookup+0x12>
10003cae:	4640      	mov	r0, r8
10003cb0:	bc04      	pop	{r2}
10003cb2:	4690      	mov	r8, r2
10003cb4:	bdf0      	pop	{r4, r5, r6, r7, pc}
	...

10003cb8 <__wrap___aeabi_idiv>:
10003cb8:	4a12      	ldr	r2, [pc, #72]	; (10003d04 <divmod_s32s32_savestate+0x18>)
10003cba:	6f93      	ldr	r3, [r2, #120]	; 0x78
10003cbc:	089b      	lsrs	r3, r3, #2
10003cbe:	d215      	bcs.n	10003cec <divmod_s32s32_savestate>

10003cc0 <divmod_s32s32_unsafe>:
10003cc0:	6690      	str	r0, [r2, #104]	; 0x68
10003cc2:	66d1      	str	r1, [r2, #108]	; 0x6c
10003cc4:	2900      	cmp	r1, #0
10003cc6:	d005      	beq.n	10003cd4 <divmod_s32s32_unsafe+0x14>
10003cc8:	e7ff      	b.n	10003cca <divmod_s32s32_unsafe+0xa>
10003cca:	e7ff      	b.n	10003ccc <divmod_s32s32_unsafe+0xc>
10003ccc:	e7ff      	b.n	10003cce <divmod_s32s32_unsafe+0xe>
10003cce:	6f51      	ldr	r1, [r2, #116]	; 0x74
10003cd0:	6f10      	ldr	r0, [r2, #112]	; 0x70
10003cd2:	4770      	bx	lr
10003cd4:	b504      	push	{r2, lr}
10003cd6:	2180      	movs	r1, #128	; 0x80
10003cd8:	0609      	lsls	r1, r1, #24
10003cda:	17c2      	asrs	r2, r0, #31
10003cdc:	4051      	eors	r1, r2
10003cde:	2800      	cmp	r0, #0
10003ce0:	d000      	beq.n	10003ce4 <divmod_s32s32_unsafe+0x24>
10003ce2:	43c8      	mvns	r0, r1
10003ce4:	f001 fb74 	bl	100053d0 <____aeabi_idiv0_veneer>
10003ce8:	2100      	movs	r1, #0
10003cea:	bd04      	pop	{r2, pc}

10003cec <divmod_s32s32_savestate>:
10003cec:	b5f0      	push	{r4, r5, r6, r7, lr}
10003cee:	6e14      	ldr	r4, [r2, #96]	; 0x60
10003cf0:	6e55      	ldr	r5, [r2, #100]	; 0x64
10003cf2:	6f57      	ldr	r7, [r2, #116]	; 0x74
10003cf4:	6f16      	ldr	r6, [r2, #112]	; 0x70
10003cf6:	f7ff ffe3 	bl	10003cc0 <divmod_s32s32_unsafe>
10003cfa:	6614      	str	r4, [r2, #96]	; 0x60
10003cfc:	6655      	str	r5, [r2, #100]	; 0x64
10003cfe:	6757      	str	r7, [r2, #116]	; 0x74
10003d00:	6716      	str	r6, [r2, #112]	; 0x70
10003d02:	bdf0      	pop	{r4, r5, r6, r7, pc}
10003d04:	d0000000 	.word	0xd0000000

10003d08 <__wrap___aeabi_uidiv>:
10003d08:	4a11      	ldr	r2, [pc, #68]	; (10003d50 <divmod_u32u32_savestate+0x18>)
10003d0a:	6f93      	ldr	r3, [r2, #120]	; 0x78
10003d0c:	089b      	lsrs	r3, r3, #2
10003d0e:	d213      	bcs.n	10003d38 <divmod_u32u32_savestate>

10003d10 <divmod_u32u32_unsafe>:
10003d10:	6610      	str	r0, [r2, #96]	; 0x60
10003d12:	6651      	str	r1, [r2, #100]	; 0x64
10003d14:	2900      	cmp	r1, #0
10003d16:	d005      	beq.n	10003d24 <divmod_u32u32_unsafe+0x14>
10003d18:	e7ff      	b.n	10003d1a <divmod_u32u32_unsafe+0xa>
10003d1a:	e7ff      	b.n	10003d1c <divmod_u32u32_unsafe+0xc>
10003d1c:	e7ff      	b.n	10003d1e <divmod_u32u32_unsafe+0xe>
10003d1e:	6f51      	ldr	r1, [r2, #116]	; 0x74
10003d20:	6f10      	ldr	r0, [r2, #112]	; 0x70
10003d22:	4770      	bx	lr
10003d24:	b504      	push	{r2, lr}
10003d26:	2800      	cmp	r0, #0
10003d28:	d001      	beq.n	10003d2e <divmod_u32u32_unsafe+0x1e>
10003d2a:	2000      	movs	r0, #0
10003d2c:	43c0      	mvns	r0, r0
10003d2e:	f001 fb4f 	bl	100053d0 <____aeabi_idiv0_veneer>
10003d32:	2100      	movs	r1, #0
10003d34:	bd04      	pop	{r2, pc}
10003d36:	46c0      	nop			; (mov r8, r8)

10003d38 <divmod_u32u32_savestate>:
10003d38:	b5f0      	push	{r4, r5, r6, r7, lr}
10003d3a:	6e14      	ldr	r4, [r2, #96]	; 0x60
10003d3c:	6e55      	ldr	r5, [r2, #100]	; 0x64
10003d3e:	6f57      	ldr	r7, [r2, #116]	; 0x74
10003d40:	6f16      	ldr	r6, [r2, #112]	; 0x70
10003d42:	f7ff ffe5 	bl	10003d10 <divmod_u32u32_unsafe>
10003d46:	6614      	str	r4, [r2, #96]	; 0x60
10003d48:	6655      	str	r5, [r2, #100]	; 0x64
10003d4a:	6757      	str	r7, [r2, #116]	; 0x74
10003d4c:	6716      	str	r6, [r2, #112]	; 0x70
10003d4e:	bdf0      	pop	{r4, r5, r6, r7, pc}
10003d50:	d0000000 	.word	0xd0000000

10003d54 <__wrap___aeabi_ldivmod>:
10003d54:	4694      	mov	ip, r2
10003d56:	4a4e      	ldr	r2, [pc, #312]	; (10003e90 <udiv0+0x1a>)
10003d58:	6f92      	ldr	r2, [r2, #120]	; 0x78
10003d5a:	0892      	lsrs	r2, r2, #2
10003d5c:	4662      	mov	r2, ip
10003d5e:	d201      	bcs.n	10003d64 <divmod_s64s64_savestate>
10003d60:	e030      	b.n	10003dc4 <divmod_s64s64_unsafe>
10003d62:	46c0      	nop			; (mov r8, r8)

10003d64 <divmod_s64s64_savestate>:
10003d64:	b5f0      	push	{r4, r5, r6, r7, lr}
10003d66:	4e4a      	ldr	r6, [pc, #296]	; (10003e90 <udiv0+0x1a>)
10003d68:	6fb5      	ldr	r5, [r6, #120]	; 0x78
10003d6a:	086d      	lsrs	r5, r5, #1
10003d6c:	d3fc      	bcc.n	10003d68 <divmod_s64s64_savestate+0x4>
10003d6e:	6e34      	ldr	r4, [r6, #96]	; 0x60
10003d70:	6e75      	ldr	r5, [r6, #100]	; 0x64
10003d72:	6f77      	ldr	r7, [r6, #116]	; 0x74
10003d74:	6f36      	ldr	r6, [r6, #112]	; 0x70
10003d76:	f000 f825 	bl	10003dc4 <divmod_s64s64_unsafe>
10003d7a:	4694      	mov	ip, r2
10003d7c:	4a44      	ldr	r2, [pc, #272]	; (10003e90 <udiv0+0x1a>)
10003d7e:	6614      	str	r4, [r2, #96]	; 0x60
10003d80:	6655      	str	r5, [r2, #100]	; 0x64
10003d82:	6757      	str	r7, [r2, #116]	; 0x74
10003d84:	6716      	str	r6, [r2, #112]	; 0x70
10003d86:	4662      	mov	r2, ip
10003d88:	bdf0      	pop	{r4, r5, r6, r7, pc}
10003d8a:	46c0      	nop			; (mov r8, r8)

10003d8c <__wrap___aeabi_uldivmod>:
10003d8c:	4694      	mov	ip, r2
10003d8e:	4a40      	ldr	r2, [pc, #256]	; (10003e90 <udiv0+0x1a>)
10003d90:	6f92      	ldr	r2, [r2, #120]	; 0x78
10003d92:	0892      	lsrs	r2, r2, #2
10003d94:	4662      	mov	r2, ip
10003d96:	d201      	bcs.n	10003d9c <divmod_u64u64_savestate>
10003d98:	e058      	b.n	10003e4c <divmod_u64u64_unsafe>
10003d9a:	46c0      	nop			; (mov r8, r8)

10003d9c <divmod_u64u64_savestate>:
10003d9c:	b5f0      	push	{r4, r5, r6, r7, lr}
10003d9e:	4e3c      	ldr	r6, [pc, #240]	; (10003e90 <udiv0+0x1a>)
10003da0:	6fb5      	ldr	r5, [r6, #120]	; 0x78
10003da2:	086d      	lsrs	r5, r5, #1
10003da4:	d3fc      	bcc.n	10003da0 <divmod_u64u64_savestate+0x4>
10003da6:	6e34      	ldr	r4, [r6, #96]	; 0x60
10003da8:	6e75      	ldr	r5, [r6, #100]	; 0x64
10003daa:	6f77      	ldr	r7, [r6, #116]	; 0x74
10003dac:	6f36      	ldr	r6, [r6, #112]	; 0x70
10003dae:	f000 f84d 	bl	10003e4c <divmod_u64u64_unsafe>
10003db2:	4694      	mov	ip, r2
10003db4:	4a36      	ldr	r2, [pc, #216]	; (10003e90 <udiv0+0x1a>)
10003db6:	6614      	str	r4, [r2, #96]	; 0x60
10003db8:	6655      	str	r5, [r2, #100]	; 0x64
10003dba:	6757      	str	r7, [r2, #116]	; 0x74
10003dbc:	6716      	str	r6, [r2, #112]	; 0x70
10003dbe:	4662      	mov	r2, ip
10003dc0:	bdf0      	pop	{r4, r5, r6, r7, pc}
10003dc2:	46c0      	nop			; (mov r8, r8)

10003dc4 <divmod_s64s64_unsafe>:
10003dc4:	2b00      	cmp	r3, #0
10003dc6:	db24      	blt.n	10003e12 <l41_1+0x26>
10003dc8:	d011      	beq.n	10003dee <l41_1+0x2>
10003dca:	2900      	cmp	r1, #0
10003dcc:	da3e      	bge.n	10003e4c <divmod_u64u64_unsafe>
10003dce:	b500      	push	{lr}
10003dd0:	43c9      	mvns	r1, r1
10003dd2:	4240      	negs	r0, r0
10003dd4:	d100      	bne.n	10003dd8 <l39_1>
10003dd6:	3101      	adds	r1, #1

10003dd8 <l39_1>:
10003dd8:	f000 f838 	bl	10003e4c <divmod_u64u64_unsafe>
10003ddc:	43c9      	mvns	r1, r1
10003dde:	4240      	negs	r0, r0
10003de0:	d100      	bne.n	10003de4 <l40_1>
10003de2:	3101      	adds	r1, #1

10003de4 <l40_1>:
10003de4:	43db      	mvns	r3, r3
10003de6:	4252      	negs	r2, r2
10003de8:	d100      	bne.n	10003dec <l41_1>
10003dea:	3301      	adds	r3, #1

10003dec <l41_1>:
10003dec:	bd00      	pop	{pc}
10003dee:	2a00      	cmp	r2, #0
10003df0:	d1eb      	bne.n	10003dca <divmod_s64s64_unsafe+0x6>
10003df2:	2800      	cmp	r0, #0
10003df4:	d101      	bne.n	10003dfa <l41_1+0xe>
10003df6:	2900      	cmp	r1, #0
10003df8:	d005      	beq.n	10003e06 <l41_1+0x1a>
10003dfa:	2000      	movs	r0, #0
10003dfc:	0fc9      	lsrs	r1, r1, #31
10003dfe:	07c9      	lsls	r1, r1, #31
10003e00:	d101      	bne.n	10003e06 <l41_1+0x1a>
10003e02:	43c0      	mvns	r0, r0
10003e04:	0841      	lsrs	r1, r0, #1
10003e06:	b500      	push	{lr}
10003e08:	f001 fada 	bl	100053c0 <____aeabi_ldiv0_veneer>
10003e0c:	2200      	movs	r2, #0
10003e0e:	2300      	movs	r3, #0
10003e10:	bd00      	pop	{pc}
10003e12:	b500      	push	{lr}
10003e14:	2900      	cmp	r1, #0
10003e16:	db0a      	blt.n	10003e2e <l43_1+0x2>
10003e18:	43db      	mvns	r3, r3
10003e1a:	4252      	negs	r2, r2
10003e1c:	d100      	bne.n	10003e20 <l42_1>
10003e1e:	3301      	adds	r3, #1

10003e20 <l42_1>:
10003e20:	f000 f814 	bl	10003e4c <divmod_u64u64_unsafe>
10003e24:	43c9      	mvns	r1, r1
10003e26:	4240      	negs	r0, r0
10003e28:	d100      	bne.n	10003e2c <l43_1>
10003e2a:	3101      	adds	r1, #1

10003e2c <l43_1>:
10003e2c:	bd00      	pop	{pc}
10003e2e:	43c9      	mvns	r1, r1
10003e30:	4240      	negs	r0, r0
10003e32:	d100      	bne.n	10003e36 <l44_1>
10003e34:	3101      	adds	r1, #1

10003e36 <l44_1>:
10003e36:	43db      	mvns	r3, r3
10003e38:	4252      	negs	r2, r2
10003e3a:	d100      	bne.n	10003e3e <l45_1>
10003e3c:	3301      	adds	r3, #1

10003e3e <l45_1>:
10003e3e:	f000 f805 	bl	10003e4c <divmod_u64u64_unsafe>
10003e42:	43db      	mvns	r3, r3
10003e44:	4252      	negs	r2, r2
10003e46:	d100      	bne.n	10003e4a <l46_1>
10003e48:	3301      	adds	r3, #1

10003e4a <l46_1>:
10003e4a:	bd00      	pop	{pc}

10003e4c <divmod_u64u64_unsafe>:
10003e4c:	2900      	cmp	r1, #0
10003e4e:	d123      	bne.n	10003e98 <y64>
10003e50:	2b00      	cmp	r3, #0
10003e52:	d118      	bne.n	10003e86 <udiv0+0x10>
10003e54:	2a00      	cmp	r2, #0
10003e56:	d00c      	beq.n	10003e72 <divmod_u64u64_unsafe+0x26>
10003e58:	46bc      	mov	ip, r7
10003e5a:	4f0d      	ldr	r7, [pc, #52]	; (10003e90 <udiv0+0x1a>)
10003e5c:	6638      	str	r0, [r7, #96]	; 0x60
10003e5e:	667a      	str	r2, [r7, #100]	; 0x64
10003e60:	2100      	movs	r1, #0
10003e62:	2300      	movs	r3, #0
10003e64:	e7ff      	b.n	10003e66 <divmod_u64u64_unsafe+0x1a>
10003e66:	e7ff      	b.n	10003e68 <divmod_u64u64_unsafe+0x1c>
10003e68:	e7ff      	b.n	10003e6a <divmod_u64u64_unsafe+0x1e>
10003e6a:	6f7a      	ldr	r2, [r7, #116]	; 0x74
10003e6c:	6f38      	ldr	r0, [r7, #112]	; 0x70
10003e6e:	4667      	mov	r7, ip
10003e70:	4770      	bx	lr
10003e72:	2800      	cmp	r0, #0
10003e74:	d001      	beq.n	10003e7a <udiv0+0x4>

10003e76 <udiv0>:
10003e76:	4807      	ldr	r0, [pc, #28]	; (10003e94 <udiv0+0x1e>)
10003e78:	0001      	movs	r1, r0
10003e7a:	b500      	push	{lr}
10003e7c:	f001 faa0 	bl	100053c0 <____aeabi_ldiv0_veneer>
10003e80:	2200      	movs	r2, #0
10003e82:	2300      	movs	r3, #0
10003e84:	bd00      	pop	{pc}
10003e86:	0002      	movs	r2, r0
10003e88:	000b      	movs	r3, r1
10003e8a:	2000      	movs	r0, #0
10003e8c:	2100      	movs	r1, #0
10003e8e:	4770      	bx	lr
10003e90:	d0000000 	.word	0xd0000000
10003e94:	ffffffff 	.word	0xffffffff

10003e98 <y64>:
10003e98:	2b00      	cmp	r3, #0
10003e9a:	d000      	beq.n	10003e9e <y64+0x6>
10003e9c:	e0bd      	b.n	1000401a <y64_x48>
10003e9e:	0c13      	lsrs	r3, r2, #16
10003ea0:	d126      	bne.n	10003ef0 <y64_x32>
10003ea2:	2a00      	cmp	r2, #0
10003ea4:	d0e7      	beq.n	10003e76 <udiv0>
10003ea6:	b480      	push	{r7}
10003ea8:	4f10      	ldr	r7, [pc, #64]	; (10003eec <y64+0x54>)
10003eaa:	6639      	str	r1, [r7, #96]	; 0x60
10003eac:	667a      	str	r2, [r7, #100]	; 0x64
10003eae:	e7ff      	b.n	10003eb0 <y64+0x18>
10003eb0:	e7ff      	b.n	10003eb2 <y64+0x1a>
10003eb2:	b430      	push	{r4, r5}
10003eb4:	0c04      	lsrs	r4, r0, #16
10003eb6:	6f7b      	ldr	r3, [r7, #116]	; 0x74
10003eb8:	6f39      	ldr	r1, [r7, #112]	; 0x70
10003eba:	041b      	lsls	r3, r3, #16
10003ebc:	4323      	orrs	r3, r4
10003ebe:	663b      	str	r3, [r7, #96]	; 0x60
10003ec0:	e7ff      	b.n	10003ec2 <y64+0x2a>
10003ec2:	e7ff      	b.n	10003ec4 <y64+0x2c>
10003ec4:	e7ff      	b.n	10003ec6 <y64+0x2e>
10003ec6:	46c0      	nop			; (mov r8, r8)
10003ec8:	b284      	uxth	r4, r0
10003eca:	6f7b      	ldr	r3, [r7, #116]	; 0x74
10003ecc:	6f3d      	ldr	r5, [r7, #112]	; 0x70
10003ece:	041b      	lsls	r3, r3, #16
10003ed0:	4323      	orrs	r3, r4
10003ed2:	663b      	str	r3, [r7, #96]	; 0x60
10003ed4:	e7ff      	b.n	10003ed6 <y64+0x3e>
10003ed6:	e7ff      	b.n	10003ed8 <y64+0x40>
10003ed8:	46c0      	nop			; (mov r8, r8)
10003eda:	2300      	movs	r3, #0
10003edc:	042c      	lsls	r4, r5, #16
10003ede:	0c2d      	lsrs	r5, r5, #16
10003ee0:	6f7a      	ldr	r2, [r7, #116]	; 0x74
10003ee2:	6f38      	ldr	r0, [r7, #112]	; 0x70
10003ee4:	1900      	adds	r0, r0, r4
10003ee6:	4169      	adcs	r1, r5
10003ee8:	bcb0      	pop	{r4, r5, r7}
10003eea:	4770      	bx	lr
10003eec:	d0000000 	.word	0xd0000000

10003ef0 <y64_x32>:
10003ef0:	b5f0      	push	{r4, r5, r6, r7, lr}
10003ef2:	4694      	mov	ip, r2
10003ef4:	2500      	movs	r5, #0
10003ef6:	0e14      	lsrs	r4, r2, #24
10003ef8:	d101      	bne.n	10003efe <y64_x32+0xe>
10003efa:	0212      	lsls	r2, r2, #8
10003efc:	3508      	adds	r5, #8
10003efe:	0f14      	lsrs	r4, r2, #28
10003f00:	d101      	bne.n	10003f06 <y64_x32+0x16>
10003f02:	0112      	lsls	r2, r2, #4
10003f04:	3504      	adds	r5, #4
10003f06:	0f94      	lsrs	r4, r2, #30
10003f08:	d101      	bne.n	10003f0e <y64_x32+0x1e>
10003f0a:	0092      	lsls	r2, r2, #2
10003f0c:	3502      	adds	r5, #2
10003f0e:	0fd4      	lsrs	r4, r2, #31
10003f10:	d101      	bne.n	10003f16 <y64_x32+0x26>
10003f12:	0052      	lsls	r2, r2, #1
10003f14:	3501      	adds	r5, #1
10003f16:	0bd4      	lsrs	r4, r2, #15
10003f18:	3401      	adds	r4, #1
10003f1a:	4f25      	ldr	r7, [pc, #148]	; (10003fb0 <y64_x32+0xc0>)
10003f1c:	667c      	str	r4, [r7, #100]	; 0x64
10003f1e:	4c25      	ldr	r4, [pc, #148]	; (10003fb4 <y64_x32+0xc4>)
10003f20:	663c      	str	r4, [r7, #96]	; 0x60
10003f22:	0c0e      	lsrs	r6, r1, #16
10003f24:	b293      	uxth	r3, r2
10003f26:	e7ff      	b.n	10003f28 <y64_x32+0x38>
10003f28:	e7ff      	b.n	10003f2a <y64_x32+0x3a>
10003f2a:	e7ff      	b.n	10003f2c <y64_x32+0x3c>
10003f2c:	6f3c      	ldr	r4, [r7, #112]	; 0x70
10003f2e:	4366      	muls	r6, r4
10003f30:	0c36      	lsrs	r6, r6, #16
10003f32:	0377      	lsls	r7, r6, #13
10003f34:	46be      	mov	lr, r7
10003f36:	4373      	muls	r3, r6
10003f38:	0bdf      	lsrs	r7, r3, #15
10003f3a:	045b      	lsls	r3, r3, #17
10003f3c:	1ac0      	subs	r0, r0, r3
10003f3e:	41b9      	sbcs	r1, r7
10003f40:	0c13      	lsrs	r3, r2, #16
10003f42:	4373      	muls	r3, r6
10003f44:	18db      	adds	r3, r3, r3
10003f46:	1ac9      	subs	r1, r1, r3
10003f48:	08ce      	lsrs	r6, r1, #3
10003f4a:	4366      	muls	r6, r4
10003f4c:	0c36      	lsrs	r6, r6, #16
10003f4e:	44b6      	add	lr, r6
10003f50:	b293      	uxth	r3, r2
10003f52:	4373      	muls	r3, r6
10003f54:	0f1f      	lsrs	r7, r3, #28
10003f56:	011b      	lsls	r3, r3, #4
10003f58:	1ac0      	subs	r0, r0, r3
10003f5a:	41b9      	sbcs	r1, r7
10003f5c:	0c13      	lsrs	r3, r2, #16
10003f5e:	4373      	muls	r3, r6
10003f60:	0b1f      	lsrs	r7, r3, #12
10003f62:	051b      	lsls	r3, r3, #20
10003f64:	1ac0      	subs	r0, r0, r3
10003f66:	41b9      	sbcs	r1, r7
10003f68:	0d86      	lsrs	r6, r0, #22
10003f6a:	028f      	lsls	r7, r1, #10
10003f6c:	433e      	orrs	r6, r7
10003f6e:	4366      	muls	r6, r4
10003f70:	0c36      	lsrs	r6, r6, #16
10003f72:	2d09      	cmp	r5, #9
10003f74:	db24      	blt.n	10003fc0 <last0>
10003f76:	0a52      	lsrs	r2, r2, #9
10003f78:	4372      	muls	r2, r6
10003f7a:	1a80      	subs	r0, r0, r2
10003f7c:	0377      	lsls	r7, r6, #13
10003f7e:	0a46      	lsrs	r6, r0, #9
10003f80:	4366      	muls	r6, r4
10003f82:	0c36      	lsrs	r6, r6, #16
10003f84:	2316      	movs	r3, #22
10003f86:	1b5b      	subs	r3, r3, r5
10003f88:	40de      	lsrs	r6, r3
10003f8a:	40df      	lsrs	r7, r3
10003f8c:	19bf      	adds	r7, r7, r6
10003f8e:	4664      	mov	r4, ip
10003f90:	4366      	muls	r6, r4
10003f92:	1b82      	subs	r2, r0, r6
10003f94:	4670      	mov	r0, lr
10003f96:	3504      	adds	r5, #4
10003f98:	3306      	adds	r3, #6
10003f9a:	0001      	movs	r1, r0
10003f9c:	40d9      	lsrs	r1, r3
10003f9e:	40a8      	lsls	r0, r5
10003fa0:	19c0      	adds	r0, r0, r7
10003fa2:	d300      	bcc.n	10003fa6 <y64_x32+0xb6>
10003fa4:	3101      	adds	r1, #1
10003fa6:	42a2      	cmp	r2, r4
10003fa8:	d206      	bcs.n	10003fb8 <y64_x32+0xc8>
10003faa:	2300      	movs	r3, #0
10003fac:	bdf0      	pop	{r4, r5, r6, r7, pc}
10003fae:	0000      	.short	0x0000
10003fb0:	d0000000 	.word	0xd0000000
10003fb4:	ffffffff 	.word	0xffffffff
10003fb8:	1b12      	subs	r2, r2, r4
10003fba:	3001      	adds	r0, #1
10003fbc:	d3f3      	bcc.n	10003fa6 <y64_x32+0xb6>
10003fbe:	e7f1      	b.n	10003fa4 <y64_x32+0xb4>

10003fc0 <last0>:
10003fc0:	2709      	movs	r7, #9
10003fc2:	1b7f      	subs	r7, r7, r5
10003fc4:	40fe      	lsrs	r6, r7
10003fc6:	4664      	mov	r4, ip
10003fc8:	b2a2      	uxth	r2, r4
10003fca:	4372      	muls	r2, r6
10003fcc:	1a80      	subs	r0, r0, r2
10003fce:	d200      	bcs.n	10003fd2 <last0+0x12>
10003fd0:	3901      	subs	r1, #1
10003fd2:	0c22      	lsrs	r2, r4, #16
10003fd4:	4372      	muls	r2, r6
10003fd6:	0c13      	lsrs	r3, r2, #16
10003fd8:	0412      	lsls	r2, r2, #16
10003fda:	1a82      	subs	r2, r0, r2
10003fdc:	4199      	sbcs	r1, r3
10003fde:	000b      	movs	r3, r1
10003fe0:	4670      	mov	r0, lr
10003fe2:	3504      	adds	r5, #4
10003fe4:	3713      	adds	r7, #19
10003fe6:	0001      	movs	r1, r0
10003fe8:	40f9      	lsrs	r1, r7
10003fea:	40a8      	lsls	r0, r5
10003fec:	1980      	adds	r0, r0, r6
10003fee:	d300      	bcc.n	10003ff2 <last0+0x32>
10003ff0:	3101      	adds	r1, #1
10003ff2:	2b00      	cmp	r3, #0
10003ff4:	d102      	bne.n	10003ffc <last0+0x3c>
10003ff6:	42a2      	cmp	r2, r4
10003ff8:	d20a      	bcs.n	10004010 <last0+0x50>
10003ffa:	bdf0      	pop	{r4, r5, r6, r7, pc}
10003ffc:	3001      	adds	r0, #1
10003ffe:	d300      	bcc.n	10004002 <last0+0x42>
10004000:	3101      	adds	r1, #1
10004002:	1b12      	subs	r2, r2, r4
10004004:	d2fa      	bcs.n	10003ffc <last0+0x3c>
10004006:	3b01      	subs	r3, #1
10004008:	d1f8      	bne.n	10003ffc <last0+0x3c>
1000400a:	42a2      	cmp	r2, r4
1000400c:	d200      	bcs.n	10004010 <last0+0x50>
1000400e:	bdf0      	pop	{r4, r5, r6, r7, pc}
10004010:	3001      	adds	r0, #1
10004012:	d300      	bcc.n	10004016 <last0+0x56>
10004014:	3101      	adds	r1, #1
10004016:	1b12      	subs	r2, r2, r4
10004018:	e7f7      	b.n	1000400a <last0+0x4a>

1000401a <y64_x48>:
1000401a:	b5f0      	push	{r4, r5, r6, r7, lr}
1000401c:	0c1c      	lsrs	r4, r3, #16
1000401e:	d000      	beq.n	10004022 <y64_x48+0x8>
10004020:	e080      	b.n	10004124 <y64_x64>
10004022:	b40c      	push	{r2, r3}
10004024:	2500      	movs	r5, #0
10004026:	0a1c      	lsrs	r4, r3, #8
10004028:	d104      	bne.n	10004034 <y64_x48+0x1a>
1000402a:	021b      	lsls	r3, r3, #8
1000402c:	0e16      	lsrs	r6, r2, #24
1000402e:	4333      	orrs	r3, r6
10004030:	0212      	lsls	r2, r2, #8
10004032:	3508      	adds	r5, #8
10004034:	0b1c      	lsrs	r4, r3, #12
10004036:	d104      	bne.n	10004042 <y64_x48+0x28>
10004038:	011b      	lsls	r3, r3, #4
1000403a:	0f16      	lsrs	r6, r2, #28
1000403c:	4333      	orrs	r3, r6
1000403e:	0112      	lsls	r2, r2, #4
10004040:	3504      	adds	r5, #4
10004042:	0b9c      	lsrs	r4, r3, #14
10004044:	d104      	bne.n	10004050 <y64_x48+0x36>
10004046:	009b      	lsls	r3, r3, #2
10004048:	0f96      	lsrs	r6, r2, #30
1000404a:	4333      	orrs	r3, r6
1000404c:	0092      	lsls	r2, r2, #2
1000404e:	3502      	adds	r5, #2
10004050:	0bdc      	lsrs	r4, r3, #15
10004052:	d102      	bne.n	1000405a <y64_x48+0x40>
10004054:	1892      	adds	r2, r2, r2
10004056:	415b      	adcs	r3, r3
10004058:	3501      	adds	r5, #1
1000405a:	001c      	movs	r4, r3
1000405c:	1897      	adds	r7, r2, r2
1000405e:	4164      	adcs	r4, r4
10004060:	3401      	adds	r4, #1
10004062:	4f46      	ldr	r7, [pc, #280]	; (1000417c <y64_x64+0x58>)
10004064:	667c      	str	r4, [r7, #100]	; 0x64
10004066:	4c46      	ldr	r4, [pc, #280]	; (10004180 <y64_x64+0x5c>)
10004068:	663c      	str	r4, [r7, #96]	; 0x60
1000406a:	0c0e      	lsrs	r6, r1, #16
1000406c:	e7ff      	b.n	1000406e <y64_x48+0x54>
1000406e:	e7ff      	b.n	10004070 <y64_x48+0x56>
10004070:	e7ff      	b.n	10004072 <y64_x48+0x58>
10004072:	46c0      	nop			; (mov r8, r8)
10004074:	6f3c      	ldr	r4, [r7, #112]	; 0x70
10004076:	4366      	muls	r6, r4
10004078:	0c36      	lsrs	r6, r6, #16
1000407a:	0377      	lsls	r7, r6, #13
1000407c:	46be      	mov	lr, r7
1000407e:	b297      	uxth	r7, r2
10004080:	4377      	muls	r7, r6
10004082:	1bc0      	subs	r0, r0, r7
10004084:	d200      	bcs.n	10004088 <y64_x48+0x6e>
10004086:	3901      	subs	r1, #1
10004088:	1bc0      	subs	r0, r0, r7
1000408a:	d200      	bcs.n	1000408e <y64_x48+0x74>
1000408c:	3901      	subs	r1, #1
1000408e:	b29f      	uxth	r7, r3
10004090:	4377      	muls	r7, r6
10004092:	1bc9      	subs	r1, r1, r7
10004094:	1bc9      	subs	r1, r1, r7
10004096:	0c17      	lsrs	r7, r2, #16
10004098:	4377      	muls	r7, r6
1000409a:	047e      	lsls	r6, r7, #17
1000409c:	0bff      	lsrs	r7, r7, #15
1000409e:	1b80      	subs	r0, r0, r6
100040a0:	41b9      	sbcs	r1, r7
100040a2:	08ce      	lsrs	r6, r1, #3
100040a4:	4366      	muls	r6, r4
100040a6:	0c36      	lsrs	r6, r6, #16
100040a8:	2d0c      	cmp	r5, #12
100040aa:	db33      	blt.n	10004114 <last1>
100040ac:	44b6      	add	lr, r6
100040ae:	0b12      	lsrs	r2, r2, #12
100040b0:	051f      	lsls	r7, r3, #20
100040b2:	433a      	orrs	r2, r7
100040b4:	0b1b      	lsrs	r3, r3, #12
100040b6:	b297      	uxth	r7, r2
100040b8:	4377      	muls	r7, r6
100040ba:	1bc0      	subs	r0, r0, r7
100040bc:	d200      	bcs.n	100040c0 <y64_x48+0xa6>
100040be:	3901      	subs	r1, #1
100040c0:	b29f      	uxth	r7, r3
100040c2:	4377      	muls	r7, r6
100040c4:	1bc9      	subs	r1, r1, r7
100040c6:	0c17      	lsrs	r7, r2, #16
100040c8:	4377      	muls	r7, r6
100040ca:	043e      	lsls	r6, r7, #16
100040cc:	0c3f      	lsrs	r7, r7, #16
100040ce:	1b80      	subs	r0, r0, r6
100040d0:	41b9      	sbcs	r1, r7
100040d2:	0d86      	lsrs	r6, r0, #22
100040d4:	028f      	lsls	r7, r1, #10
100040d6:	433e      	orrs	r6, r7
100040d8:	4366      	muls	r6, r4
100040da:	2729      	movs	r7, #41	; 0x29
100040dc:	1b7f      	subs	r7, r7, r5
100040de:	40fe      	lsrs	r6, r7
100040e0:	3d0c      	subs	r5, #12
100040e2:	4677      	mov	r7, lr
100040e4:	40af      	lsls	r7, r5
100040e6:	19bf      	adds	r7, r7, r6
100040e8:	bc30      	pop	{r4, r5}
100040ea:	b2a2      	uxth	r2, r4
100040ec:	b2ab      	uxth	r3, r5
100040ee:	4372      	muls	r2, r6
100040f0:	4373      	muls	r3, r6
100040f2:	1a80      	subs	r0, r0, r2
100040f4:	4199      	sbcs	r1, r3
100040f6:	0c22      	lsrs	r2, r4, #16
100040f8:	4372      	muls	r2, r6
100040fa:	0c13      	lsrs	r3, r2, #16
100040fc:	0412      	lsls	r2, r2, #16
100040fe:	1a80      	subs	r0, r0, r2
10004100:	4199      	sbcs	r1, r3
10004102:	0002      	movs	r2, r0
10004104:	000b      	movs	r3, r1
10004106:	3701      	adds	r7, #1
10004108:	1b00      	subs	r0, r0, r4
1000410a:	41a9      	sbcs	r1, r5
1000410c:	d2f9      	bcs.n	10004102 <y64_x48+0xe8>
1000410e:	1e78      	subs	r0, r7, #1
10004110:	2100      	movs	r1, #0
10004112:	bdf0      	pop	{r4, r5, r6, r7, pc}

10004114 <last1>:
10004114:	270c      	movs	r7, #12
10004116:	1b7f      	subs	r7, r7, r5
10004118:	40fe      	lsrs	r6, r7
1000411a:	4677      	mov	r7, lr
1000411c:	0b7f      	lsrs	r7, r7, #13
1000411e:	40af      	lsls	r7, r5
10004120:	19ff      	adds	r7, r7, r7
10004122:	e7e0      	b.n	100040e6 <y64_x48+0xcc>

10004124 <y64_x64>:
10004124:	2400      	movs	r4, #0
10004126:	1c5d      	adds	r5, r3, #1
10004128:	d007      	beq.n	1000413a <y64_x64+0x16>
1000412a:	4f14      	ldr	r7, [pc, #80]	; (1000417c <y64_x64+0x58>)
1000412c:	667d      	str	r5, [r7, #100]	; 0x64
1000412e:	6639      	str	r1, [r7, #96]	; 0x60
10004130:	e7ff      	b.n	10004132 <y64_x64+0xe>
10004132:	e7ff      	b.n	10004134 <y64_x64+0x10>
10004134:	e7ff      	b.n	10004136 <y64_x64+0x12>
10004136:	e7ff      	b.n	10004138 <y64_x64+0x14>
10004138:	6f3c      	ldr	r4, [r7, #112]	; 0x70
1000413a:	b295      	uxth	r5, r2
1000413c:	b29e      	uxth	r6, r3
1000413e:	4365      	muls	r5, r4
10004140:	4366      	muls	r6, r4
10004142:	1b40      	subs	r0, r0, r5
10004144:	41b1      	sbcs	r1, r6
10004146:	0c15      	lsrs	r5, r2, #16
10004148:	0c1e      	lsrs	r6, r3, #16
1000414a:	4365      	muls	r5, r4
1000414c:	4366      	muls	r6, r4
1000414e:	0436      	lsls	r6, r6, #16
10004150:	0c2f      	lsrs	r7, r5, #16
10004152:	433e      	orrs	r6, r7
10004154:	042d      	lsls	r5, r5, #16
10004156:	1b40      	subs	r0, r0, r5
10004158:	41b1      	sbcs	r1, r6
1000415a:	4299      	cmp	r1, r3
1000415c:	d204      	bcs.n	10004168 <y64_x64+0x44>
1000415e:	0002      	movs	r2, r0
10004160:	000b      	movs	r3, r1
10004162:	0020      	movs	r0, r4
10004164:	2100      	movs	r1, #0
10004166:	bdf0      	pop	{r4, r5, r6, r7, pc}
10004168:	d101      	bne.n	1000416e <y64_x64+0x4a>
1000416a:	4290      	cmp	r0, r2
1000416c:	d3f7      	bcc.n	1000415e <y64_x64+0x3a>
1000416e:	1a80      	subs	r0, r0, r2
10004170:	4199      	sbcs	r1, r3
10004172:	3401      	adds	r4, #1
10004174:	4299      	cmp	r1, r3
10004176:	d3f2      	bcc.n	1000415e <y64_x64+0x3a>
10004178:	e7f6      	b.n	10004168 <y64_x64+0x44>
1000417a:	0000      	.short	0x0000
1000417c:	d0000000 	.word	0xd0000000
10004180:	ffffffff 	.word	0xffffffff

10004184 <__wrap___aeabi_drsub>:
10004184:	4048      	eors	r0, r1
10004186:	4041      	eors	r1, r0
10004188:	4048      	eors	r0, r1

1000418a <__wrap___aeabi_dsub>:
1000418a:	b418      	push	{r3, r4}
1000418c:	4b1b      	ldr	r3, [pc, #108]	; (100041fc <__wrap___aeabi_dmul+0x12>)
1000418e:	685b      	ldr	r3, [r3, #4]
10004190:	46fc      	mov	ip, pc
10004192:	9301      	str	r3, [sp, #4]
10004194:	bd08      	pop	{r3, pc}
10004196:	df04      	.short	0xdf04
10004198:	1000444b 	.word	0x1000444b

1000419c <__wrap___aeabi_dadd>:
1000419c:	b418      	push	{r3, r4}
1000419e:	4b17      	ldr	r3, [pc, #92]	; (100041fc <__wrap___aeabi_dmul+0x12>)
100041a0:	681b      	ldr	r3, [r3, #0]
100041a2:	46fc      	mov	ip, pc
100041a4:	9301      	str	r3, [sp, #4]
100041a6:	bd08      	pop	{r3, pc}
100041a8:	4455df00 	.word	0x4455df00
100041ac:	1000      	.short	0x1000

100041ae <__wrap___aeabi_ddiv>:
100041ae:	4694      	mov	ip, r2
100041b0:	4a13      	ldr	r2, [pc, #76]	; (10004200 <__wrap___aeabi_dmul+0x16>)
100041b2:	6f92      	ldr	r2, [r2, #120]	; 0x78
100041b4:	0892      	lsrs	r2, r2, #2
100041b6:	d209      	bcs.n	100041cc <ddiv_save_state>
100041b8:	4662      	mov	r2, ip

100041ba <ddiv_shim_call>:
100041ba:	b418      	push	{r3, r4}
100041bc:	4b0f      	ldr	r3, [pc, #60]	; (100041fc <__wrap___aeabi_dmul+0x12>)
100041be:	68db      	ldr	r3, [r3, #12]
100041c0:	46fc      	mov	ip, pc
100041c2:	9301      	str	r3, [sp, #4]
100041c4:	bd08      	pop	{r3, pc}
100041c6:	df0c      	.short	0xdf0c
100041c8:	1000470d 	.word	0x1000470d

100041cc <ddiv_save_state>:
100041cc:	4a0c      	ldr	r2, [pc, #48]	; (10004200 <__wrap___aeabi_dmul+0x16>)
100041ce:	b5f0      	push	{r4, r5, r6, r7, lr}
100041d0:	6e14      	ldr	r4, [r2, #96]	; 0x60
100041d2:	6e55      	ldr	r5, [r2, #100]	; 0x64
100041d4:	6f57      	ldr	r7, [r2, #116]	; 0x74
100041d6:	6f16      	ldr	r6, [r2, #112]	; 0x70
100041d8:	4662      	mov	r2, ip
100041da:	f7ff ffee 	bl	100041ba <ddiv_shim_call>
100041de:	4a08      	ldr	r2, [pc, #32]	; (10004200 <__wrap___aeabi_dmul+0x16>)
100041e0:	6614      	str	r4, [r2, #96]	; 0x60
100041e2:	6655      	str	r5, [r2, #100]	; 0x64
100041e4:	6757      	str	r7, [r2, #116]	; 0x74
100041e6:	6716      	str	r6, [r2, #112]	; 0x70
100041e8:	bdf0      	pop	{r4, r5, r6, r7, pc}

100041ea <__wrap___aeabi_dmul>:
100041ea:	b418      	push	{r3, r4}
100041ec:	4b03      	ldr	r3, [pc, #12]	; (100041fc <__wrap___aeabi_dmul+0x12>)
100041ee:	689b      	ldr	r3, [r3, #8]
100041f0:	46fc      	mov	ip, pc
100041f2:	9301      	str	r3, [sp, #4]
100041f4:	bd08      	pop	{r3, pc}
100041f6:	df08      	.short	0xdf08
100041f8:	100045b1 	.word	0x100045b1
100041fc:	200081cc 	.word	0x200081cc
10004200:	d0000000 	.word	0xd0000000

10004204 <__wrap___aeabi_cdrcmple>:
10004204:	b5ff      	push	{r0, r1, r2, r3, r4, r5, r6, r7, lr}
10004206:	4050      	eors	r0, r2
10004208:	4042      	eors	r2, r0
1000420a:	4050      	eors	r0, r2
1000420c:	4059      	eors	r1, r3
1000420e:	404b      	eors	r3, r1
10004210:	4059      	eors	r1, r3
10004212:	e000      	b.n	10004216 <__aeabi_dfcmple_guts>

10004214 <__wrap___aeabi_cdcmpeq>:
10004214:	b5ff      	push	{r0, r1, r2, r3, r4, r5, r6, r7, lr}

10004216 <__aeabi_dfcmple_guts>:
10004216:	4f15      	ldr	r7, [pc, #84]	; (1000426c <__aeabi_dfcmple_guts+0x56>)
10004218:	004c      	lsls	r4, r1, #1
1000421a:	0d64      	lsrs	r4, r4, #21
1000421c:	d003      	beq.n	10004226 <__aeabi_dfcmple_guts+0x10>
1000421e:	42bc      	cmp	r4, r7
10004220:	d104      	bne.n	1000422c <__aeabi_dfcmple_guts+0x16>
10004222:	030c      	lsls	r4, r1, #12
10004224:	d814      	bhi.n	10004250 <__aeabi_dfcmple_guts+0x3a>
10004226:	2000      	movs	r0, #0
10004228:	0d09      	lsrs	r1, r1, #20
1000422a:	0509      	lsls	r1, r1, #20
1000422c:	005c      	lsls	r4, r3, #1
1000422e:	0d64      	lsrs	r4, r4, #21
10004230:	d003      	beq.n	1000423a <__aeabi_dfcmple_guts+0x24>
10004232:	42bc      	cmp	r4, r7
10004234:	d104      	bne.n	10004240 <__aeabi_dfcmple_guts+0x2a>
10004236:	031c      	lsls	r4, r3, #12
10004238:	d80a      	bhi.n	10004250 <__aeabi_dfcmple_guts+0x3a>
1000423a:	2200      	movs	r2, #0
1000423c:	0d1b      	lsrs	r3, r3, #20
1000423e:	051b      	lsls	r3, r3, #20
10004240:	2601      	movs	r6, #1
10004242:	404b      	eors	r3, r1
10004244:	d409      	bmi.n	1000425a <__aeabi_dfcmple_guts+0x44>
10004246:	404b      	eors	r3, r1
10004248:	d503      	bpl.n	10004252 <__aeabi_dfcmple_guts+0x3c>
1000424a:	428b      	cmp	r3, r1
1000424c:	d100      	bne.n	10004250 <__aeabi_dfcmple_guts+0x3a>
1000424e:	4282      	cmp	r2, r0
10004250:	bdff      	pop	{r0, r1, r2, r3, r4, r5, r6, r7, pc}
10004252:	4299      	cmp	r1, r3
10004254:	d1fc      	bne.n	10004250 <__aeabi_dfcmple_guts+0x3a>
10004256:	4290      	cmp	r0, r2
10004258:	bdff      	pop	{r0, r1, r2, r3, r4, r5, r6, r7, pc}
1000425a:	430b      	orrs	r3, r1
1000425c:	18db      	adds	r3, r3, r3
1000425e:	4303      	orrs	r3, r0
10004260:	4313      	orrs	r3, r2
10004262:	d0f5      	beq.n	10004250 <__aeabi_dfcmple_guts+0x3a>
10004264:	43c9      	mvns	r1, r1
10004266:	1849      	adds	r1, r1, r1
10004268:	bdff      	pop	{r0, r1, r2, r3, r4, r5, r6, r7, pc}
1000426a:	0000      	.short	0x0000
1000426c:	000007ff 	.word	0x000007ff

10004270 <__wrap___aeabi_dcmplt>:
10004270:	b500      	push	{lr}
10004272:	f7ff ffcf 	bl	10004214 <__wrap___aeabi_cdcmpeq>
10004276:	4180      	sbcs	r0, r0
10004278:	bd00      	pop	{pc}
1000427a:	46c0      	nop			; (mov r8, r8)

1000427c <__wrap___aeabi_dcmple>:
1000427c:	b500      	push	{lr}
1000427e:	f7ff ffc9 	bl	10004214 <__wrap___aeabi_cdcmpeq>
10004282:	d901      	bls.n	10004288 <__wrap___aeabi_dcmple+0xc>
10004284:	2000      	movs	r0, #0
10004286:	bd00      	pop	{pc}
10004288:	2001      	movs	r0, #1
1000428a:	bd00      	pop	{pc}

1000428c <__wrap___aeabi_dcmpge>:
1000428c:	b500      	push	{lr}
1000428e:	f7ff ffb9 	bl	10004204 <__wrap___aeabi_cdrcmple>
10004292:	d901      	bls.n	10004298 <__wrap___aeabi_dcmpge+0xc>
10004294:	2000      	movs	r0, #0
10004296:	bd00      	pop	{pc}
10004298:	2001      	movs	r0, #1
1000429a:	bd00      	pop	{pc}

1000429c <__wrap___aeabi_dcmpgt>:
1000429c:	b500      	push	{lr}
1000429e:	f7ff ffb1 	bl	10004204 <__wrap___aeabi_cdrcmple>
100042a2:	4180      	sbcs	r0, r0
100042a4:	bd00      	pop	{pc}

100042a6 <__wrap___aeabi_dcmpun>:
100042a6:	2001      	movs	r0, #1
100042a8:	0540      	lsls	r0, r0, #21
100042aa:	004a      	lsls	r2, r1, #1
100042ac:	1812      	adds	r2, r2, r0
100042ae:	d804      	bhi.n	100042ba <__wrap___aeabi_dcmpun+0x14>
100042b0:	005a      	lsls	r2, r3, #1
100042b2:	1812      	adds	r2, r2, r0
100042b4:	d801      	bhi.n	100042ba <__wrap___aeabi_dcmpun+0x14>
100042b6:	2000      	movs	r0, #0
100042b8:	4770      	bx	lr
100042ba:	2001      	movs	r0, #1
100042bc:	4770      	bx	lr
100042be:	2000      	movs	r0, #0
100042c0:	4770      	bx	lr
	...

100042c4 <__wrap___aeabi_ui2d>:
100042c4:	2100      	movs	r1, #0
100042c6:	2800      	cmp	r0, #0
100042c8:	d105      	bne.n	100042d6 <__wrap___aeabi_i2d+0xa>
100042ca:	4770      	bx	lr

100042cc <__wrap___aeabi_i2d>:
100042cc:	17c1      	asrs	r1, r0, #31
100042ce:	4048      	eors	r0, r1
100042d0:	1a40      	subs	r0, r0, r1
100042d2:	d0fa      	beq.n	100042ca <__wrap___aeabi_ui2d+0x6>
100042d4:	07c9      	lsls	r1, r1, #31
100042d6:	b513      	push	{r0, r1, r4, lr}
100042d8:	4b06      	ldr	r3, [pc, #24]	; (100042f4 <__wrap___aeabi_i2d+0x28>)
100042da:	681b      	ldr	r3, [r3, #0]
100042dc:	4798      	blx	r3
100042de:	bc0c      	pop	{r2, r3}
100042e0:	1c44      	adds	r4, r0, #1
100042e2:	40a2      	lsls	r2, r4
100042e4:	0510      	lsls	r0, r2, #20
100042e6:	0b12      	lsrs	r2, r2, #12
100042e8:	4903      	ldr	r1, [pc, #12]	; (100042f8 <__wrap___aeabi_i2d+0x2c>)
100042ea:	1b09      	subs	r1, r1, r4
100042ec:	0509      	lsls	r1, r1, #20
100042ee:	4319      	orrs	r1, r3
100042f0:	4311      	orrs	r1, r2
100042f2:	bd10      	pop	{r4, pc}
100042f4:	200083cc 	.word	0x200083cc
100042f8:	0000041f 	.word	0x0000041f

100042fc <__wrap___aeabi_d2iz>:
100042fc:	b510      	push	{r4, lr}
100042fe:	004c      	lsls	r4, r1, #1
10004300:	0d62      	lsrs	r2, r4, #21
10004302:	2380      	movs	r3, #128	; 0x80
10004304:	18d2      	adds	r2, r2, r3
10004306:	00db      	lsls	r3, r3, #3
10004308:	1ad2      	subs	r2, r2, r3
1000430a:	055b      	lsls	r3, r3, #21
1000430c:	2a7e      	cmp	r2, #126	; 0x7e
1000430e:	dd10      	ble.n	10004332 <__wrap___aeabi_d2iz+0x36>
10004310:	3a9e      	subs	r2, #158	; 0x9e
10004312:	da13      	bge.n	1000433c <__wrap___aeabi_d2iz+0x40>
10004314:	17cc      	asrs	r4, r1, #31
10004316:	0309      	lsls	r1, r1, #12
10004318:	0849      	lsrs	r1, r1, #1
1000431a:	4319      	orrs	r1, r3
1000431c:	4252      	negs	r2, r2
1000431e:	40d1      	lsrs	r1, r2
10004320:	0064      	lsls	r4, r4, #1
10004322:	3401      	adds	r4, #1
10004324:	3215      	adds	r2, #21
10004326:	2a20      	cmp	r2, #32
10004328:	da05      	bge.n	10004336 <__wrap___aeabi_d2iz+0x3a>
1000432a:	40d0      	lsrs	r0, r2
1000432c:	4308      	orrs	r0, r1
1000432e:	4360      	muls	r0, r4
10004330:	bd10      	pop	{r4, pc}
10004332:	2000      	movs	r0, #0
10004334:	bd10      	pop	{r4, pc}
10004336:	4608      	mov	r0, r1
10004338:	4360      	muls	r0, r4
1000433a:	bd10      	pop	{r4, pc}
1000433c:	0fc8      	lsrs	r0, r1, #31
1000433e:	18c0      	adds	r0, r0, r3
10004340:	3801      	subs	r0, #1
10004342:	bd10      	pop	{r4, pc}

10004344 <__wrap___aeabi_d2uiz>:
10004344:	b418      	push	{r3, r4}
10004346:	4b04      	ldr	r3, [pc, #16]	; (10004358 <__wrap___aeabi_d2uiz+0x14>)
10004348:	6a5b      	ldr	r3, [r3, #36]	; 0x24
1000434a:	46fc      	mov	ip, pc
1000434c:	9301      	str	r3, [sp, #4]
1000434e:	bd08      	pop	{r3, pc}
10004350:	4939df24 	.word	0x4939df24
10004354:	00001000 	.word	0x00001000
10004358:	200081cc 	.word	0x200081cc

1000435c <__aeabi_double_init>:
1000435c:	b570      	push	{r4, r5, r6, lr}
1000435e:	2313      	movs	r3, #19
10004360:	781c      	ldrb	r4, [r3, #0]
10004362:	2c01      	cmp	r4, #1
10004364:	d007      	beq.n	10004376 <__aeabi_double_init+0x1a>
10004366:	2c01      	cmp	r4, #1
10004368:	dc0e      	bgt.n	10004388 <__aeabi_double_init+0x2c>
1000436a:	2c02      	cmp	r4, #2
1000436c:	dc02      	bgt.n	10004374 <__aeabi_double_init+0x18>
1000436e:	4a1c      	ldr	r2, [pc, #112]	; (100043e0 <__aeabi_double_init+0x84>)
10004370:	4b1c      	ldr	r3, [pc, #112]	; (100043e4 <__aeabi_double_init+0x88>)
10004372:	649a      	str	r2, [r3, #72]	; 0x48
10004374:	bd70      	pop	{r4, r5, r6, pc}
10004376:	2300      	movs	r3, #0
10004378:	2b1f      	cmp	r3, #31
1000437a:	d8f4      	bhi.n	10004366 <__aeabi_double_init+0xa>
1000437c:	0099      	lsls	r1, r3, #2
1000437e:	4818      	ldr	r0, [pc, #96]	; (100043e0 <__aeabi_double_init+0x84>)
10004380:	4a18      	ldr	r2, [pc, #96]	; (100043e4 <__aeabi_double_init+0x88>)
10004382:	5088      	str	r0, [r1, r2]
10004384:	3301      	adds	r3, #1
10004386:	e7f7      	b.n	10004378 <__aeabi_double_init+0x1c>
10004388:	4817      	ldr	r0, [pc, #92]	; (100043e8 <__aeabi_double_init+0x8c>)
1000438a:	f7ff fc71 	bl	10003c70 <rom_data_lookup>
1000438e:	0005      	movs	r5, r0
10004390:	4816      	ldr	r0, [pc, #88]	; (100043ec <__aeabi_double_init+0x90>)
10004392:	f7ff fc6d 	bl	10003c70 <rom_data_lookup>
10004396:	3802      	subs	r0, #2
10004398:	7803      	ldrb	r3, [r0, #0]
1000439a:	009b      	lsls	r3, r3, #2
1000439c:	2b7f      	cmp	r3, #127	; 0x7f
1000439e:	dd19      	ble.n	100043d4 <__aeabi_double_init+0x78>
100043a0:	2280      	movs	r2, #128	; 0x80
100043a2:	0029      	movs	r1, r5
100043a4:	480f      	ldr	r0, [pc, #60]	; (100043e4 <__aeabi_double_init+0x88>)
100043a6:	f000 fc25 	bl	10004bf4 <__wrap___aeabi_memcpy>
100043aa:	2c02      	cmp	r4, #2
100043ac:	d1dd      	bne.n	1000436a <__aeabi_double_init+0xe>
100043ae:	4b10      	ldr	r3, [pc, #64]	; (100043f0 <__aeabi_double_init+0x94>)
100043b0:	881a      	ldrh	r2, [r3, #0]
100043b2:	23b5      	movs	r3, #181	; 0xb5
100043b4:	021b      	lsls	r3, r3, #8
100043b6:	429a      	cmp	r2, r3
100043b8:	d109      	bne.n	100043ce <__aeabi_double_init+0x72>
100043ba:	4b0e      	ldr	r3, [pc, #56]	; (100043f4 <__aeabi_double_init+0x98>)
100043bc:	881a      	ldrh	r2, [r3, #0]
100043be:	4b0e      	ldr	r3, [pc, #56]	; (100043f8 <__aeabi_double_init+0x9c>)
100043c0:	429a      	cmp	r2, r3
100043c2:	d104      	bne.n	100043ce <__aeabi_double_init+0x72>
100043c4:	4b0d      	ldr	r3, [pc, #52]	; (100043fc <__aeabi_double_init+0xa0>)
100043c6:	881a      	ldrh	r2, [r3, #0]
100043c8:	4b0d      	ldr	r3, [pc, #52]	; (10004400 <__aeabi_double_init+0xa4>)
100043ca:	429a      	cmp	r2, r3
100043cc:	d0cd      	beq.n	1000436a <__aeabi_double_init+0xe>
100043ce:	2000      	movs	r0, #0
100043d0:	f7fd ffc8 	bl	10002364 <panic>
100043d4:	4b0b      	ldr	r3, [pc, #44]	; (10004404 <__aeabi_double_init+0xa8>)
100043d6:	4a0c      	ldr	r2, [pc, #48]	; (10004408 <__aeabi_double_init+0xac>)
100043d8:	2130      	movs	r1, #48	; 0x30
100043da:	480c      	ldr	r0, [pc, #48]	; (1000440c <__aeabi_double_init+0xb0>)
100043dc:	f7fd ffa4 	bl	10002328 <__assert_func>
100043e0:	10004411 	.word	0x10004411
100043e4:	200081cc 	.word	0x200081cc
100043e8:	00004453 	.word	0x00004453
100043ec:	00004653 	.word	0x00004653
100043f0:	00003854 	.word	0x00003854
100043f4:	000038d8 	.word	0x000038d8
100043f8:	00004649 	.word	0x00004649
100043fc:	0000389c 	.word	0x0000389c
10004400:	00004659 	.word	0x00004659
10004404:	100062f0 	.word	0x100062f0
10004408:	100063a4 	.word	0x100063a4
1000440c:	10006350 	.word	0x10006350

10004410 <double_table_shim_on_use_helper>:
10004410:	b507      	push	{r0, r1, r2, lr}
10004412:	4660      	mov	r0, ip
10004414:	2800      	cmp	r0, #0
10004416:	d100      	bne.n	1000441a <double_table_shim_on_use_helper+0xa>
10004418:	be00      	bkpt	0x0000
1000441a:	8801      	ldrh	r1, [r0, #0]
1000441c:	0a0a      	lsrs	r2, r1, #8
1000441e:	3002      	adds	r0, #2
10004420:	2adf      	cmp	r2, #223	; 0xdf
10004422:	d1fa      	bne.n	1000441a <double_table_shim_on_use_helper+0xa>
10004424:	b2c9      	uxtb	r1, r1
10004426:	0882      	lsrs	r2, r0, #2
10004428:	d304      	bcc.n	10004434 <double_table_shim_on_use_helper+0x24>
1000442a:	8802      	ldrh	r2, [r0, #0]
1000442c:	8840      	ldrh	r0, [r0, #2]
1000442e:	0400      	lsls	r0, r0, #16
10004430:	4310      	orrs	r0, r2
10004432:	e000      	b.n	10004436 <double_table_shim_on_use_helper+0x26>
10004434:	6800      	ldr	r0, [r0, #0]
10004436:	4a02      	ldr	r2, [pc, #8]	; (10004440 <double_table_shim_on_use_helper+0x30>)
10004438:	5050      	str	r0, [r2, r1]
1000443a:	9003      	str	r0, [sp, #12]
1000443c:	bd07      	pop	{r0, r1, r2, pc}
1000443e:	0000      	.short	0x0000
10004440:	200081cc 	.word	0x200081cc

10004444 <drsub_shim>:
10004444:	b40f      	push	{r0, r1, r2, r3}
10004446:	bc03      	pop	{r0, r1}
10004448:	bc0c      	pop	{r2, r3}

1000444a <dsub_shim>:
1000444a:	b5f0      	push	{r4, r5, r6, r7, lr}
1000444c:	2401      	movs	r4, #1
1000444e:	07e4      	lsls	r4, r4, #31
10004450:	4063      	eors	r3, r4
10004452:	e000      	b.n	10004456 <da_entry>

10004454 <dadd_shim>:
10004454:	b5f0      	push	{r4, r5, r6, r7, lr}

10004456 <da_entry>:
10004456:	0d0c      	lsrs	r4, r1, #20
10004458:	0fcf      	lsrs	r7, r1, #31
1000445a:	1e66      	subs	r6, r4, #1
1000445c:	0536      	lsls	r6, r6, #20
1000445e:	1b89      	subs	r1, r1, r6
10004460:	0564      	lsls	r4, r4, #21
10004462:	d303      	bcc.n	1000446c <l7_1>
10004464:	43c9      	mvns	r1, r1
10004466:	4240      	negs	r0, r0
10004468:	d300      	bcc.n	1000446c <l7_1>
1000446a:	3101      	adds	r1, #1

1000446c <l7_1>:
1000446c:	0d64      	lsrs	r4, r4, #21
1000446e:	d003      	beq.n	10004478 <l7_2>
10004470:	1c66      	adds	r6, r4, #1
10004472:	0af6      	lsrs	r6, r6, #11
10004474:	d007      	beq.n	10004486 <l7_3>
10004476:	1be4      	subs	r4, r4, r7

10004478 <l7_2>:
10004478:	2000      	movs	r0, #0
1000447a:	007f      	lsls	r7, r7, #1
1000447c:	1c79      	adds	r1, r7, #1
1000447e:	0789      	lsls	r1, r1, #30
10004480:	1289      	asrs	r1, r1, #10
10004482:	3c80      	subs	r4, #128	; 0x80
10004484:	0324      	lsls	r4, r4, #12

10004486 <l7_3>:
10004486:	0d1d      	lsrs	r5, r3, #20
10004488:	0fdf      	lsrs	r7, r3, #31
1000448a:	1e6e      	subs	r6, r5, #1
1000448c:	0536      	lsls	r6, r6, #20
1000448e:	1b9b      	subs	r3, r3, r6
10004490:	056d      	lsls	r5, r5, #21
10004492:	d303      	bcc.n	1000449c <l8_1>
10004494:	43db      	mvns	r3, r3
10004496:	4252      	negs	r2, r2
10004498:	d300      	bcc.n	1000449c <l8_1>
1000449a:	3301      	adds	r3, #1

1000449c <l8_1>:
1000449c:	0d6d      	lsrs	r5, r5, #21
1000449e:	d003      	beq.n	100044a8 <l8_2>
100044a0:	1c6e      	adds	r6, r5, #1
100044a2:	0af6      	lsrs	r6, r6, #11
100044a4:	d007      	beq.n	100044b6 <l8_3>
100044a6:	1bed      	subs	r5, r5, r7

100044a8 <l8_2>:
100044a8:	2200      	movs	r2, #0
100044aa:	007f      	lsls	r7, r7, #1
100044ac:	1c7b      	adds	r3, r7, #1
100044ae:	079b      	lsls	r3, r3, #30
100044b0:	129b      	asrs	r3, r3, #10
100044b2:	3d80      	subs	r5, #128	; 0x80
100044b4:	032d      	lsls	r5, r5, #12

100044b6 <l8_3>:
100044b6:	1b2f      	subs	r7, r5, r4
100044b8:	1b66      	subs	r6, r4, r5
100044ba:	d458      	bmi.n	1000456e <da_ygtx>
100044bc:	46a4      	mov	ip, r4
100044be:	2e20      	cmp	r6, #32
100044c0:	da46      	bge.n	10004550 <da_xrgty>
100044c2:	3720      	adds	r7, #32
100044c4:	0014      	movs	r4, r2
100044c6:	40bc      	lsls	r4, r7

100044c8 <da_xgty0>:
100044c8:	001d      	movs	r5, r3
100044ca:	40bd      	lsls	r5, r7
100044cc:	40f2      	lsrs	r2, r6
100044ce:	4133      	asrs	r3, r6
100044d0:	432a      	orrs	r2, r5

100044d2 <da_add>:
100044d2:	1880      	adds	r0, r0, r2
100044d4:	4159      	adcs	r1, r3

100044d6 <da_pack>:
100044d6:	0fcb      	lsrs	r3, r1, #31
100044d8:	d005      	beq.n	100044e6 <da_pack+0x10>
100044da:	43c9      	mvns	r1, r1
100044dc:	43c0      	mvns	r0, r0
100044de:	2200      	movs	r2, #0
100044e0:	4264      	negs	r4, r4
100044e2:	4150      	adcs	r0, r2
100044e4:	4151      	adcs	r1, r2
100044e6:	4662      	mov	r2, ip
100044e8:	0d4d      	lsrs	r5, r1, #21
100044ea:	d128      	bne.n	1000453e <da_0>
100044ec:	0d0d      	lsrs	r5, r1, #20
100044ee:	d107      	bne.n	10004500 <da_1>
100044f0:	2800      	cmp	r0, #0
100044f2:	d01f      	beq.n	10004534 <da_5>

100044f4 <da_2>:
100044f4:	1924      	adds	r4, r4, r4
100044f6:	4140      	adcs	r0, r0
100044f8:	4149      	adcs	r1, r1
100044fa:	3a01      	subs	r2, #1
100044fc:	0d0d      	lsrs	r5, r1, #20
100044fe:	d0f9      	beq.n	100044f4 <da_2>

10004500 <da_1>:
10004500:	0064      	lsls	r4, r4, #1
10004502:	d306      	bcc.n	10004512 <da_3>

10004504 <da_4>:
10004504:	3001      	adds	r0, #1
10004506:	d300      	bcc.n	1000450a <da_4+0x6>
10004508:	3101      	adds	r1, #1
1000450a:	2c00      	cmp	r4, #0
1000450c:	d101      	bne.n	10004512 <da_3>
1000450e:	0840      	lsrs	r0, r0, #1
10004510:	0040      	lsls	r0, r0, #1

10004512 <da_3>:
10004512:	3a01      	subs	r2, #1
10004514:	d40b      	bmi.n	1000452e <da_6>
10004516:	1c94      	adds	r4, r2, #2
10004518:	0ae4      	lsrs	r4, r4, #11
1000451a:	d104      	bne.n	10004526 <da_7>
1000451c:	0512      	lsls	r2, r2, #20
1000451e:	4411      	add	r1, r2
10004520:	07db      	lsls	r3, r3, #31
10004522:	4419      	add	r1, r3
10004524:	bdf0      	pop	{r4, r5, r6, r7, pc}

10004526 <da_7>:
10004526:	07d9      	lsls	r1, r3, #31
10004528:	4b20      	ldr	r3, [pc, #128]	; (100045ac <da_xmgty+0x4>)
1000452a:	4319      	orrs	r1, r3
1000452c:	e000      	b.n	10004530 <da_6+0x2>

1000452e <da_6>:
1000452e:	07d9      	lsls	r1, r3, #31
10004530:	2000      	movs	r0, #0
10004532:	bdf0      	pop	{r4, r5, r6, r7, pc}

10004534 <da_5>:
10004534:	2900      	cmp	r1, #0
10004536:	d1dd      	bne.n	100044f4 <da_2>
10004538:	2c00      	cmp	r4, #0
1000453a:	d1db      	bne.n	100044f4 <da_2>
1000453c:	bdf0      	pop	{r4, r5, r6, r7, pc}

1000453e <da_0>:
1000453e:	3201      	adds	r2, #1
10004540:	07c6      	lsls	r6, r0, #31
10004542:	0840      	lsrs	r0, r0, #1
10004544:	07cd      	lsls	r5, r1, #31
10004546:	4328      	orrs	r0, r5
10004548:	0849      	lsrs	r1, r1, #1
1000454a:	2e00      	cmp	r6, #0
1000454c:	d0e1      	beq.n	10004512 <da_3>
1000454e:	e7d9      	b.n	10004504 <da_4>

10004550 <da_xrgty>:
10004550:	2e3c      	cmp	r6, #60	; 0x3c
10004552:	da29      	bge.n	100045a8 <da_xmgty>
10004554:	3e20      	subs	r6, #32
10004556:	3740      	adds	r7, #64	; 0x40
10004558:	0014      	movs	r4, r2
1000455a:	40bc      	lsls	r4, r7
1000455c:	d000      	beq.n	10004560 <da_xrgty+0x10>
1000455e:	2401      	movs	r4, #1
10004560:	40f2      	lsrs	r2, r6
10004562:	4314      	orrs	r4, r2
10004564:	001a      	movs	r2, r3
10004566:	40bb      	lsls	r3, r7
10004568:	431c      	orrs	r4, r3
1000456a:	17d3      	asrs	r3, r2, #31
1000456c:	e7ac      	b.n	100044c8 <da_xgty0>

1000456e <da_ygtx>:
1000456e:	46ac      	mov	ip, r5
10004570:	2f20      	cmp	r7, #32
10004572:	da08      	bge.n	10004586 <da_yrgtx>
10004574:	3620      	adds	r6, #32
10004576:	0004      	movs	r4, r0
10004578:	40b4      	lsls	r4, r6

1000457a <da_ygtx0>:
1000457a:	000d      	movs	r5, r1
1000457c:	40b5      	lsls	r5, r6
1000457e:	40f8      	lsrs	r0, r7
10004580:	4139      	asrs	r1, r7
10004582:	4328      	orrs	r0, r5
10004584:	e7a5      	b.n	100044d2 <da_add>

10004586 <da_yrgtx>:
10004586:	2f3c      	cmp	r7, #60	; 0x3c
10004588:	da0c      	bge.n	100045a4 <da_ymgtx>
1000458a:	3f20      	subs	r7, #32
1000458c:	3640      	adds	r6, #64	; 0x40
1000458e:	0004      	movs	r4, r0
10004590:	40b4      	lsls	r4, r6
10004592:	d000      	beq.n	10004596 <da_yrgtx+0x10>
10004594:	2401      	movs	r4, #1
10004596:	40f8      	lsrs	r0, r7
10004598:	4304      	orrs	r4, r0
1000459a:	0008      	movs	r0, r1
1000459c:	40b1      	lsls	r1, r6
1000459e:	430c      	orrs	r4, r1
100045a0:	17c1      	asrs	r1, r0, #31
100045a2:	e7ea      	b.n	1000457a <da_ygtx0>

100045a4 <da_ymgtx>:
100045a4:	0010      	movs	r0, r2
100045a6:	0019      	movs	r1, r3

100045a8 <da_xmgty>:
100045a8:	2400      	movs	r4, #0
100045aa:	e794      	b.n	100044d6 <da_pack>
100045ac:	7ff00000 	.word	0x7ff00000

100045b0 <dmul_shim>:
100045b0:	b5f0      	push	{r4, r5, r6, r7, lr}
100045b2:	0d0c      	lsrs	r4, r1, #20
100045b4:	1e66      	subs	r6, r4, #1
100045b6:	0536      	lsls	r6, r6, #20
100045b8:	1b89      	subs	r1, r1, r6
100045ba:	0ae6      	lsrs	r6, r4, #11
100045bc:	0564      	lsls	r4, r4, #21
100045be:	0d64      	lsrs	r4, r4, #21
100045c0:	d002      	beq.n	100045c8 <l11_1>
100045c2:	1c65      	adds	r5, r4, #1
100045c4:	0aed      	lsrs	r5, r5, #11
100045c6:	d004      	beq.n	100045d2 <l11_2>

100045c8 <l11_1>:
100045c8:	2000      	movs	r0, #0
100045ca:	2101      	movs	r1, #1
100045cc:	0509      	lsls	r1, r1, #20
100045ce:	3c80      	subs	r4, #128	; 0x80
100045d0:	0324      	lsls	r4, r4, #12

100045d2 <l11_2>:
100045d2:	46a4      	mov	ip, r4
100045d4:	0d1c      	lsrs	r4, r3, #20
100045d6:	1e67      	subs	r7, r4, #1
100045d8:	053f      	lsls	r7, r7, #20
100045da:	1bdb      	subs	r3, r3, r7
100045dc:	0ae7      	lsrs	r7, r4, #11
100045de:	0564      	lsls	r4, r4, #21
100045e0:	0d64      	lsrs	r4, r4, #21
100045e2:	d002      	beq.n	100045ea <l12_1>
100045e4:	1c65      	adds	r5, r4, #1
100045e6:	0aed      	lsrs	r5, r5, #11
100045e8:	d004      	beq.n	100045f4 <l12_2>

100045ea <l12_1>:
100045ea:	2200      	movs	r2, #0
100045ec:	2301      	movs	r3, #1
100045ee:	051b      	lsls	r3, r3, #20
100045f0:	3c80      	subs	r4, #128	; 0x80
100045f2:	0324      	lsls	r4, r4, #12

100045f4 <l12_2>:
100045f4:	4077      	eors	r7, r6
100045f6:	4464      	add	r4, ip
100045f8:	b497      	push	{r0, r1, r2, r4, r7}
100045fa:	b284      	uxth	r4, r0
100045fc:	b296      	uxth	r6, r2
100045fe:	4374      	muls	r4, r6
10004600:	0c07      	lsrs	r7, r0, #16
10004602:	437e      	muls	r6, r7
10004604:	0c15      	lsrs	r5, r2, #16
10004606:	436f      	muls	r7, r5
10004608:	b280      	uxth	r0, r0
1000460a:	4368      	muls	r0, r5
1000460c:	1836      	adds	r6, r6, r0
1000460e:	d302      	bcc.n	10004616 <l13_1>
10004610:	2001      	movs	r0, #1
10004612:	0400      	lsls	r0, r0, #16
10004614:	183f      	adds	r7, r7, r0

10004616 <l13_1>:
10004616:	0430      	lsls	r0, r6, #16
10004618:	0c35      	lsrs	r5, r6, #16
1000461a:	1900      	adds	r0, r0, r4
1000461c:	417d      	adcs	r5, r7
1000461e:	4684      	mov	ip, r0
10004620:	b288      	uxth	r0, r1
10004622:	b29a      	uxth	r2, r3
10004624:	4350      	muls	r0, r2
10004626:	0c0c      	lsrs	r4, r1, #16
10004628:	4362      	muls	r2, r4
1000462a:	0c1f      	lsrs	r7, r3, #16
1000462c:	437c      	muls	r4, r7
1000462e:	b28e      	uxth	r6, r1
10004630:	437e      	muls	r6, r7
10004632:	1992      	adds	r2, r2, r6
10004634:	d302      	bcc.n	1000463c <l14_1>
10004636:	2601      	movs	r6, #1
10004638:	0436      	lsls	r6, r6, #16
1000463a:	19a4      	adds	r4, r4, r6

1000463c <l14_1>:
1000463c:	0416      	lsls	r6, r2, #16
1000463e:	0c17      	lsrs	r7, r2, #16
10004640:	1836      	adds	r6, r6, r0
10004642:	4167      	adcs	r7, r4
10004644:	bc01      	pop	{r0}
10004646:	b281      	uxth	r1, r0
10004648:	b29a      	uxth	r2, r3
1000464a:	4351      	muls	r1, r2
1000464c:	0c04      	lsrs	r4, r0, #16
1000464e:	4362      	muls	r2, r4
10004650:	0c1b      	lsrs	r3, r3, #16
10004652:	435c      	muls	r4, r3
10004654:	b280      	uxth	r0, r0
10004656:	4358      	muls	r0, r3
10004658:	1812      	adds	r2, r2, r0
1000465a:	d302      	bcc.n	10004662 <l15_1>
1000465c:	2001      	movs	r0, #1
1000465e:	0400      	lsls	r0, r0, #16
10004660:	1824      	adds	r4, r4, r0

10004662 <l15_1>:
10004662:	0410      	lsls	r0, r2, #16
10004664:	0c13      	lsrs	r3, r2, #16
10004666:	1840      	adds	r0, r0, r1
10004668:	4163      	adcs	r3, r4
1000466a:	182d      	adds	r5, r5, r0
1000466c:	415e      	adcs	r6, r3
1000466e:	2000      	movs	r0, #0
10004670:	4147      	adcs	r7, r0
10004672:	bc06      	pop	{r1, r2}
10004674:	b288      	uxth	r0, r1
10004676:	b293      	uxth	r3, r2
10004678:	4358      	muls	r0, r3
1000467a:	0c0c      	lsrs	r4, r1, #16
1000467c:	4363      	muls	r3, r4
1000467e:	0c12      	lsrs	r2, r2, #16
10004680:	4354      	muls	r4, r2
10004682:	b289      	uxth	r1, r1
10004684:	4351      	muls	r1, r2
10004686:	185b      	adds	r3, r3, r1
10004688:	d302      	bcc.n	10004690 <l16_1>
1000468a:	2101      	movs	r1, #1
1000468c:	0409      	lsls	r1, r1, #16
1000468e:	1864      	adds	r4, r4, r1

10004690 <l16_1>:
10004690:	0419      	lsls	r1, r3, #16
10004692:	0c1a      	lsrs	r2, r3, #16
10004694:	1809      	adds	r1, r1, r0
10004696:	4162      	adcs	r2, r4
10004698:	186d      	adds	r5, r5, r1
1000469a:	4156      	adcs	r6, r2
1000469c:	2000      	movs	r0, #0
1000469e:	4147      	adcs	r7, r0
100046a0:	bc18      	pop	{r3, r4}
100046a2:	02f9      	lsls	r1, r7, #11
100046a4:	0d72      	lsrs	r2, r6, #21
100046a6:	4311      	orrs	r1, r2
100046a8:	02f0      	lsls	r0, r6, #11
100046aa:	0d6a      	lsrs	r2, r5, #21
100046ac:	4310      	orrs	r0, r2
100046ae:	02ed      	lsls	r5, r5, #11
100046b0:	0d0a      	lsrs	r2, r1, #20
100046b2:	d103      	bne.n	100046bc <l16_1+0x2c>
100046b4:	196d      	adds	r5, r5, r5
100046b6:	4140      	adcs	r0, r0
100046b8:	4149      	adcs	r1, r1
100046ba:	3b01      	subs	r3, #1
100046bc:	4e12      	ldr	r6, [pc, #72]	; (10004708 <dm_1+0xa>)
100046be:	1b9b      	subs	r3, r3, r6
100046c0:	0076      	lsls	r6, r6, #1
100046c2:	42b3      	cmp	r3, r6
100046c4:	d20e      	bcs.n	100046e4 <dm_0>
100046c6:	006d      	lsls	r5, r5, #1
100046c8:	d307      	bcc.n	100046da <l16_1+0x4a>
100046ca:	3001      	adds	r0, #1
100046cc:	2600      	movs	r6, #0
100046ce:	4171      	adcs	r1, r6
100046d0:	4666      	mov	r6, ip
100046d2:	4335      	orrs	r5, r6
100046d4:	d101      	bne.n	100046da <l16_1+0x4a>
100046d6:	0840      	lsrs	r0, r0, #1
100046d8:	0040      	lsls	r0, r0, #1
100046da:	051b      	lsls	r3, r3, #20
100046dc:	18c9      	adds	r1, r1, r3

100046de <dm_2>:
100046de:	07e4      	lsls	r4, r4, #31
100046e0:	4421      	add	r1, r4
100046e2:	bdf0      	pop	{r4, r5, r6, r7, pc}

100046e4 <dm_0>:
100046e4:	da0b      	bge.n	100046fe <dm_1>
100046e6:	3301      	adds	r3, #1
100046e8:	d106      	bne.n	100046f8 <dm_0+0x14>
100046ea:	3001      	adds	r0, #1
100046ec:	d104      	bne.n	100046f8 <dm_0+0x14>
100046ee:	3101      	adds	r1, #1
100046f0:	0d4f      	lsrs	r7, r1, #21
100046f2:	d001      	beq.n	100046f8 <dm_0+0x14>
100046f4:	0849      	lsrs	r1, r1, #1
100046f6:	e7f2      	b.n	100046de <dm_2>
100046f8:	07e1      	lsls	r1, r4, #31
100046fa:	2000      	movs	r0, #0
100046fc:	bdf0      	pop	{r4, r5, r6, r7, pc}

100046fe <dm_1>:
100046fe:	3601      	adds	r6, #1
10004700:	0531      	lsls	r1, r6, #20
10004702:	2000      	movs	r0, #0
10004704:	e7eb      	b.n	100046de <dm_2>
10004706:	0000      	.short	0x0000
10004708:	000003ff 	.word	0x000003ff

1000470c <ddiv_shim>:
1000470c:	b5f0      	push	{r4, r5, r6, r7, lr}

1000470e <ddiv0>:
1000470e:	0d1c      	lsrs	r4, r3, #20
10004710:	1e67      	subs	r7, r4, #1
10004712:	053f      	lsls	r7, r7, #20
10004714:	1bdb      	subs	r3, r3, r7
10004716:	0ae7      	lsrs	r7, r4, #11
10004718:	0564      	lsls	r4, r4, #21
1000471a:	0d64      	lsrs	r4, r4, #21
1000471c:	d002      	beq.n	10004724 <l19_1>
1000471e:	1c66      	adds	r6, r4, #1
10004720:	0af6      	lsrs	r6, r6, #11
10004722:	d004      	beq.n	1000472e <l19_2>

10004724 <l19_1>:
10004724:	2200      	movs	r2, #0
10004726:	2301      	movs	r3, #1
10004728:	051b      	lsls	r3, r3, #20
1000472a:	3c80      	subs	r4, #128	; 0x80
1000472c:	0324      	lsls	r4, r4, #12

1000472e <l19_2>:
1000472e:	25d0      	movs	r5, #208	; 0xd0
10004730:	062d      	lsls	r5, r5, #24
10004732:	2600      	movs	r6, #0
10004734:	43f6      	mvns	r6, r6
10004736:	662e      	str	r6, [r5, #96]	; 0x60
10004738:	091e      	lsrs	r6, r3, #4
1000473a:	666e      	str	r6, [r5, #100]	; 0x64
1000473c:	0fce      	lsrs	r6, r1, #31
1000473e:	19f6      	adds	r6, r6, r7
10004740:	46b4      	mov	ip, r6
10004742:	0049      	lsls	r1, r1, #1
10004744:	0d4f      	lsrs	r7, r1, #21
10004746:	d002      	beq.n	1000474e <l19_2+0x20>
10004748:	1c7e      	adds	r6, r7, #1
1000474a:	0af6      	lsrs	r6, r6, #11
1000474c:	d003      	beq.n	10004756 <l19_2+0x28>
1000474e:	2000      	movs	r0, #0
10004750:	2100      	movs	r1, #0
10004752:	3f40      	subs	r7, #64	; 0x40
10004754:	033f      	lsls	r7, r7, #12
10004756:	1b3e      	subs	r6, r7, r4
10004758:	00b6      	lsls	r6, r6, #2
1000475a:	44b4      	add	ip, r6
1000475c:	3f01      	subs	r7, #1
1000475e:	057f      	lsls	r7, r7, #21
10004760:	1bc9      	subs	r1, r1, r7
10004762:	0849      	lsrs	r1, r1, #1
10004764:	6f2e      	ldr	r6, [r5, #112]	; 0x70
10004766:	3601      	adds	r6, #1
10004768:	0876      	lsrs	r6, r6, #1
1000476a:	029c      	lsls	r4, r3, #10
1000476c:	0d95      	lsrs	r5, r2, #22
1000476e:	4325      	orrs	r5, r4
10004770:	4375      	muls	r5, r6
10004772:	13ed      	asrs	r5, r5, #15
10004774:	4375      	muls	r5, r6
10004776:	13ad      	asrs	r5, r5, #14
10004778:	3501      	adds	r5, #1
1000477a:	106d      	asrs	r5, r5, #1
1000477c:	03f6      	lsls	r6, r6, #15
1000477e:	1b76      	subs	r6, r6, r5
10004780:	b40c      	push	{r2, r3}
10004782:	02cc      	lsls	r4, r1, #11
10004784:	0d45      	lsrs	r5, r0, #21
10004786:	432c      	orrs	r4, r5
10004788:	b2a2      	uxth	r2, r4
1000478a:	b2b3      	uxth	r3, r6
1000478c:	435a      	muls	r2, r3
1000478e:	0c27      	lsrs	r7, r4, #16
10004790:	437b      	muls	r3, r7
10004792:	0c35      	lsrs	r5, r6, #16
10004794:	436f      	muls	r7, r5
10004796:	b2a4      	uxth	r4, r4
10004798:	436c      	muls	r4, r5
1000479a:	191b      	adds	r3, r3, r4
1000479c:	d302      	bcc.n	100047a4 <l20_1>
1000479e:	2401      	movs	r4, #1
100047a0:	0424      	lsls	r4, r4, #16
100047a2:	193f      	adds	r7, r7, r4

100047a4 <l20_1>:
100047a4:	041c      	lsls	r4, r3, #16
100047a6:	0c1d      	lsrs	r5, r3, #16
100047a8:	18a4      	adds	r4, r4, r2
100047aa:	417d      	adcs	r5, r7
100047ac:	1924      	adds	r4, r4, r4
100047ae:	416d      	adcs	r5, r5
100047b0:	9a00      	ldr	r2, [sp, #0]
100047b2:	b291      	uxth	r1, r2
100047b4:	b2ac      	uxth	r4, r5
100047b6:	4361      	muls	r1, r4
100047b8:	0c17      	lsrs	r7, r2, #16
100047ba:	437c      	muls	r4, r7
100047bc:	0c2b      	lsrs	r3, r5, #16
100047be:	435f      	muls	r7, r3
100047c0:	b292      	uxth	r2, r2
100047c2:	435a      	muls	r2, r3
100047c4:	18a4      	adds	r4, r4, r2
100047c6:	d302      	bcc.n	100047ce <l21_1>
100047c8:	2201      	movs	r2, #1
100047ca:	0412      	lsls	r2, r2, #16
100047cc:	18bf      	adds	r7, r7, r2

100047ce <l21_1>:
100047ce:	0422      	lsls	r2, r4, #16
100047d0:	0c23      	lsrs	r3, r4, #16
100047d2:	1852      	adds	r2, r2, r1
100047d4:	417b      	adcs	r3, r7
100047d6:	9c01      	ldr	r4, [sp, #4]
100047d8:	436c      	muls	r4, r5
100047da:	191b      	adds	r3, r3, r4
100047dc:	0e52      	lsrs	r2, r2, #25
100047de:	01d9      	lsls	r1, r3, #7
100047e0:	430a      	orrs	r2, r1
100047e2:	0144      	lsls	r4, r0, #5
100047e4:	1aa0      	subs	r0, r4, r2
100047e6:	b281      	uxth	r1, r0
100047e8:	b2b2      	uxth	r2, r6
100047ea:	4351      	muls	r1, r2
100047ec:	1403      	asrs	r3, r0, #16
100047ee:	435a      	muls	r2, r3
100047f0:	0c36      	lsrs	r6, r6, #16
100047f2:	4373      	muls	r3, r6
100047f4:	b287      	uxth	r7, r0
100047f6:	4377      	muls	r7, r6
100047f8:	17d6      	asrs	r6, r2, #31
100047fa:	19d2      	adds	r2, r2, r7
100047fc:	2700      	movs	r7, #0
100047fe:	417e      	adcs	r6, r7
10004800:	0436      	lsls	r6, r6, #16
10004802:	199b      	adds	r3, r3, r6
10004804:	0417      	lsls	r7, r2, #16
10004806:	0c16      	lsrs	r6, r2, #16
10004808:	187f      	adds	r7, r7, r1
1000480a:	415e      	adcs	r6, r3
1000480c:	1673      	asrs	r3, r6, #25
1000480e:	18ed      	adds	r5, r5, r3
10004810:	01f3      	lsls	r3, r6, #7
10004812:	2600      	movs	r6, #0
10004814:	3380      	adds	r3, #128	; 0x80
10004816:	4175      	adcs	r5, r6
10004818:	0fa9      	lsrs	r1, r5, #30
1000481a:	d106      	bne.n	1000482a <dd_0>
1000481c:	0064      	lsls	r4, r4, #1
1000481e:	0a69      	lsrs	r1, r5, #9
10004820:	05e8      	lsls	r0, r5, #23
10004822:	0a5b      	lsrs	r3, r3, #9
10004824:	4318      	orrs	r0, r3
10004826:	d209      	bcs.n	1000483c <dd_1>
10004828:	e02f      	b.n	1000488a <dd_2>

1000482a <dd_0>:
1000482a:	2204      	movs	r2, #4
1000482c:	4494      	add	ip, r2
1000482e:	3380      	adds	r3, #128	; 0x80
10004830:	4175      	adcs	r5, r6
10004832:	0aa9      	lsrs	r1, r5, #10
10004834:	05a8      	lsls	r0, r5, #22
10004836:	0a9b      	lsrs	r3, r3, #10
10004838:	4318      	orrs	r0, r3
1000483a:	d326      	bcc.n	1000488a <dd_2>

1000483c <dd_1>:
1000483c:	4140      	adcs	r0, r0
1000483e:	4149      	adcs	r1, r1
10004840:	0424      	lsls	r4, r4, #16
10004842:	9a00      	ldr	r2, [sp, #0]
10004844:	9b01      	ldr	r3, [sp, #4]
10004846:	000d      	movs	r5, r1
10004848:	4355      	muls	r5, r2
1000484a:	1b64      	subs	r4, r4, r5
1000484c:	4343      	muls	r3, r0
1000484e:	1ae4      	subs	r4, r4, r3
10004850:	b295      	uxth	r5, r2
10004852:	b286      	uxth	r6, r0
10004854:	4375      	muls	r5, r6
10004856:	0c17      	lsrs	r7, r2, #16
10004858:	437e      	muls	r6, r7
1000485a:	0c03      	lsrs	r3, r0, #16
1000485c:	435f      	muls	r7, r3
1000485e:	b292      	uxth	r2, r2
10004860:	435a      	muls	r2, r3
10004862:	18b6      	adds	r6, r6, r2
10004864:	d302      	bcc.n	1000486c <l23_1>
10004866:	2201      	movs	r2, #1
10004868:	0412      	lsls	r2, r2, #16
1000486a:	18bf      	adds	r7, r7, r2

1000486c <l23_1>:
1000486c:	0432      	lsls	r2, r6, #16
1000486e:	0c33      	lsrs	r3, r6, #16
10004870:	1952      	adds	r2, r2, r5
10004872:	417b      	adcs	r3, r7
10004874:	4252      	negs	r2, r2
10004876:	419c      	sbcs	r4, r3
10004878:	2c00      	cmp	r4, #0
1000487a:	d402      	bmi.n	10004882 <l23_1+0x16>
1000487c:	2200      	movs	r2, #0
1000487e:	3001      	adds	r0, #1
10004880:	4151      	adcs	r1, r2
10004882:	0840      	lsrs	r0, r0, #1
10004884:	07ca      	lsls	r2, r1, #31
10004886:	4310      	orrs	r0, r2
10004888:	0849      	lsrs	r1, r1, #1

1000488a <dd_2>:
1000488a:	b002      	add	sp, #8
1000488c:	4662      	mov	r2, ip
1000488e:	07d7      	lsls	r7, r2, #31
10004890:	1092      	asrs	r2, r2, #2
10004892:	4b08      	ldr	r3, [pc, #32]	; (100048b4 <dd_4+0x6>)
10004894:	18d2      	adds	r2, r2, r3
10004896:	4b08      	ldr	r3, [pc, #32]	; (100048b8 <dd_4+0xa>)
10004898:	429a      	cmp	r2, r3
1000489a:	d203      	bcs.n	100048a4 <dd_3>
1000489c:	0512      	lsls	r2, r2, #20
1000489e:	1889      	adds	r1, r1, r2

100048a0 <dd_5>:
100048a0:	19c9      	adds	r1, r1, r7
100048a2:	bdf0      	pop	{r4, r5, r6, r7, pc}

100048a4 <dd_3>:
100048a4:	2000      	movs	r0, #0
100048a6:	2a00      	cmp	r2, #0
100048a8:	dc01      	bgt.n	100048ae <dd_4>
100048aa:	0039      	movs	r1, r7
100048ac:	bdf0      	pop	{r4, r5, r6, r7, pc}

100048ae <dd_4>:
100048ae:	3301      	adds	r3, #1
100048b0:	0519      	lsls	r1, r3, #20
100048b2:	e7f5      	b.n	100048a0 <dd_5>
100048b4:	000003fd 	.word	0x000003fd
100048b8:	000007fe 	.word	0x000007fe

100048bc <dcordic_rot_step>:
100048bc:	4662      	mov	r2, ip
100048be:	ca18      	ldmia	r2!, {r3, r4}
100048c0:	4694      	mov	ip, r2
100048c2:	2900      	cmp	r1, #0
100048c4:	da1a      	bge.n	100048fc <dcordic_rot_step+0x40>
100048c6:	18c0      	adds	r0, r0, r3
100048c8:	4161      	adcs	r1, r4
100048ca:	465b      	mov	r3, fp
100048cc:	413b      	asrs	r3, r7
100048ce:	465c      	mov	r4, fp
100048d0:	40b4      	lsls	r4, r6
100048d2:	4652      	mov	r2, sl
100048d4:	40fa      	lsrs	r2, r7
100048d6:	4322      	orrs	r2, r4
100048d8:	4644      	mov	r4, r8
100048da:	464d      	mov	r5, r9
100048dc:	4162      	adcs	r2, r4
100048de:	416b      	adcs	r3, r5
100048e0:	4690      	mov	r8, r2
100048e2:	4699      	mov	r9, r3
100048e4:	462b      	mov	r3, r5
100048e6:	40b3      	lsls	r3, r6
100048e8:	413d      	asrs	r5, r7
100048ea:	40fc      	lsrs	r4, r7
100048ec:	431c      	orrs	r4, r3
100048ee:	4652      	mov	r2, sl
100048f0:	465b      	mov	r3, fp
100048f2:	41a2      	sbcs	r2, r4
100048f4:	41ab      	sbcs	r3, r5
100048f6:	4692      	mov	sl, r2
100048f8:	469b      	mov	fp, r3
100048fa:	4770      	bx	lr
100048fc:	1ac0      	subs	r0, r0, r3
100048fe:	41a1      	sbcs	r1, r4
10004900:	464b      	mov	r3, r9
10004902:	413b      	asrs	r3, r7
10004904:	464c      	mov	r4, r9
10004906:	40b4      	lsls	r4, r6
10004908:	4642      	mov	r2, r8
1000490a:	40fa      	lsrs	r2, r7
1000490c:	4322      	orrs	r2, r4
1000490e:	4654      	mov	r4, sl
10004910:	465d      	mov	r5, fp
10004912:	4162      	adcs	r2, r4
10004914:	416b      	adcs	r3, r5
10004916:	4692      	mov	sl, r2
10004918:	469b      	mov	fp, r3
1000491a:	462b      	mov	r3, r5
1000491c:	40b3      	lsls	r3, r6
1000491e:	413d      	asrs	r5, r7
10004920:	40fc      	lsrs	r4, r7
10004922:	431c      	orrs	r4, r3
10004924:	4642      	mov	r2, r8
10004926:	464b      	mov	r3, r9
10004928:	41a2      	sbcs	r2, r4
1000492a:	41ab      	sbcs	r3, r5
1000492c:	4690      	mov	r8, r2
1000492e:	4699      	mov	r9, r3
10004930:	4770      	bx	lr

10004932 <ret_dzero>:
10004932:	2000      	movs	r0, #0
10004934:	2100      	movs	r1, #0
10004936:	4770      	bx	lr

10004938 <double2uint_shim>:
10004938:	2200      	movs	r2, #0

1000493a <double2ufix_shim>:
1000493a:	b500      	push	{lr}
1000493c:	3220      	adds	r2, #32
1000493e:	f000 f804 	bl	1000494a <double2ufix64_shim>
10004942:	0008      	movs	r0, r1
10004944:	bd00      	pop	{pc}
	...

10004948 <double2uint64_shim>:
10004948:	2200      	movs	r2, #0

1000494a <double2ufix64_shim>:
1000494a:	150b      	asrs	r3, r1, #20
1000494c:	d4f1      	bmi.n	10004932 <ret_dzero>

1000494e <d2fix>:
1000494e:	b510      	push	{r4, lr}
10004950:	4694      	mov	ip, r2
10004952:	f000 f82f 	bl	100049b4 <dunpacks>
10004956:	1414      	asrs	r4, r2, #16
10004958:	3401      	adds	r4, #1
1000495a:	da00      	bge.n	1000495e <d2fix+0x10>
1000495c:	2100      	movs	r1, #0
1000495e:	17cb      	asrs	r3, r1, #31
10004960:	4c13      	ldr	r4, [pc, #76]	; (100049b0 <d2fix_a+0x4c>)
10004962:	4720      	bx	r4

10004964 <d2fix_a>:
10004964:	4462      	add	r2, ip
10004966:	3a34      	subs	r2, #52	; 0x34
10004968:	d40c      	bmi.n	10004984 <d2fix_a+0x20>
1000496a:	2a0c      	cmp	r2, #12
1000496c:	da07      	bge.n	1000497e <d2fix_a+0x1a>
1000496e:	0004      	movs	r4, r0
10004970:	4091      	lsls	r1, r2
10004972:	4090      	lsls	r0, r2
10004974:	4252      	negs	r2, r2
10004976:	3220      	adds	r2, #32
10004978:	40d4      	lsrs	r4, r2
1000497a:	4321      	orrs	r1, r4
1000497c:	bd10      	pop	{r4, pc}
1000497e:	43d8      	mvns	r0, r3
10004980:	43d9      	mvns	r1, r3
10004982:	bd10      	pop	{r4, pc}
10004984:	3220      	adds	r2, #32
10004986:	d407      	bmi.n	10004998 <d2fix_a+0x34>
10004988:	460c      	mov	r4, r1
1000498a:	4094      	lsls	r4, r2
1000498c:	4252      	negs	r2, r2
1000498e:	3220      	adds	r2, #32
10004990:	4111      	asrs	r1, r2
10004992:	40d0      	lsrs	r0, r2
10004994:	4320      	orrs	r0, r4
10004996:	bd10      	pop	{r4, pc}
10004998:	0008      	movs	r0, r1
1000499a:	17c9      	asrs	r1, r1, #31
1000499c:	3220      	adds	r2, #32
1000499e:	d403      	bmi.n	100049a8 <d2fix_a+0x44>
100049a0:	4252      	negs	r2, r2
100049a2:	3220      	adds	r2, #32
100049a4:	4110      	asrs	r0, r2
100049a6:	bd10      	pop	{r4, pc}
100049a8:	0018      	movs	r0, r3
100049aa:	0019      	movs	r1, r3
100049ac:	bd10      	pop	{r4, pc}
100049ae:	0000      	.short	0x0000
100049b0:	10004965 	.word	0x10004965

100049b4 <dunpacks>:
100049b4:	0d0a      	lsrs	r2, r1, #20
100049b6:	0fcc      	lsrs	r4, r1, #31
100049b8:	1e53      	subs	r3, r2, #1
100049ba:	051b      	lsls	r3, r3, #20
100049bc:	1ac9      	subs	r1, r1, r3
100049be:	0552      	lsls	r2, r2, #21
100049c0:	d303      	bcc.n	100049ca <l60_1>
100049c2:	43c9      	mvns	r1, r1
100049c4:	4240      	negs	r0, r0
100049c6:	d300      	bcc.n	100049ca <l60_1>
100049c8:	3101      	adds	r1, #1

100049ca <l60_1>:
100049ca:	0d52      	lsrs	r2, r2, #21
100049cc:	d003      	beq.n	100049d6 <l60_2>
100049ce:	1c53      	adds	r3, r2, #1
100049d0:	0adb      	lsrs	r3, r3, #11
100049d2:	d007      	beq.n	100049e4 <l60_3>
100049d4:	1b12      	subs	r2, r2, r4

100049d6 <l60_2>:
100049d6:	2000      	movs	r0, #0
100049d8:	0064      	lsls	r4, r4, #1
100049da:	1c61      	adds	r1, r4, #1
100049dc:	0789      	lsls	r1, r1, #30
100049de:	1289      	asrs	r1, r1, #10
100049e0:	3a80      	subs	r2, #128	; 0x80
100049e2:	0312      	lsls	r2, r2, #12

100049e4 <l60_3>:
100049e4:	4b01      	ldr	r3, [pc, #4]	; (100049ec <l60_3+0x8>)
100049e6:	1ad2      	subs	r2, r2, r3
100049e8:	4770      	bx	lr
100049ea:	0000      	.short	0x0000
100049ec:	000003ff 	.word	0x000003ff

100049f0 <__wrap___aeabi_frsub>:
100049f0:	4048      	eors	r0, r1
100049f2:	4041      	eors	r1, r0
100049f4:	4048      	eors	r0, r1

100049f6 <__wrap___aeabi_fsub>:
100049f6:	2300      	movs	r3, #0
100049f8:	469c      	mov	ip, r3
100049fa:	4b11      	ldr	r3, [pc, #68]	; (10004a40 <__wrap___aeabi_fmul+0xa>)
100049fc:	685b      	ldr	r3, [r3, #4]
100049fe:	4718      	bx	r3

10004a00 <__wrap___aeabi_fadd>:
10004a00:	2300      	movs	r3, #0
10004a02:	469c      	mov	ip, r3
10004a04:	4b0e      	ldr	r3, [pc, #56]	; (10004a40 <__wrap___aeabi_fmul+0xa>)
10004a06:	681b      	ldr	r3, [r3, #0]
10004a08:	4718      	bx	r3

10004a0a <__wrap___aeabi_fdiv>:
10004a0a:	4a0e      	ldr	r2, [pc, #56]	; (10004a44 <__wrap___aeabi_fmul+0xe>)
10004a0c:	6f93      	ldr	r3, [r2, #120]	; 0x78
10004a0e:	089b      	lsrs	r3, r3, #2
10004a10:	d204      	bcs.n	10004a1c <fdiv_save_state>

10004a12 <fdiv_shim_call>:
10004a12:	2300      	movs	r3, #0
10004a14:	469c      	mov	ip, r3
10004a16:	4b0a      	ldr	r3, [pc, #40]	; (10004a40 <__wrap___aeabi_fmul+0xa>)
10004a18:	68db      	ldr	r3, [r3, #12]
10004a1a:	4718      	bx	r3

10004a1c <fdiv_save_state>:
10004a1c:	b5f0      	push	{r4, r5, r6, r7, lr}
10004a1e:	6e14      	ldr	r4, [r2, #96]	; 0x60
10004a20:	6e55      	ldr	r5, [r2, #100]	; 0x64
10004a22:	6f57      	ldr	r7, [r2, #116]	; 0x74
10004a24:	6f16      	ldr	r6, [r2, #112]	; 0x70
10004a26:	f7ff fff4 	bl	10004a12 <fdiv_shim_call>
10004a2a:	4a06      	ldr	r2, [pc, #24]	; (10004a44 <__wrap___aeabi_fmul+0xe>)
10004a2c:	6614      	str	r4, [r2, #96]	; 0x60
10004a2e:	6655      	str	r5, [r2, #100]	; 0x64
10004a30:	6757      	str	r7, [r2, #116]	; 0x74
10004a32:	6716      	str	r6, [r2, #112]	; 0x70
10004a34:	bdf0      	pop	{r4, r5, r6, r7, pc}

10004a36 <__wrap___aeabi_fmul>:
10004a36:	2300      	movs	r3, #0
10004a38:	469c      	mov	ip, r3
10004a3a:	4b01      	ldr	r3, [pc, #4]	; (10004a40 <__wrap___aeabi_fmul+0xa>)
10004a3c:	689b      	ldr	r3, [r3, #8]
10004a3e:	4718      	bx	r3
10004a40:	200082cc 	.word	0x200082cc
10004a44:	d0000000 	.word	0xd0000000

10004a48 <__wrap___aeabi_ui2f>:
10004a48:	1a49      	subs	r1, r1, r1
10004a4a:	2800      	cmp	r0, #0
10004a4c:	d108      	bne.n	10004a60 <__aeabi_i2f_main>
10004a4e:	4608      	mov	r0, r1
10004a50:	4770      	bx	lr
	...

10004a54 <__wrap___aeabi_i2f>:
10004a54:	0fc1      	lsrs	r1, r0, #31
10004a56:	07c9      	lsls	r1, r1, #31
10004a58:	d500      	bpl.n	10004a5c <__wrap___aeabi_i2f+0x8>
10004a5a:	4240      	negs	r0, r0
10004a5c:	2800      	cmp	r0, #0
10004a5e:	d017      	beq.n	10004a90 <__aeabi_i2f_main+0x30>

10004a60 <__aeabi_i2f_main>:
10004a60:	46f4      	mov	ip, lr
10004a62:	b403      	push	{r0, r1}
10004a64:	4b0b      	ldr	r3, [pc, #44]	; (10004a94 <__aeabi_i2f_main+0x34>)
10004a66:	681b      	ldr	r3, [r3, #0]
10004a68:	4798      	blx	r3
10004a6a:	bc06      	pop	{r1, r2}
10004a6c:	4081      	lsls	r1, r0
10004a6e:	389e      	subs	r0, #158	; 0x9e
10004a70:	4240      	negs	r0, r0
10004a72:	3180      	adds	r1, #128	; 0x80
10004a74:	d207      	bcs.n	10004a86 <__aeabi_i2f_main+0x26>
10004a76:	060b      	lsls	r3, r1, #24
10004a78:	d007      	beq.n	10004a8a <__aeabi_i2f_main+0x2a>
10004a7a:	0049      	lsls	r1, r1, #1
10004a7c:	0a49      	lsrs	r1, r1, #9
10004a7e:	05c0      	lsls	r0, r0, #23
10004a80:	4310      	orrs	r0, r2
10004a82:	4308      	orrs	r0, r1
10004a84:	4760      	bx	ip
10004a86:	3001      	adds	r0, #1
10004a88:	e7f8      	b.n	10004a7c <__aeabi_i2f_main+0x1c>
10004a8a:	0a49      	lsrs	r1, r1, #9
10004a8c:	0289      	lsls	r1, r1, #10
10004a8e:	e7f5      	b.n	10004a7c <__aeabi_i2f_main+0x1c>
10004a90:	4770      	bx	lr
10004a92:	0000      	.short	0x0000
10004a94:	200083cc 	.word	0x200083cc

10004a98 <__wrap___aeabi_f2uiz>:
10004a98:	2300      	movs	r3, #0
10004a9a:	469c      	mov	ip, r3
10004a9c:	4b01      	ldr	r3, [pc, #4]	; (10004aa4 <__wrap___aeabi_f2uiz+0xc>)
10004a9e:	6a5b      	ldr	r3, [r3, #36]	; 0x24
10004aa0:	4718      	bx	r3
10004aa2:	0000      	.short	0x0000
10004aa4:	200082cc 	.word	0x200082cc

10004aa8 <__aeabi_float_init>:
10004aa8:	b570      	push	{r4, r5, r6, lr}
10004aaa:	2313      	movs	r3, #19
10004aac:	781d      	ldrb	r5, [r3, #0]
10004aae:	482a      	ldr	r0, [pc, #168]	; (10004b58 <__aeabi_float_init+0xb0>)
10004ab0:	f7ff f8de 	bl	10003c70 <rom_data_lookup>
10004ab4:	0004      	movs	r4, r0
10004ab6:	2d01      	cmp	r5, #1
10004ab8:	d011      	beq.n	10004ade <__aeabi_float_init+0x36>
10004aba:	2d01      	cmp	r5, #1
10004abc:	dd09      	ble.n	10004ad2 <__aeabi_float_init+0x2a>
10004abe:	1ea3      	subs	r3, r4, #2
10004ac0:	781b      	ldrb	r3, [r3, #0]
10004ac2:	009b      	lsls	r3, r3, #2
10004ac4:	2b7f      	cmp	r3, #127	; 0x7f
10004ac6:	dd40      	ble.n	10004b4a <__aeabi_float_init+0xa2>
10004ac8:	2280      	movs	r2, #128	; 0x80
10004aca:	0021      	movs	r1, r4
10004acc:	4823      	ldr	r0, [pc, #140]	; (10004b5c <__aeabi_float_init+0xb4>)
10004ace:	f000 f891 	bl	10004bf4 <__wrap___aeabi_memcpy>
10004ad2:	4823      	ldr	r0, [pc, #140]	; (10004b60 <__aeabi_float_init+0xb8>)
10004ad4:	f7ff f8c4 	bl	10003c60 <rom_func_lookup>
10004ad8:	4b22      	ldr	r3, [pc, #136]	; (10004b64 <__aeabi_float_init+0xbc>)
10004ada:	6018      	str	r0, [r3, #0]
10004adc:	bd70      	pop	{r4, r5, r6, pc}
10004ade:	2254      	movs	r2, #84	; 0x54
10004ae0:	0001      	movs	r1, r0
10004ae2:	481e      	ldr	r0, [pc, #120]	; (10004b5c <__aeabi_float_init+0xb4>)
10004ae4:	f000 f886 	bl	10004bf4 <__wrap___aeabi_memcpy>
10004ae8:	4b1f      	ldr	r3, [pc, #124]	; (10004b68 <__aeabi_float_init+0xc0>)
10004aea:	881a      	ldrh	r2, [r3, #0]
10004aec:	4b1f      	ldr	r3, [pc, #124]	; (10004b6c <__aeabi_float_init+0xc4>)
10004aee:	429a      	cmp	r2, r3
10004af0:	d11c      	bne.n	10004b2c <__aeabi_float_init+0x84>
10004af2:	23a7      	movs	r3, #167	; 0xa7
10004af4:	019b      	lsls	r3, r3, #6
10004af6:	881a      	ldrh	r2, [r3, #0]
10004af8:	4b1d      	ldr	r3, [pc, #116]	; (10004b70 <__aeabi_float_init+0xc8>)
10004afa:	429a      	cmp	r2, r3
10004afc:	d116      	bne.n	10004b2c <__aeabi_float_init+0x84>
10004afe:	4b1d      	ldr	r3, [pc, #116]	; (10004b74 <__aeabi_float_init+0xcc>)
10004b00:	881a      	ldrh	r2, [r3, #0]
10004b02:	4b1d      	ldr	r3, [pc, #116]	; (10004b78 <__aeabi_float_init+0xd0>)
10004b04:	429a      	cmp	r2, r3
10004b06:	d111      	bne.n	10004b2c <__aeabi_float_init+0x84>
10004b08:	4b1c      	ldr	r3, [pc, #112]	; (10004b7c <__aeabi_float_init+0xd4>)
10004b0a:	881a      	ldrh	r2, [r3, #0]
10004b0c:	2394      	movs	r3, #148	; 0x94
10004b0e:	019b      	lsls	r3, r3, #6
10004b10:	429a      	cmp	r2, r3
10004b12:	d10b      	bne.n	10004b2c <__aeabi_float_init+0x84>
10004b14:	4b1a      	ldr	r3, [pc, #104]	; (10004b80 <__aeabi_float_init+0xd8>)
10004b16:	881a      	ldrh	r2, [r3, #0]
10004b18:	4b1a      	ldr	r3, [pc, #104]	; (10004b84 <__aeabi_float_init+0xdc>)
10004b1a:	429a      	cmp	r2, r3
10004b1c:	d106      	bne.n	10004b2c <__aeabi_float_init+0x84>
10004b1e:	4b1a      	ldr	r3, [pc, #104]	; (10004b88 <__aeabi_float_init+0xe0>)
10004b20:	681a      	ldr	r2, [r3, #0]
10004b22:	4b1a      	ldr	r3, [pc, #104]	; (10004b8c <__aeabi_float_init+0xe4>)
10004b24:	429a      	cmp	r2, r3
10004b26:	d101      	bne.n	10004b2c <__aeabi_float_init+0x84>
10004b28:	2315      	movs	r3, #21
10004b2a:	e007      	b.n	10004b3c <__aeabi_float_init+0x94>
10004b2c:	4818      	ldr	r0, [pc, #96]	; (10004b90 <__aeabi_float_init+0xe8>)
10004b2e:	f7fd fc19 	bl	10002364 <panic>
10004b32:	0099      	lsls	r1, r3, #2
10004b34:	4817      	ldr	r0, [pc, #92]	; (10004b94 <__aeabi_float_init+0xec>)
10004b36:	4a09      	ldr	r2, [pc, #36]	; (10004b5c <__aeabi_float_init+0xb4>)
10004b38:	5088      	str	r0, [r1, r2]
10004b3a:	3301      	adds	r3, #1
10004b3c:	2b1f      	cmp	r3, #31
10004b3e:	d9f8      	bls.n	10004b32 <__aeabi_float_init+0x8a>
10004b40:	4a14      	ldr	r2, [pc, #80]	; (10004b94 <__aeabi_float_init+0xec>)
10004b42:	4b06      	ldr	r3, [pc, #24]	; (10004b5c <__aeabi_float_init+0xb4>)
10004b44:	621a      	str	r2, [r3, #32]
10004b46:	61da      	str	r2, [r3, #28]
10004b48:	e7b7      	b.n	10004aba <__aeabi_float_init+0x12>
10004b4a:	4b13      	ldr	r3, [pc, #76]	; (10004b98 <__aeabi_float_init+0xf0>)
10004b4c:	4a13      	ldr	r2, [pc, #76]	; (10004b9c <__aeabi_float_init+0xf4>)
10004b4e:	2142      	movs	r1, #66	; 0x42
10004b50:	4813      	ldr	r0, [pc, #76]	; (10004ba0 <__aeabi_float_init+0xf8>)
10004b52:	f7fd fbe9 	bl	10002328 <__assert_func>
10004b56:	46c0      	nop			; (mov r8, r8)
10004b58:	00004653 	.word	0x00004653
10004b5c:	200082cc 	.word	0x200082cc
10004b60:	0000334c 	.word	0x0000334c
10004b64:	200083cc 	.word	0x200083cc
10004b68:	000029ee 	.word	0x000029ee
10004b6c:	00000fc4 	.word	0x00000fc4
10004b70:	00000dc2 	.word	0x00000dc2
10004b74:	00002b96 	.word	0x00002b96
10004b78:	0000b5c0 	.word	0x0000b5c0
10004b7c:	00002b18 	.word	0x00002b18
10004b80:	00002acc 	.word	0x00002acc
10004b84:	0000b510 	.word	0x0000b510
10004b88:	00002cfc 	.word	0x00002cfc
10004b8c:	6487ed51 	.word	0x6487ed51
10004b90:	10005464 	.word	0x10005464
10004b94:	10004ba5 	.word	0x10004ba5
10004b98:	100063b8 	.word	0x100063b8
10004b9c:	1000643c 	.word	0x1000643c
10004ba0:	100063ec 	.word	0x100063ec

10004ba4 <float_table_shim_on_use_helper>:
10004ba4:	b507      	push	{r0, r1, r2, lr}
10004ba6:	4660      	mov	r0, ip
10004ba8:	2800      	cmp	r0, #0
10004baa:	d100      	bne.n	10004bae <float_table_shim_on_use_helper+0xa>
10004bac:	be00      	bkpt	0x0000
10004bae:	8801      	ldrh	r1, [r0, #0]
10004bb0:	0a0a      	lsrs	r2, r1, #8
10004bb2:	3002      	adds	r0, #2
10004bb4:	2adf      	cmp	r2, #223	; 0xdf
10004bb6:	d1fa      	bne.n	10004bae <float_table_shim_on_use_helper+0xa>
10004bb8:	b2c9      	uxtb	r1, r1
10004bba:	0882      	lsrs	r2, r0, #2
10004bbc:	d304      	bcc.n	10004bc8 <float_table_shim_on_use_helper+0x24>
10004bbe:	8802      	ldrh	r2, [r0, #0]
10004bc0:	8840      	ldrh	r0, [r0, #2]
10004bc2:	0400      	lsls	r0, r0, #16
10004bc4:	4310      	orrs	r0, r2
10004bc6:	e000      	b.n	10004bca <float_table_shim_on_use_helper+0x26>
10004bc8:	6800      	ldr	r0, [r0, #0]
10004bca:	4a02      	ldr	r2, [pc, #8]	; (10004bd4 <float_table_shim_on_use_helper+0x30>)
10004bcc:	5050      	str	r0, [r2, r1]
10004bce:	9003      	str	r0, [sp, #12]
10004bd0:	bd07      	pop	{r0, r1, r2, pc}
10004bd2:	0000      	.short	0x0000
10004bd4:	200082cc 	.word	0x200082cc

10004bd8 <__aeabi_mem_init>:
10004bd8:	4801      	ldr	r0, [pc, #4]	; (10004be0 <__aeabi_mem_init+0x8>)
10004bda:	2104      	movs	r1, #4
10004bdc:	4b01      	ldr	r3, [pc, #4]	; (10004be4 <__aeabi_mem_init+0xc>)
10004bde:	4718      	bx	r3
10004be0:	20005b20 	.word	0x20005b20
10004be4:	10003c81 	.word	0x10003c81

10004be8 <__wrap_memset>:
10004be8:	4b01      	ldr	r3, [pc, #4]	; (10004bf0 <__wrap_memset+0x8>)
10004bea:	681b      	ldr	r3, [r3, #0]
10004bec:	4718      	bx	r3
10004bee:	0000      	.short	0x0000
10004bf0:	20005b20 	.word	0x20005b20

10004bf4 <__wrap___aeabi_memcpy>:
10004bf4:	4b01      	ldr	r3, [pc, #4]	; (10004bfc <__wrap___aeabi_memcpy+0x8>)
10004bf6:	685b      	ldr	r3, [r3, #4]
10004bf8:	4718      	bx	r3
10004bfa:	0000      	.short	0x0000
10004bfc:	20005b20 	.word	0x20005b20

10004c00 <stdio_out_chars_crlf>:
10004c00:	b5f8      	push	{r3, r4, r5, r6, r7, lr}
10004c02:	0007      	movs	r7, r0
10004c04:	000d      	movs	r5, r1
10004c06:	0016      	movs	r6, r2
10004c08:	7c43      	ldrb	r3, [r0, #17]
10004c0a:	2b00      	cmp	r3, #0
10004c0c:	d002      	beq.n	10004c14 <stdio_out_chars_crlf+0x14>
10004c0e:	2400      	movs	r4, #0
10004c10:	2000      	movs	r0, #0
10004c12:	e00c      	b.n	10004c2e <stdio_out_chars_crlf+0x2e>
10004c14:	6803      	ldr	r3, [r0, #0]
10004c16:	0011      	movs	r1, r2
10004c18:	0028      	movs	r0, r5
10004c1a:	4798      	blx	r3
10004c1c:	e02d      	b.n	10004c7a <stdio_out_chars_crlf+0x7a>
10004c1e:	7c3b      	ldrb	r3, [r7, #16]
10004c20:	e010      	b.n	10004c44 <stdio_out_chars_crlf+0x44>
10004c22:	2102      	movs	r1, #2
10004c24:	4815      	ldr	r0, [pc, #84]	; (10004c7c <stdio_out_chars_crlf+0x7c>)
10004c26:	683b      	ldr	r3, [r7, #0]
10004c28:	4798      	blx	r3
10004c2a:	1c60      	adds	r0, r4, #1
10004c2c:	3401      	adds	r4, #1
10004c2e:	42b4      	cmp	r4, r6
10004c30:	da14      	bge.n	10004c5c <stdio_out_chars_crlf+0x5c>
10004c32:	2c00      	cmp	r4, #0
10004c34:	ddf3      	ble.n	10004c1e <stdio_out_chars_crlf+0x1e>
10004c36:	192b      	adds	r3, r5, r4
10004c38:	3b01      	subs	r3, #1
10004c3a:	781b      	ldrb	r3, [r3, #0]
10004c3c:	3b0d      	subs	r3, #13
10004c3e:	425a      	negs	r2, r3
10004c40:	4153      	adcs	r3, r2
10004c42:	b2db      	uxtb	r3, r3
10004c44:	5d2a      	ldrb	r2, [r5, r4]
10004c46:	2a0a      	cmp	r2, #10
10004c48:	d1f0      	bne.n	10004c2c <stdio_out_chars_crlf+0x2c>
10004c4a:	2b00      	cmp	r3, #0
10004c4c:	d1ee      	bne.n	10004c2c <stdio_out_chars_crlf+0x2c>
10004c4e:	42a0      	cmp	r0, r4
10004c50:	dae7      	bge.n	10004c22 <stdio_out_chars_crlf+0x22>
10004c52:	1a21      	subs	r1, r4, r0
10004c54:	1828      	adds	r0, r5, r0
10004c56:	683b      	ldr	r3, [r7, #0]
10004c58:	4798      	blx	r3
10004c5a:	e7e2      	b.n	10004c22 <stdio_out_chars_crlf+0x22>
10004c5c:	42b0      	cmp	r0, r6
10004c5e:	da03      	bge.n	10004c68 <stdio_out_chars_crlf+0x68>
10004c60:	1a31      	subs	r1, r6, r0
10004c62:	1828      	adds	r0, r5, r0
10004c64:	683b      	ldr	r3, [r7, #0]
10004c66:	4798      	blx	r3
10004c68:	2e00      	cmp	r6, #0
10004c6a:	dd06      	ble.n	10004c7a <stdio_out_chars_crlf+0x7a>
10004c6c:	19ad      	adds	r5, r5, r6
10004c6e:	3d01      	subs	r5, #1
10004c70:	782b      	ldrb	r3, [r5, #0]
10004c72:	3b0d      	subs	r3, #13
10004c74:	425a      	negs	r2, r3
10004c76:	4153      	adcs	r3, r2
10004c78:	743b      	strb	r3, [r7, #16]
10004c7a:	bdf8      	pop	{r3, r4, r5, r6, r7, pc}
10004c7c:	100064d0 	.word	0x100064d0

10004c80 <stdio_stack_buffer_flush>:
10004c80:	b570      	push	{r4, r5, r6, lr}
10004c82:	0005      	movs	r5, r0
10004c84:	6803      	ldr	r3, [r0, #0]
10004c86:	2b00      	cmp	r3, #0
10004c88:	d016      	beq.n	10004cb8 <stdio_stack_buffer_flush+0x38>
10004c8a:	4b0c      	ldr	r3, [pc, #48]	; (10004cbc <stdio_stack_buffer_flush+0x3c>)
10004c8c:	681c      	ldr	r4, [r3, #0]
10004c8e:	e005      	b.n	10004c9c <stdio_stack_buffer_flush+0x1c>
10004c90:	0029      	movs	r1, r5
10004c92:	c904      	ldmia	r1!, {r2}
10004c94:	0020      	movs	r0, r4
10004c96:	f7ff ffb3 	bl	10004c00 <stdio_out_chars_crlf>
10004c9a:	68e4      	ldr	r4, [r4, #12]
10004c9c:	2c00      	cmp	r4, #0
10004c9e:	d009      	beq.n	10004cb4 <stdio_stack_buffer_flush+0x34>
10004ca0:	6823      	ldr	r3, [r4, #0]
10004ca2:	2b00      	cmp	r3, #0
10004ca4:	d0f9      	beq.n	10004c9a <stdio_stack_buffer_flush+0x1a>
10004ca6:	4b06      	ldr	r3, [pc, #24]	; (10004cc0 <stdio_stack_buffer_flush+0x40>)
10004ca8:	681b      	ldr	r3, [r3, #0]
10004caa:	2b00      	cmp	r3, #0
10004cac:	d0f0      	beq.n	10004c90 <stdio_stack_buffer_flush+0x10>
10004cae:	42a3      	cmp	r3, r4
10004cb0:	d1f3      	bne.n	10004c9a <stdio_stack_buffer_flush+0x1a>
10004cb2:	e7ed      	b.n	10004c90 <stdio_stack_buffer_flush+0x10>
10004cb4:	2300      	movs	r3, #0
10004cb6:	602b      	str	r3, [r5, #0]
10004cb8:	bd70      	pop	{r4, r5, r6, pc}
10004cba:	46c0      	nop			; (mov r8, r8)
10004cbc:	20005d08 	.word	0x20005d08
10004cc0:	20005d0c 	.word	0x20005d0c

10004cc4 <stdio_buffered_printer>:
10004cc4:	b570      	push	{r4, r5, r6, lr}
10004cc6:	0005      	movs	r5, r0
10004cc8:	000c      	movs	r4, r1
10004cca:	680b      	ldr	r3, [r1, #0]
10004ccc:	2b80      	cmp	r3, #128	; 0x80
10004cce:	d005      	beq.n	10004cdc <stdio_buffered_printer+0x18>
10004cd0:	6821      	ldr	r1, [r4, #0]
10004cd2:	1c4b      	adds	r3, r1, #1
10004cd4:	6023      	str	r3, [r4, #0]
10004cd6:	1864      	adds	r4, r4, r1
10004cd8:	7125      	strb	r5, [r4, #4]
10004cda:	bd70      	pop	{r4, r5, r6, pc}
10004cdc:	0008      	movs	r0, r1
10004cde:	f7ff ffcf 	bl	10004c80 <stdio_stack_buffer_flush>
10004ce2:	e7f5      	b.n	10004cd0 <stdio_buffered_printer+0xc>

10004ce4 <stdout_serialize_begin>:
10004ce4:	b510      	push	{r4, lr}
10004ce6:	b082      	sub	sp, #8
10004ce8:	23d0      	movs	r3, #208	; 0xd0
10004cea:	061b      	lsls	r3, r3, #24
10004cec:	2400      	movs	r4, #0
10004cee:	571c      	ldrsb	r4, [r3, r4]
10004cf0:	a901      	add	r1, sp, #4
10004cf2:	4807      	ldr	r0, [pc, #28]	; (10004d10 <stdout_serialize_begin+0x2c>)
10004cf4:	f000 fb74 	bl	100053e0 <__mutex_try_enter_veneer>
10004cf8:	2800      	cmp	r0, #0
10004cfa:	d106      	bne.n	10004d0a <stdout_serialize_begin+0x26>
10004cfc:	9b01      	ldr	r3, [sp, #4]
10004cfe:	429c      	cmp	r4, r3
10004d00:	d003      	beq.n	10004d0a <stdout_serialize_begin+0x26>
10004d02:	4803      	ldr	r0, [pc, #12]	; (10004d10 <stdout_serialize_begin+0x2c>)
10004d04:	f000 fb74 	bl	100053f0 <__mutex_enter_blocking_veneer>
10004d08:	2001      	movs	r0, #1
10004d0a:	b002      	add	sp, #8
10004d0c:	bd10      	pop	{r4, pc}
10004d0e:	46c0      	nop			; (mov r8, r8)
10004d10:	20005b4c 	.word	0x20005b4c

10004d14 <stdout_serialize_end>:
10004d14:	b510      	push	{r4, lr}
10004d16:	4802      	ldr	r0, [pc, #8]	; (10004d20 <stdout_serialize_end+0xc>)
10004d18:	f000 fb4a 	bl	100053b0 <__mutex_exit_veneer>
10004d1c:	bd10      	pop	{r4, pc}
10004d1e:	46c0      	nop			; (mov r8, r8)
10004d20:	20005b4c 	.word	0x20005b4c

10004d24 <stdio_put_string>:
10004d24:	b5f0      	push	{r4, r5, r6, r7, lr}
10004d26:	46c6      	mov	lr, r8
10004d28:	b500      	push	{lr}
10004d2a:	b082      	sub	sp, #8
10004d2c:	0006      	movs	r6, r0
10004d2e:	000d      	movs	r5, r1
10004d30:	0017      	movs	r7, r2
10004d32:	f7ff ffd7 	bl	10004ce4 <stdout_serialize_begin>
10004d36:	4680      	mov	r8, r0
10004d38:	1c6b      	adds	r3, r5, #1
10004d3a:	d002      	beq.n	10004d42 <stdio_put_string+0x1e>
10004d3c:	4b18      	ldr	r3, [pc, #96]	; (10004da0 <stdio_put_string+0x7c>)
10004d3e:	681c      	ldr	r4, [r3, #0]
10004d40:	e00d      	b.n	10004d5e <stdio_put_string+0x3a>
10004d42:	0030      	movs	r0, r6
10004d44:	f000 fafe 	bl	10005344 <strlen>
10004d48:	0005      	movs	r5, r0
10004d4a:	e7f7      	b.n	10004d3c <stdio_put_string+0x18>
10004d4c:	466b      	mov	r3, sp
10004d4e:	1dd9      	adds	r1, r3, #7
10004d50:	230a      	movs	r3, #10
10004d52:	700b      	strb	r3, [r1, #0]
10004d54:	2201      	movs	r2, #1
10004d56:	0020      	movs	r0, r4
10004d58:	f7ff ff52 	bl	10004c00 <stdio_out_chars_crlf>
10004d5c:	68e4      	ldr	r4, [r4, #12]
10004d5e:	2c00      	cmp	r4, #0
10004d60:	d010      	beq.n	10004d84 <stdio_put_string+0x60>
10004d62:	6823      	ldr	r3, [r4, #0]
10004d64:	2b00      	cmp	r3, #0
10004d66:	d0f9      	beq.n	10004d5c <stdio_put_string+0x38>
10004d68:	4b0e      	ldr	r3, [pc, #56]	; (10004da4 <stdio_put_string+0x80>)
10004d6a:	681b      	ldr	r3, [r3, #0]
10004d6c:	2b00      	cmp	r3, #0
10004d6e:	d001      	beq.n	10004d74 <stdio_put_string+0x50>
10004d70:	42a3      	cmp	r3, r4
10004d72:	d1f3      	bne.n	10004d5c <stdio_put_string+0x38>
10004d74:	002a      	movs	r2, r5
10004d76:	0031      	movs	r1, r6
10004d78:	0020      	movs	r0, r4
10004d7a:	f7ff ff41 	bl	10004c00 <stdio_out_chars_crlf>
10004d7e:	2f00      	cmp	r7, #0
10004d80:	d0ec      	beq.n	10004d5c <stdio_put_string+0x38>
10004d82:	e7e3      	b.n	10004d4c <stdio_put_string+0x28>
10004d84:	4643      	mov	r3, r8
10004d86:	2b00      	cmp	r3, #0
10004d88:	d106      	bne.n	10004d98 <stdio_put_string+0x74>
10004d8a:	1e68      	subs	r0, r5, #1
10004d8c:	4185      	sbcs	r5, r0
10004d8e:	b2e8      	uxtb	r0, r5
10004d90:	b002      	add	sp, #8
10004d92:	bc04      	pop	{r2}
10004d94:	4690      	mov	r8, r2
10004d96:	bdf0      	pop	{r4, r5, r6, r7, pc}
10004d98:	f7ff ffbc 	bl	10004d14 <stdout_serialize_end>
10004d9c:	e7f5      	b.n	10004d8a <stdio_put_string+0x66>
10004d9e:	46c0      	nop			; (mov r8, r8)
10004da0:	20005d08 	.word	0x20005d08
10004da4:	20005d0c 	.word	0x20005d0c

10004da8 <stdio_set_driver_enabled>:
10004da8:	4b0c      	ldr	r3, [pc, #48]	; (10004ddc <stdio_set_driver_enabled+0x34>)
10004daa:	681a      	ldr	r2, [r3, #0]
10004dac:	0013      	movs	r3, r2
10004dae:	2b00      	cmp	r3, #0
10004db0:	d00b      	beq.n	10004dca <stdio_set_driver_enabled+0x22>
10004db2:	4283      	cmp	r3, r0
10004db4:	d002      	beq.n	10004dbc <stdio_set_driver_enabled+0x14>
10004db6:	001a      	movs	r2, r3
10004db8:	68db      	ldr	r3, [r3, #12]
10004dba:	e7f8      	b.n	10004dae <stdio_set_driver_enabled+0x6>
10004dbc:	2900      	cmp	r1, #0
10004dbe:	d103      	bne.n	10004dc8 <stdio_set_driver_enabled+0x20>
10004dc0:	68db      	ldr	r3, [r3, #12]
10004dc2:	60d3      	str	r3, [r2, #12]
10004dc4:	2300      	movs	r3, #0
10004dc6:	60c3      	str	r3, [r0, #12]
10004dc8:	4770      	bx	lr
10004dca:	2900      	cmp	r1, #0
10004dcc:	d0fc      	beq.n	10004dc8 <stdio_set_driver_enabled+0x20>
10004dce:	2a00      	cmp	r2, #0
10004dd0:	d001      	beq.n	10004dd6 <stdio_set_driver_enabled+0x2e>
10004dd2:	60d0      	str	r0, [r2, #12]
10004dd4:	e7f8      	b.n	10004dc8 <stdio_set_driver_enabled+0x20>
10004dd6:	4b01      	ldr	r3, [pc, #4]	; (10004ddc <stdio_set_driver_enabled+0x34>)
10004dd8:	6018      	str	r0, [r3, #0]
10004dda:	e7f5      	b.n	10004dc8 <stdio_set_driver_enabled+0x20>
10004ddc:	20005d08 	.word	0x20005d08

10004de0 <stdio_flush>:
10004de0:	b510      	push	{r4, lr}
10004de2:	4b06      	ldr	r3, [pc, #24]	; (10004dfc <stdio_flush+0x1c>)
10004de4:	681c      	ldr	r4, [r3, #0]
10004de6:	e000      	b.n	10004dea <stdio_flush+0xa>
10004de8:	68e4      	ldr	r4, [r4, #12]
10004dea:	2c00      	cmp	r4, #0
10004dec:	d004      	beq.n	10004df8 <stdio_flush+0x18>
10004dee:	6863      	ldr	r3, [r4, #4]
10004df0:	2b00      	cmp	r3, #0
10004df2:	d0f9      	beq.n	10004de8 <stdio_flush+0x8>
10004df4:	4798      	blx	r3
10004df6:	e7f7      	b.n	10004de8 <stdio_flush+0x8>
10004df8:	bd10      	pop	{r4, pc}
10004dfa:	46c0      	nop			; (mov r8, r8)
10004dfc:	20005d08 	.word	0x20005d08

10004e00 <__wrap_puts>:
10004e00:	b570      	push	{r4, r5, r6, lr}
10004e02:	0005      	movs	r5, r0
10004e04:	f000 fa9e 	bl	10005344 <strlen>
10004e08:	0004      	movs	r4, r0
10004e0a:	2201      	movs	r2, #1
10004e0c:	0001      	movs	r1, r0
10004e0e:	0028      	movs	r0, r5
10004e10:	f7ff ff88 	bl	10004d24 <stdio_put_string>
10004e14:	f7ff ffe4 	bl	10004de0 <stdio_flush>
10004e18:	0020      	movs	r0, r4
10004e1a:	bd70      	pop	{r4, r5, r6, pc}

10004e1c <__wrap_vprintf>:
10004e1c:	b570      	push	{r4, r5, r6, lr}
10004e1e:	b0a2      	sub	sp, #136	; 0x88
10004e20:	0004      	movs	r4, r0
10004e22:	000e      	movs	r6, r1
10004e24:	f7ff ff5e 	bl	10004ce4 <stdout_serialize_begin>
10004e28:	0005      	movs	r5, r0
10004e2a:	2284      	movs	r2, #132	; 0x84
10004e2c:	2100      	movs	r1, #0
10004e2e:	a801      	add	r0, sp, #4
10004e30:	f7ff feda 	bl	10004be8 <__wrap_memset>
10004e34:	0033      	movs	r3, r6
10004e36:	0022      	movs	r2, r4
10004e38:	a901      	add	r1, sp, #4
10004e3a:	4808      	ldr	r0, [pc, #32]	; (10004e5c <__wrap_vprintf+0x40>)
10004e3c:	f7fe fef8 	bl	10003c30 <vfctprintf>
10004e40:	0004      	movs	r4, r0
10004e42:	a801      	add	r0, sp, #4
10004e44:	f7ff ff1c 	bl	10004c80 <stdio_stack_buffer_flush>
10004e48:	f7ff ffca 	bl	10004de0 <stdio_flush>
10004e4c:	2d00      	cmp	r5, #0
10004e4e:	d102      	bne.n	10004e56 <__wrap_vprintf+0x3a>
10004e50:	0020      	movs	r0, r4
10004e52:	b022      	add	sp, #136	; 0x88
10004e54:	bd70      	pop	{r4, r5, r6, pc}
10004e56:	f7ff ff5d 	bl	10004d14 <stdout_serialize_end>
10004e5a:	e7f9      	b.n	10004e50 <__wrap_vprintf+0x34>
10004e5c:	10004cc5 	.word	0x10004cc5

10004e60 <__wrap_printf>:
10004e60:	b40f      	push	{r0, r1, r2, r3}
10004e62:	b500      	push	{lr}
10004e64:	b083      	sub	sp, #12
10004e66:	a904      	add	r1, sp, #16
10004e68:	c901      	ldmia	r1!, {r0}
10004e6a:	9101      	str	r1, [sp, #4]
10004e6c:	f7ff ffd6 	bl	10004e1c <__wrap_vprintf>
10004e70:	b003      	add	sp, #12
10004e72:	bc08      	pop	{r3}
10004e74:	b004      	add	sp, #16
10004e76:	4718      	bx	r3

10004e78 <stdio_init_all>:
10004e78:	b510      	push	{r4, lr}
10004e7a:	f000 f883 	bl	10004f84 <stdio_uart_init>
10004e7e:	bd10      	pop	{r4, pc}

10004e80 <stdio_uart_out_chars>:
10004e80:	b5f0      	push	{r4, r5, r6, r7, lr}
10004e82:	b083      	sub	sp, #12
10004e84:	2500      	movs	r5, #0
10004e86:	e01a      	b.n	10004ebe <stdio_uart_out_chars+0x3e>
10004e88:	466b      	mov	r3, sp
10004e8a:	3307      	adds	r3, #7
10004e8c:	240d      	movs	r4, #13
10004e8e:	701c      	strb	r4, [r3, #0]
10004e90:	2400      	movs	r4, #0
10004e92:	e003      	b.n	10004e9c <stdio_uart_out_chars+0x1c>
10004e94:	781f      	ldrb	r7, [r3, #0]
10004e96:	6017      	str	r7, [r2, #0]
10004e98:	3401      	adds	r4, #1
10004e9a:	3301      	adds	r3, #1
10004e9c:	2c00      	cmp	r4, #0
10004e9e:	d11c      	bne.n	10004eda <stdio_uart_out_chars+0x5a>
10004ea0:	6997      	ldr	r7, [r2, #24]
10004ea2:	06bf      	lsls	r7, r7, #26
10004ea4:	d4fc      	bmi.n	10004ea0 <stdio_uart_out_chars+0x20>
10004ea6:	e7f5      	b.n	10004e94 <stdio_uart_out_chars+0x14>
10004ea8:	781e      	ldrb	r6, [r3, #0]
10004eaa:	6016      	str	r6, [r2, #0]
10004eac:	3401      	adds	r4, #1
10004eae:	3301      	adds	r3, #1
10004eb0:	2c00      	cmp	r4, #0
10004eb2:	d103      	bne.n	10004ebc <stdio_uart_out_chars+0x3c>
10004eb4:	6996      	ldr	r6, [r2, #24]
10004eb6:	06b6      	lsls	r6, r6, #26
10004eb8:	d4fc      	bmi.n	10004eb4 <stdio_uart_out_chars+0x34>
10004eba:	e7f5      	b.n	10004ea8 <stdio_uart_out_chars+0x28>
10004ebc:	3501      	adds	r5, #1
10004ebe:	428d      	cmp	r5, r1
10004ec0:	da10      	bge.n	10004ee4 <stdio_uart_out_chars+0x64>
10004ec2:	4b09      	ldr	r3, [pc, #36]	; (10004ee8 <stdio_uart_out_chars+0x68>)
10004ec4:	681a      	ldr	r2, [r3, #0]
10004ec6:	5d46      	ldrb	r6, [r0, r5]
10004ec8:	4b08      	ldr	r3, [pc, #32]	; (10004eec <stdio_uart_out_chars+0x6c>)
10004eca:	18d3      	adds	r3, r2, r3
10004ecc:	425c      	negs	r4, r3
10004ece:	4163      	adcs	r3, r4
10004ed0:	005b      	lsls	r3, r3, #1
10004ed2:	4c07      	ldr	r4, [pc, #28]	; (10004ef0 <stdio_uart_out_chars+0x70>)
10004ed4:	5f1b      	ldrsh	r3, [r3, r4]
10004ed6:	42b3      	cmp	r3, r6
10004ed8:	d0d6      	beq.n	10004e88 <stdio_uart_out_chars+0x8>
10004eda:	466b      	mov	r3, sp
10004edc:	3307      	adds	r3, #7
10004ede:	701e      	strb	r6, [r3, #0]
10004ee0:	2400      	movs	r4, #0
10004ee2:	e7e5      	b.n	10004eb0 <stdio_uart_out_chars+0x30>
10004ee4:	b003      	add	sp, #12
10004ee6:	bdf0      	pop	{r4, r5, r6, r7, pc}
10004ee8:	20005d48 	.word	0x20005d48
10004eec:	bffc8000 	.word	0xbffc8000
10004ef0:	200081c8 	.word	0x200081c8

10004ef4 <stdio_uart_in_chars>:
10004ef4:	b5f0      	push	{r4, r5, r6, r7, lr}
10004ef6:	b083      	sub	sp, #12
10004ef8:	0007      	movs	r7, r0
10004efa:	2000      	movs	r0, #0
10004efc:	e00d      	b.n	10004f1a <stdio_uart_in_chars+0x26>
10004efe:	6993      	ldr	r3, [r2, #24]
10004f00:	06db      	lsls	r3, r3, #27
10004f02:	d4fc      	bmi.n	10004efe <stdio_uart_in_chars+0xa>
10004f04:	6813      	ldr	r3, [r2, #0]
10004f06:	702b      	strb	r3, [r5, #0]
10004f08:	3401      	adds	r4, #1
10004f0a:	3501      	adds	r5, #1
10004f0c:	2c00      	cmp	r4, #0
10004f0e:	d0f6      	beq.n	10004efe <stdio_uart_in_chars+0xa>
10004f10:	466b      	mov	r3, sp
10004f12:	3307      	adds	r3, #7
10004f14:	781b      	ldrb	r3, [r3, #0]
10004f16:	7003      	strb	r3, [r0, #0]
10004f18:	0030      	movs	r0, r6
10004f1a:	4288      	cmp	r0, r1
10004f1c:	da0c      	bge.n	10004f38 <stdio_uart_in_chars+0x44>
10004f1e:	4b09      	ldr	r3, [pc, #36]	; (10004f44 <stdio_uart_in_chars+0x50>)
10004f20:	681a      	ldr	r2, [r3, #0]
10004f22:	6993      	ldr	r3, [r2, #24]
10004f24:	2510      	movs	r5, #16
10004f26:	002c      	movs	r4, r5
10004f28:	401c      	ands	r4, r3
10004f2a:	421d      	tst	r5, r3
10004f2c:	d104      	bne.n	10004f38 <stdio_uart_in_chars+0x44>
10004f2e:	1c46      	adds	r6, r0, #1
10004f30:	1838      	adds	r0, r7, r0
10004f32:	466b      	mov	r3, sp
10004f34:	1ddd      	adds	r5, r3, #7
10004f36:	e7e9      	b.n	10004f0c <stdio_uart_in_chars+0x18>
10004f38:	2800      	cmp	r0, #0
10004f3a:	d001      	beq.n	10004f40 <stdio_uart_in_chars+0x4c>
10004f3c:	b003      	add	sp, #12
10004f3e:	bdf0      	pop	{r4, r5, r6, r7, pc}
10004f40:	3803      	subs	r0, #3
10004f42:	e7fb      	b.n	10004f3c <stdio_uart_in_chars+0x48>
10004f44:	20005d48 	.word	0x20005d48

10004f48 <stdio_uart_init_full>:
10004f48:	b570      	push	{r4, r5, r6, lr}
10004f4a:	0015      	movs	r5, r2
10004f4c:	001c      	movs	r4, r3
10004f4e:	4b0b      	ldr	r3, [pc, #44]	; (10004f7c <stdio_uart_init_full+0x34>)
10004f50:	6018      	str	r0, [r3, #0]
10004f52:	f7fc f8ed 	bl	10001130 <uart_init>
10004f56:	2d00      	cmp	r5, #0
10004f58:	da06      	bge.n	10004f68 <stdio_uart_init_full+0x20>
10004f5a:	2c00      	cmp	r4, #0
10004f5c:	da09      	bge.n	10004f72 <stdio_uart_init_full+0x2a>
10004f5e:	2101      	movs	r1, #1
10004f60:	4807      	ldr	r0, [pc, #28]	; (10004f80 <stdio_uart_init_full+0x38>)
10004f62:	f7ff ff21 	bl	10004da8 <stdio_set_driver_enabled>
10004f66:	bd70      	pop	{r4, r5, r6, pc}
10004f68:	2102      	movs	r1, #2
10004f6a:	0028      	movs	r0, r5
10004f6c:	f7fc f808 	bl	10000f80 <gpio_set_function>
10004f70:	e7f3      	b.n	10004f5a <stdio_uart_init_full+0x12>
10004f72:	2102      	movs	r1, #2
10004f74:	0020      	movs	r0, r4
10004f76:	f7fc f803 	bl	10000f80 <gpio_set_function>
10004f7a:	e7f0      	b.n	10004f5e <stdio_uart_init_full+0x16>
10004f7c:	20005d48 	.word	0x20005d48
10004f80:	20005b30 	.word	0x20005b30

10004f84 <stdio_uart_init>:
10004f84:	b510      	push	{r4, lr}
10004f86:	4b06      	ldr	r3, [pc, #24]	; (10004fa0 <stdio_uart_init+0x1c>)
10004f88:	781b      	ldrb	r3, [r3, #0]
10004f8a:	4b06      	ldr	r3, [pc, #24]	; (10004fa4 <stdio_uart_init+0x20>)
10004f8c:	781b      	ldrb	r3, [r3, #0]
10004f8e:	21e1      	movs	r1, #225	; 0xe1
10004f90:	2301      	movs	r3, #1
10004f92:	2200      	movs	r2, #0
10004f94:	0249      	lsls	r1, r1, #9
10004f96:	4804      	ldr	r0, [pc, #16]	; (10004fa8 <stdio_uart_init+0x24>)
10004f98:	f7ff ffd6 	bl	10004f48 <stdio_uart_init_full>
10004f9c:	bd10      	pop	{r4, pc}
10004f9e:	46c0      	nop			; (mov r8, r8)
10004fa0:	10006684 	.word	0x10006684
10004fa4:	10006688 	.word	0x10006688
10004fa8:	40034000 	.word	0x40034000

10004fac <_pio_can_add_program_at_offset>:
10004fac:	2305      	movs	r3, #5
10004fae:	56cb      	ldrsb	r3, [r1, r3]
10004fb0:	2b00      	cmp	r3, #0
10004fb2:	db01      	blt.n	10004fb8 <_pio_can_add_program_at_offset+0xc>
10004fb4:	4293      	cmp	r3, r2
10004fb6:	d111      	bne.n	10004fdc <_pio_can_add_program_at_offset+0x30>
10004fb8:	4b09      	ldr	r3, [pc, #36]	; (10004fe0 <_pio_can_add_program_at_offset+0x34>)
10004fba:	469c      	mov	ip, r3
10004fbc:	4460      	add	r0, ip
10004fbe:	4243      	negs	r3, r0
10004fc0:	4158      	adcs	r0, r3
10004fc2:	0080      	lsls	r0, r0, #2
10004fc4:	4b07      	ldr	r3, [pc, #28]	; (10004fe4 <_pio_can_add_program_at_offset+0x38>)
10004fc6:	58c0      	ldr	r0, [r0, r3]
10004fc8:	7909      	ldrb	r1, [r1, #4]
10004fca:	2301      	movs	r3, #1
10004fcc:	408b      	lsls	r3, r1
10004fce:	3b01      	subs	r3, #1
10004fd0:	4093      	lsls	r3, r2
10004fd2:	4018      	ands	r0, r3
10004fd4:	4243      	negs	r3, r0
10004fd6:	4158      	adcs	r0, r3
10004fd8:	b2c0      	uxtb	r0, r0
10004fda:	4770      	bx	lr
10004fdc:	2000      	movs	r0, #0
10004fde:	e7fc      	b.n	10004fda <_pio_can_add_program_at_offset+0x2e>
10004fe0:	afd00000 	.word	0xafd00000
10004fe4:	20005c84 	.word	0x20005c84

10004fe8 <_pio_find_offset_for_program>:
10004fe8:	b570      	push	{r4, r5, r6, lr}
10004fea:	790a      	ldrb	r2, [r1, #4]
10004fec:	2a20      	cmp	r2, #32
10004fee:	d819      	bhi.n	10005024 <_pio_find_offset_for_program+0x3c>
10004ff0:	4b17      	ldr	r3, [pc, #92]	; (10005050 <_pio_find_offset_for_program+0x68>)
10004ff2:	469c      	mov	ip, r3
10004ff4:	4460      	add	r0, ip
10004ff6:	4243      	negs	r3, r0
10004ff8:	4158      	adcs	r0, r3
10004ffa:	0080      	lsls	r0, r0, #2
10004ffc:	4b15      	ldr	r3, [pc, #84]	; (10005054 <_pio_find_offset_for_program+0x6c>)
10004ffe:	58c4      	ldr	r4, [r0, r3]
10005000:	2301      	movs	r3, #1
10005002:	4093      	lsls	r3, r2
10005004:	3b01      	subs	r3, #1
10005006:	7949      	ldrb	r1, [r1, #5]
10005008:	b249      	sxtb	r1, r1
1000500a:	2900      	cmp	r1, #0
1000500c:	db10      	blt.n	10005030 <_pio_find_offset_for_program+0x48>
1000500e:	0008      	movs	r0, r1
10005010:	2520      	movs	r5, #32
10005012:	1aaa      	subs	r2, r5, r2
10005014:	4291      	cmp	r1, r2
10005016:	dc18      	bgt.n	1000504a <_pio_find_offset_for_program+0x62>
10005018:	408b      	lsls	r3, r1
1000501a:	421c      	tst	r4, r3
1000501c:	d001      	beq.n	10005022 <_pio_find_offset_for_program+0x3a>
1000501e:	2001      	movs	r0, #1
10005020:	4240      	negs	r0, r0
10005022:	bd70      	pop	{r4, r5, r6, pc}
10005024:	4b0c      	ldr	r3, [pc, #48]	; (10005058 <_pio_find_offset_for_program+0x70>)
10005026:	4a0d      	ldr	r2, [pc, #52]	; (1000505c <_pio_find_offset_for_program+0x74>)
10005028:	2140      	movs	r1, #64	; 0x40
1000502a:	480d      	ldr	r0, [pc, #52]	; (10005060 <_pio_find_offset_for_program+0x78>)
1000502c:	f7fd f97c 	bl	10002328 <__assert_func>
10005030:	2020      	movs	r0, #32
10005032:	1a80      	subs	r0, r0, r2
10005034:	2800      	cmp	r0, #0
10005036:	db05      	blt.n	10005044 <_pio_find_offset_for_program+0x5c>
10005038:	001a      	movs	r2, r3
1000503a:	4082      	lsls	r2, r0
1000503c:	4214      	tst	r4, r2
1000503e:	d0f0      	beq.n	10005022 <_pio_find_offset_for_program+0x3a>
10005040:	3801      	subs	r0, #1
10005042:	e7f7      	b.n	10005034 <_pio_find_offset_for_program+0x4c>
10005044:	2001      	movs	r0, #1
10005046:	4240      	negs	r0, r0
10005048:	e7eb      	b.n	10005022 <_pio_find_offset_for_program+0x3a>
1000504a:	2001      	movs	r0, #1
1000504c:	4240      	negs	r0, r0
1000504e:	e7e8      	b.n	10005022 <_pio_find_offset_for_program+0x3a>
10005050:	afd00000 	.word	0xafd00000
10005054:	20005c84 	.word	0x20005c84
10005058:	10006514 	.word	0x10006514
1000505c:	1000659c 	.word	0x1000659c
10005060:	10006540 	.word	0x10006540

10005064 <_pio_add_program_at_offset>:
10005064:	b570      	push	{r4, r5, r6, lr}
10005066:	0005      	movs	r5, r0
10005068:	000c      	movs	r4, r1
1000506a:	0016      	movs	r6, r2
1000506c:	f7ff ff9e 	bl	10004fac <_pio_can_add_program_at_offset>
10005070:	2800      	cmp	r0, #0
10005072:	d001      	beq.n	10005078 <_pio_add_program_at_offset+0x14>
10005074:	2100      	movs	r1, #0
10005076:	e007      	b.n	10005088 <_pio_add_program_at_offset+0x24>
10005078:	4815      	ldr	r0, [pc, #84]	; (100050d0 <_pio_add_program_at_offset+0x6c>)
1000507a:	f7fd f973 	bl	10002364 <panic>
1000507e:	198b      	adds	r3, r1, r6
10005080:	3312      	adds	r3, #18
10005082:	009b      	lsls	r3, r3, #2
10005084:	515a      	str	r2, [r3, r5]
10005086:	3101      	adds	r1, #1
10005088:	7923      	ldrb	r3, [r4, #4]
1000508a:	428b      	cmp	r3, r1
1000508c:	d90f      	bls.n	100050ae <_pio_add_program_at_offset+0x4a>
1000508e:	7823      	ldrb	r3, [r4, #0]
10005090:	7862      	ldrb	r2, [r4, #1]
10005092:	0212      	lsls	r2, r2, #8
10005094:	431a      	orrs	r2, r3
10005096:	78a3      	ldrb	r3, [r4, #2]
10005098:	041b      	lsls	r3, r3, #16
1000509a:	431a      	orrs	r2, r3
1000509c:	78e3      	ldrb	r3, [r4, #3]
1000509e:	061b      	lsls	r3, r3, #24
100050a0:	4313      	orrs	r3, r2
100050a2:	004a      	lsls	r2, r1, #1
100050a4:	5a9a      	ldrh	r2, [r3, r2]
100050a6:	0b53      	lsrs	r3, r2, #13
100050a8:	d1e9      	bne.n	1000507e <_pio_add_program_at_offset+0x1a>
100050aa:	1992      	adds	r2, r2, r6
100050ac:	e7e7      	b.n	1000507e <_pio_add_program_at_offset+0x1a>
100050ae:	2201      	movs	r2, #1
100050b0:	409a      	lsls	r2, r3
100050b2:	0013      	movs	r3, r2
100050b4:	3b01      	subs	r3, #1
100050b6:	4a07      	ldr	r2, [pc, #28]	; (100050d4 <_pio_add_program_at_offset+0x70>)
100050b8:	4694      	mov	ip, r2
100050ba:	4465      	add	r5, ip
100050bc:	4268      	negs	r0, r5
100050be:	4145      	adcs	r5, r0
100050c0:	40b3      	lsls	r3, r6
100050c2:	4a05      	ldr	r2, [pc, #20]	; (100050d8 <_pio_add_program_at_offset+0x74>)
100050c4:	00ad      	lsls	r5, r5, #2
100050c6:	58a9      	ldr	r1, [r5, r2]
100050c8:	430b      	orrs	r3, r1
100050ca:	50ab      	str	r3, [r5, r2]
100050cc:	bd70      	pop	{r4, r5, r6, pc}
100050ce:	46c0      	nop			; (mov r8, r8)
100050d0:	10006588 	.word	0x10006588
100050d4:	afd00000 	.word	0xafd00000
100050d8:	20005c84 	.word	0x20005c84

100050dc <pio_add_program>:
100050dc:	b5f8      	push	{r3, r4, r5, r6, r7, lr}
100050de:	0005      	movs	r5, r0
100050e0:	000e      	movs	r6, r1
100050e2:	f7fb ff8b 	bl	10000ffc <hw_claim_lock>
100050e6:	0007      	movs	r7, r0
100050e8:	0031      	movs	r1, r6
100050ea:	0028      	movs	r0, r5
100050ec:	f7ff ff7c 	bl	10004fe8 <_pio_find_offset_for_program>
100050f0:	1e04      	subs	r4, r0, #0
100050f2:	db09      	blt.n	10005108 <pio_add_program+0x2c>
100050f4:	0002      	movs	r2, r0
100050f6:	0031      	movs	r1, r6
100050f8:	0028      	movs	r0, r5
100050fa:	f7ff ffb3 	bl	10005064 <_pio_add_program_at_offset>
100050fe:	0038      	movs	r0, r7
10005100:	f7fb ff88 	bl	10001014 <hw_claim_unlock>
10005104:	0020      	movs	r0, r4
10005106:	bdf8      	pop	{r3, r4, r5, r6, r7, pc}
10005108:	4801      	ldr	r0, [pc, #4]	; (10005110 <pio_add_program+0x34>)
1000510a:	f7fd f92b 	bl	10002364 <panic>
1000510e:	46c0      	nop			; (mov r8, r8)
10005110:	10006588 	.word	0x10006588

10005114 <pio_sm_set_consecutive_pindirs>:
10005114:	b5f0      	push	{r4, r5, r6, r7, lr}
10005116:	ac05      	add	r4, sp, #20
10005118:	7825      	ldrb	r5, [r4, #0]
1000511a:	004c      	lsls	r4, r1, #1
1000511c:	1864      	adds	r4, r4, r1
1000511e:	00e4      	lsls	r4, r4, #3
10005120:	1904      	adds	r4, r0, r4
10005122:	34dc      	adds	r4, #220	; 0xdc
10005124:	6824      	ldr	r4, [r4, #0]
10005126:	46a4      	mov	ip, r4
10005128:	2d00      	cmp	r5, #0
1000512a:	d016      	beq.n	1000515a <pio_sm_set_consecutive_pindirs+0x46>
1000512c:	261f      	movs	r6, #31
1000512e:	2b05      	cmp	r3, #5
10005130:	d915      	bls.n	1000515e <pio_sm_set_consecutive_pindirs+0x4a>
10005132:	0154      	lsls	r4, r2, #5
10005134:	25a0      	movs	r5, #160	; 0xa0
10005136:	056d      	lsls	r5, r5, #21
10005138:	4325      	orrs	r5, r4
1000513a:	004c      	lsls	r4, r1, #1
1000513c:	1864      	adds	r4, r4, r1
1000513e:	00e4      	lsls	r4, r4, #3
10005140:	1904      	adds	r4, r0, r4
10005142:	0027      	movs	r7, r4
10005144:	37dc      	adds	r7, #220	; 0xdc
10005146:	603d      	str	r5, [r7, #0]
10005148:	4d0d      	ldr	r5, [pc, #52]	; (10005180 <pio_sm_set_consecutive_pindirs+0x6c>)
1000514a:	4335      	orrs	r5, r6
1000514c:	34d8      	adds	r4, #216	; 0xd8
1000514e:	6025      	str	r5, [r4, #0]
10005150:	3b05      	subs	r3, #5
10005152:	3205      	adds	r2, #5
10005154:	241f      	movs	r4, #31
10005156:	4022      	ands	r2, r4
10005158:	e7e9      	b.n	1000512e <pio_sm_set_consecutive_pindirs+0x1a>
1000515a:	2600      	movs	r6, #0
1000515c:	e7e7      	b.n	1000512e <pio_sm_set_consecutive_pindirs+0x1a>
1000515e:	069b      	lsls	r3, r3, #26
10005160:	0152      	lsls	r2, r2, #5
10005162:	431a      	orrs	r2, r3
10005164:	004c      	lsls	r4, r1, #1
10005166:	1863      	adds	r3, r4, r1
10005168:	00db      	lsls	r3, r3, #3
1000516a:	18c3      	adds	r3, r0, r3
1000516c:	001d      	movs	r5, r3
1000516e:	35dc      	adds	r5, #220	; 0xdc
10005170:	602a      	str	r2, [r5, #0]
10005172:	4a03      	ldr	r2, [pc, #12]	; (10005180 <pio_sm_set_consecutive_pindirs+0x6c>)
10005174:	4316      	orrs	r6, r2
10005176:	33d8      	adds	r3, #216	; 0xd8
10005178:	601e      	str	r6, [r3, #0]
1000517a:	4663      	mov	r3, ip
1000517c:	602b      	str	r3, [r5, #0]
1000517e:	bdf0      	pop	{r4, r5, r6, r7, pc}
10005180:	0000e080 	.word	0x0000e080

10005184 <pio_sm_init>:
10005184:	b5f0      	push	{r4, r5, r6, r7, lr}
10005186:	6804      	ldr	r4, [r0, #0]
10005188:	2501      	movs	r5, #1
1000518a:	408d      	lsls	r5, r1
1000518c:	43ac      	bics	r4, r5
1000518e:	6004      	str	r4, [r0, #0]
10005190:	2b00      	cmp	r3, #0
10005192:	d034      	beq.n	100051fe <pio_sm_init+0x7a>
10005194:	004c      	lsls	r4, r1, #1
10005196:	1864      	adds	r4, r4, r1
10005198:	00e4      	lsls	r4, r4, #3
1000519a:	1904      	adds	r4, r0, r4
1000519c:	0025      	movs	r5, r4
1000519e:	35c8      	adds	r5, #200	; 0xc8
100051a0:	681e      	ldr	r6, [r3, #0]
100051a2:	602e      	str	r6, [r5, #0]
100051a4:	3504      	adds	r5, #4
100051a6:	685e      	ldr	r6, [r3, #4]
100051a8:	602e      	str	r6, [r5, #0]
100051aa:	3504      	adds	r5, #4
100051ac:	689e      	ldr	r6, [r3, #8]
100051ae:	602e      	str	r6, [r5, #0]
100051b0:	68db      	ldr	r3, [r3, #12]
100051b2:	34dc      	adds	r4, #220	; 0xdc
100051b4:	6023      	str	r3, [r4, #0]
100051b6:	004c      	lsls	r4, r1, #1
100051b8:	1863      	adds	r3, r4, r1
100051ba:	00db      	lsls	r3, r3, #3
100051bc:	33d0      	adds	r3, #208	; 0xd0
100051be:	18c3      	adds	r3, r0, r3
100051c0:	2580      	movs	r5, #128	; 0x80
100051c2:	016d      	lsls	r5, r5, #5
100051c4:	432b      	orrs	r3, r5
100051c6:	2580      	movs	r5, #128	; 0x80
100051c8:	062d      	lsls	r5, r5, #24
100051ca:	601d      	str	r5, [r3, #0]
100051cc:	601d      	str	r5, [r3, #0]
100051ce:	4b16      	ldr	r3, [pc, #88]	; (10005228 <pio_sm_init+0xa4>)
100051d0:	408b      	lsls	r3, r1
100051d2:	6083      	str	r3, [r0, #8]
100051d4:	6805      	ldr	r5, [r0, #0]
100051d6:	1d0e      	adds	r6, r1, #4
100051d8:	2301      	movs	r3, #1
100051da:	001f      	movs	r7, r3
100051dc:	40b7      	lsls	r7, r6
100051de:	433d      	orrs	r5, r7
100051e0:	6005      	str	r5, [r0, #0]
100051e2:	6805      	ldr	r5, [r0, #0]
100051e4:	000e      	movs	r6, r1
100051e6:	3608      	adds	r6, #8
100051e8:	40b3      	lsls	r3, r6
100051ea:	432b      	orrs	r3, r5
100051ec:	6003      	str	r3, [r0, #0]
100051ee:	231f      	movs	r3, #31
100051f0:	401a      	ands	r2, r3
100051f2:	1861      	adds	r1, r4, r1
100051f4:	00c9      	lsls	r1, r1, #3
100051f6:	1840      	adds	r0, r0, r1
100051f8:	30d8      	adds	r0, #216	; 0xd8
100051fa:	6002      	str	r2, [r0, #0]
100051fc:	bdf0      	pop	{r4, r5, r6, r7, pc}
100051fe:	004b      	lsls	r3, r1, #1
10005200:	185b      	adds	r3, r3, r1
10005202:	00db      	lsls	r3, r3, #3
10005204:	18c3      	adds	r3, r0, r3
10005206:	001c      	movs	r4, r3
10005208:	34c8      	adds	r4, #200	; 0xc8
1000520a:	2580      	movs	r5, #128	; 0x80
1000520c:	026d      	lsls	r5, r5, #9
1000520e:	6025      	str	r5, [r4, #0]
10005210:	3404      	adds	r4, #4
10005212:	25f8      	movs	r5, #248	; 0xf8
10005214:	026d      	lsls	r5, r5, #9
10005216:	6025      	str	r5, [r4, #0]
10005218:	3404      	adds	r4, #4
1000521a:	25c0      	movs	r5, #192	; 0xc0
1000521c:	032d      	lsls	r5, r5, #12
1000521e:	6025      	str	r5, [r4, #0]
10005220:	33dc      	adds	r3, #220	; 0xdc
10005222:	2400      	movs	r4, #0
10005224:	601c      	str	r4, [r3, #0]
10005226:	e7c6      	b.n	100051b6 <pio_sm_init+0x32>
10005228:	01010101 	.word	0x01010101

1000522c <core1_trampoline>:
1000522c:	bd03      	pop	{r0, r1, pc}

1000522e <core1_wrapper>:
1000522e:	b510      	push	{r4, lr}
10005230:	0004      	movs	r4, r0
10005232:	f7fd fbbd 	bl	100029b0 <irq_init_priorities>
10005236:	47a0      	blx	r4
10005238:	bd10      	pop	{r4, pc}

1000523a <multicore_fifo_push_blocking>:
1000523a:	23d0      	movs	r3, #208	; 0xd0
1000523c:	061b      	lsls	r3, r3, #24
1000523e:	6d1b      	ldr	r3, [r3, #80]	; 0x50
10005240:	079b      	lsls	r3, r3, #30
10005242:	d5fa      	bpl.n	1000523a <multicore_fifo_push_blocking>
10005244:	23d0      	movs	r3, #208	; 0xd0
10005246:	061b      	lsls	r3, r3, #24
10005248:	6558      	str	r0, [r3, #84]	; 0x54
1000524a:	bf40      	sev
1000524c:	4770      	bx	lr

1000524e <multicore_fifo_pop_blocking>:
1000524e:	23d0      	movs	r3, #208	; 0xd0
10005250:	061b      	lsls	r3, r3, #24
10005252:	6d1b      	ldr	r3, [r3, #80]	; 0x50
10005254:	07db      	lsls	r3, r3, #31
10005256:	d401      	bmi.n	1000525c <multicore_fifo_pop_blocking+0xe>
10005258:	bf20      	wfe
1000525a:	e7f8      	b.n	1000524e <multicore_fifo_pop_blocking>
1000525c:	23d0      	movs	r3, #208	; 0xd0
1000525e:	061b      	lsls	r3, r3, #24
10005260:	6d98      	ldr	r0, [r3, #88]	; 0x58
10005262:	4770      	bx	lr

10005264 <multicore_launch_core1_raw>:
10005264:	b570      	push	{r4, r5, r6, lr}
10005266:	b086      	sub	sp, #24
10005268:	2300      	movs	r3, #0
1000526a:	9300      	str	r3, [sp, #0]
1000526c:	9301      	str	r3, [sp, #4]
1000526e:	3301      	adds	r3, #1
10005270:	9302      	str	r3, [sp, #8]
10005272:	9203      	str	r2, [sp, #12]
10005274:	9104      	str	r1, [sp, #16]
10005276:	9005      	str	r0, [sp, #20]
10005278:	200f      	movs	r0, #15
1000527a:	f7fd f9e1 	bl	10002640 <irq_is_enabled>
1000527e:	0006      	movs	r6, r0
10005280:	2100      	movs	r1, #0
10005282:	200f      	movs	r0, #15
10005284:	f7fd f9f8 	bl	10002678 <irq_set_enabled>
10005288:	2500      	movs	r5, #0
1000528a:	e000      	b.n	1000528e <multicore_launch_core1_raw+0x2a>
1000528c:	2500      	movs	r5, #0
1000528e:	00ab      	lsls	r3, r5, #2
10005290:	466a      	mov	r2, sp
10005292:	589c      	ldr	r4, [r3, r2]
10005294:	2c00      	cmp	r4, #0
10005296:	d00f      	beq.n	100052b8 <multicore_launch_core1_raw+0x54>
10005298:	0020      	movs	r0, r4
1000529a:	f7ff ffce 	bl	1000523a <multicore_fifo_push_blocking>
1000529e:	f7ff ffd6 	bl	1000524e <multicore_fifo_pop_blocking>
100052a2:	4284      	cmp	r4, r0
100052a4:	d1f2      	bne.n	1000528c <multicore_launch_core1_raw+0x28>
100052a6:	3501      	adds	r5, #1
100052a8:	2d05      	cmp	r5, #5
100052aa:	d9f0      	bls.n	1000528e <multicore_launch_core1_raw+0x2a>
100052ac:	0031      	movs	r1, r6
100052ae:	200f      	movs	r0, #15
100052b0:	f7fd f9e2 	bl	10002678 <irq_set_enabled>
100052b4:	b006      	add	sp, #24
100052b6:	bd70      	pop	{r4, r5, r6, pc}
100052b8:	23d0      	movs	r3, #208	; 0xd0
100052ba:	061b      	lsls	r3, r3, #24
100052bc:	6d1b      	ldr	r3, [r3, #80]	; 0x50
100052be:	07db      	lsls	r3, r3, #31
100052c0:	d503      	bpl.n	100052ca <multicore_launch_core1_raw+0x66>
100052c2:	23d0      	movs	r3, #208	; 0xd0
100052c4:	061b      	lsls	r3, r3, #24
100052c6:	6d9b      	ldr	r3, [r3, #88]	; 0x58
100052c8:	e7f6      	b.n	100052b8 <multicore_launch_core1_raw+0x54>
100052ca:	bf40      	sev
100052cc:	e7e4      	b.n	10005298 <multicore_launch_core1_raw+0x34>
	...

100052d0 <multicore_launch_core1_with_stack>:
100052d0:	b510      	push	{r4, lr}
100052d2:	000b      	movs	r3, r1
100052d4:	0791      	lsls	r1, r2, #30
100052d6:	d111      	bne.n	100052fc <multicore_launch_core1_with_stack+0x2c>
100052d8:	2103      	movs	r1, #3
100052da:	438a      	bics	r2, r1
100052dc:	189a      	adds	r2, r3, r2
100052de:	0011      	movs	r1, r2
100052e0:	390c      	subs	r1, #12
100052e2:	6008      	str	r0, [r1, #0]
100052e4:	0010      	movs	r0, r2
100052e6:	3808      	subs	r0, #8
100052e8:	6003      	str	r3, [r0, #0]
100052ea:	3a04      	subs	r2, #4
100052ec:	4b06      	ldr	r3, [pc, #24]	; (10005308 <multicore_launch_core1_with_stack+0x38>)
100052ee:	6013      	str	r3, [r2, #0]
100052f0:	4b06      	ldr	r3, [pc, #24]	; (1000530c <multicore_launch_core1_with_stack+0x3c>)
100052f2:	689a      	ldr	r2, [r3, #8]
100052f4:	4806      	ldr	r0, [pc, #24]	; (10005310 <multicore_launch_core1_with_stack+0x40>)
100052f6:	f7ff ffb5 	bl	10005264 <multicore_launch_core1_raw>
100052fa:	bd10      	pop	{r4, pc}
100052fc:	4b05      	ldr	r3, [pc, #20]	; (10005314 <multicore_launch_core1_with_stack+0x44>)
100052fe:	4a06      	ldr	r2, [pc, #24]	; (10005318 <multicore_launch_core1_with_stack+0x48>)
10005300:	216e      	movs	r1, #110	; 0x6e
10005302:	4806      	ldr	r0, [pc, #24]	; (1000531c <multicore_launch_core1_with_stack+0x4c>)
10005304:	f7fd f810 	bl	10002328 <__assert_func>
10005308:	1000522f 	.word	0x1000522f
1000530c:	e000ed00 	.word	0xe000ed00
10005310:	1000522d 	.word	0x1000522d
10005314:	10006624 	.word	0x10006624
10005318:	10006640 	.word	0x10006640
1000531c:	100065d4 	.word	0x100065d4

10005320 <multicore_launch_core1>:
10005320:	b510      	push	{r4, lr}
10005322:	4a06      	ldr	r2, [pc, #24]	; (1000533c <multicore_launch_core1+0x1c>)
10005324:	4b06      	ldr	r3, [pc, #24]	; (10005340 <multicore_launch_core1+0x20>)
10005326:	429a      	cmp	r2, r3
10005328:	d305      	bcc.n	10005336 <multicore_launch_core1+0x16>
1000532a:	0011      	movs	r1, r2
1000532c:	2280      	movs	r2, #128	; 0x80
1000532e:	0112      	lsls	r2, r2, #4
10005330:	f7ff ffce 	bl	100052d0 <multicore_launch_core1_with_stack>
10005334:	bd10      	pop	{r4, pc}
10005336:	2101      	movs	r1, #1
10005338:	4249      	negs	r1, r1
1000533a:	e7f7      	b.n	1000532c <multicore_launch_core1+0xc>
1000533c:	20040800 	.word	0x20040800
10005340:	20040000 	.word	0x20040000

10005344 <strlen>:
10005344:	b510      	push	{r4, lr}
10005346:	0783      	lsls	r3, r0, #30
10005348:	d027      	beq.n	1000539a <strlen+0x56>
1000534a:	7803      	ldrb	r3, [r0, #0]
1000534c:	2b00      	cmp	r3, #0
1000534e:	d026      	beq.n	1000539e <strlen+0x5a>
10005350:	0003      	movs	r3, r0
10005352:	2103      	movs	r1, #3
10005354:	e002      	b.n	1000535c <strlen+0x18>
10005356:	781a      	ldrb	r2, [r3, #0]
10005358:	2a00      	cmp	r2, #0
1000535a:	d01c      	beq.n	10005396 <strlen+0x52>
1000535c:	3301      	adds	r3, #1
1000535e:	420b      	tst	r3, r1
10005360:	d1f9      	bne.n	10005356 <strlen+0x12>
10005362:	6819      	ldr	r1, [r3, #0]
10005364:	4a0f      	ldr	r2, [pc, #60]	; (100053a4 <strlen+0x60>)
10005366:	4c10      	ldr	r4, [pc, #64]	; (100053a8 <strlen+0x64>)
10005368:	188a      	adds	r2, r1, r2
1000536a:	438a      	bics	r2, r1
1000536c:	4222      	tst	r2, r4
1000536e:	d10f      	bne.n	10005390 <strlen+0x4c>
10005370:	3304      	adds	r3, #4
10005372:	6819      	ldr	r1, [r3, #0]
10005374:	4a0b      	ldr	r2, [pc, #44]	; (100053a4 <strlen+0x60>)
10005376:	188a      	adds	r2, r1, r2
10005378:	438a      	bics	r2, r1
1000537a:	4222      	tst	r2, r4
1000537c:	d108      	bne.n	10005390 <strlen+0x4c>
1000537e:	3304      	adds	r3, #4
10005380:	6819      	ldr	r1, [r3, #0]
10005382:	4a08      	ldr	r2, [pc, #32]	; (100053a4 <strlen+0x60>)
10005384:	188a      	adds	r2, r1, r2
10005386:	438a      	bics	r2, r1
10005388:	4222      	tst	r2, r4
1000538a:	d0f1      	beq.n	10005370 <strlen+0x2c>
1000538c:	e000      	b.n	10005390 <strlen+0x4c>
1000538e:	3301      	adds	r3, #1
10005390:	781a      	ldrb	r2, [r3, #0]
10005392:	2a00      	cmp	r2, #0
10005394:	d1fb      	bne.n	1000538e <strlen+0x4a>
10005396:	1a18      	subs	r0, r3, r0
10005398:	bd10      	pop	{r4, pc}
1000539a:	0003      	movs	r3, r0
1000539c:	e7e1      	b.n	10005362 <strlen+0x1e>
1000539e:	2000      	movs	r0, #0
100053a0:	e7fa      	b.n	10005398 <strlen+0x54>
100053a2:	46c0      	nop			; (mov r8, r8)
100053a4:	fefefeff 	.word	0xfefefeff
100053a8:	80808080 	.word	0x80808080

100053ac <_fini>:
100053ac:	b5f8      	push	{r3, r4, r5, r6, r7, lr}
100053ae:	46c0      	nop			; (mov r8, r8)

100053b0 <__mutex_exit_veneer>:
100053b0:	b401      	push	{r0}
100053b2:	4802      	ldr	r0, [pc, #8]	; (100053bc <__mutex_exit_veneer+0xc>)
100053b4:	4684      	mov	ip, r0
100053b6:	bc01      	pop	{r0}
100053b8:	4760      	bx	ip
100053ba:	bf00      	nop
100053bc:	200001b1 	.word	0x200001b1

100053c0 <____aeabi_ldiv0_veneer>:
100053c0:	b401      	push	{r0}
100053c2:	4802      	ldr	r0, [pc, #8]	; (100053cc <____aeabi_ldiv0_veneer+0xc>)
100053c4:	4684      	mov	ip, r0
100053c6:	bc01      	pop	{r0}
100053c8:	4760      	bx	ip
100053ca:	bf00      	nop
100053cc:	20000245 	.word	0x20000245

100053d0 <____aeabi_idiv0_veneer>:
100053d0:	b401      	push	{r0}
100053d2:	4802      	ldr	r0, [pc, #8]	; (100053dc <____aeabi_idiv0_veneer+0xc>)
100053d4:	4684      	mov	ip, r0
100053d6:	bc01      	pop	{r0}
100053d8:	4760      	bx	ip
100053da:	bf00      	nop
100053dc:	20000245 	.word	0x20000245

100053e0 <__mutex_try_enter_veneer>:
100053e0:	b401      	push	{r0}
100053e2:	4802      	ldr	r0, [pc, #8]	; (100053ec <__mutex_try_enter_veneer+0xc>)
100053e4:	4684      	mov	ip, r0
100053e6:	bc01      	pop	{r0}
100053e8:	4760      	bx	ip
100053ea:	bf00      	nop
100053ec:	20000155 	.word	0x20000155

100053f0 <__mutex_enter_blocking_veneer>:
100053f0:	b401      	push	{r0}
100053f2:	4802      	ldr	r0, [pc, #8]	; (100053fc <__mutex_enter_blocking_veneer+0xc>)
100053f4:	4684      	mov	ip, r0
100053f6:	bc01      	pop	{r0}
100053f8:	4760      	bx	ip
100053fa:	bf00      	nop
100053fc:	200000c1 	.word	0x200000c1

Disassembly of section .data:

200000c0 <mutex_enter_blocking>:
200000c0:	b510      	push	{r4, lr}
200000c2:	6803      	ldr	r3, [r0, #0]
200000c4:	2b00      	cmp	r3, #0
200000c6:	d11c      	bne.n	20000102 <mutex_enter_blocking+0x42>
200000c8:	4b1e      	ldr	r3, [pc, #120]	; (20000144 <mutex_enter_blocking+0x84>)
200000ca:	4a1f      	ldr	r2, [pc, #124]	; (20000148 <mutex_enter_blocking+0x88>)
200000cc:	211a      	movs	r1, #26
200000ce:	481f      	ldr	r0, [pc, #124]	; (2000014c <mutex_enter_blocking+0x8c>)
200000d0:	f000 f8ba 	bl	20000248 <____assert_func_veneer>
200000d4:	7102      	strb	r2, [r0, #4]
200000d6:	7943      	ldrb	r3, [r0, #5]
200000d8:	2b00      	cmp	r3, #0
200000da:	d02a      	beq.n	20000132 <mutex_enter_blocking+0x72>
200000dc:	2bff      	cmp	r3, #255	; 0xff
200000de:	d102      	bne.n	200000e6 <mutex_enter_blocking+0x26>
200000e0:	3b01      	subs	r3, #1
200000e2:	7143      	strb	r3, [r0, #5]
200000e4:	e025      	b.n	20000132 <mutex_enter_blocking+0x72>
200000e6:	4b1a      	ldr	r3, [pc, #104]	; (20000150 <mutex_enter_blocking+0x90>)
200000e8:	4a17      	ldr	r2, [pc, #92]	; (20000148 <mutex_enter_blocking+0x88>)
200000ea:	2121      	movs	r1, #33	; 0x21
200000ec:	4817      	ldr	r0, [pc, #92]	; (2000014c <mutex_enter_blocking+0x8c>)
200000ee:	f000 f8ab 	bl	20000248 <____assert_func_veneer>
200000f2:	6803      	ldr	r3, [r0, #0]
200000f4:	f3bf 8f5f 	dmb	sy
200000f8:	2200      	movs	r2, #0
200000fa:	601a      	str	r2, [r3, #0]
200000fc:	f381 8810 	msr	PRIMASK, r1
20000100:	bf20      	wfe
20000102:	6802      	ldr	r2, [r0, #0]
20000104:	f3ef 8110 	mrs	r1, PRIMASK
20000108:	b672      	cpsid	i
2000010a:	6813      	ldr	r3, [r2, #0]
2000010c:	2b00      	cmp	r3, #0
2000010e:	d0fc      	beq.n	2000010a <mutex_enter_blocking+0x4a>
20000110:	f3bf 8f5f 	dmb	sy
20000114:	23d0      	movs	r3, #208	; 0xd0
20000116:	061b      	lsls	r3, r3, #24
20000118:	2200      	movs	r2, #0
2000011a:	569a      	ldrsb	r2, [r3, r2]
2000011c:	2304      	movs	r3, #4
2000011e:	56c3      	ldrsb	r3, [r0, r3]
20000120:	1c5c      	adds	r4, r3, #1
20000122:	d0d7      	beq.n	200000d4 <mutex_enter_blocking+0x14>
20000124:	4293      	cmp	r3, r2
20000126:	d1e4      	bne.n	200000f2 <mutex_enter_blocking+0x32>
20000128:	7943      	ldrb	r3, [r0, #5]
2000012a:	2b01      	cmp	r3, #1
2000012c:	d9e1      	bls.n	200000f2 <mutex_enter_blocking+0x32>
2000012e:	3b01      	subs	r3, #1
20000130:	7143      	strb	r3, [r0, #5]
20000132:	6803      	ldr	r3, [r0, #0]
20000134:	f3bf 8f5f 	dmb	sy
20000138:	2200      	movs	r2, #0
2000013a:	601a      	str	r2, [r3, #0]
2000013c:	f381 8810 	msr	PRIMASK, r1
20000140:	bd10      	pop	{r4, pc}
20000142:	46c0      	nop			; (mov r8, r8)
20000144:	10005ab0 	.word	0x10005ab0
20000148:	10005b70 	.word	0x10005b70
2000014c:	10005ac4 	.word	0x10005ac4
20000150:	10005b08 	.word	0x10005b08

20000154 <mutex_try_enter>:
20000154:	b530      	push	{r4, r5, lr}
20000156:	0003      	movs	r3, r0
20000158:	6800      	ldr	r0, [r0, #0]
2000015a:	f3ef 8410 	mrs	r4, PRIMASK
2000015e:	b672      	cpsid	i
20000160:	6802      	ldr	r2, [r0, #0]
20000162:	2a00      	cmp	r2, #0
20000164:	d0fc      	beq.n	20000160 <mutex_try_enter+0xc>
20000166:	f3bf 8f5f 	dmb	sy
2000016a:	22d0      	movs	r2, #208	; 0xd0
2000016c:	0612      	lsls	r2, r2, #24
2000016e:	2000      	movs	r0, #0
20000170:	5610      	ldrsb	r0, [r2, r0]
20000172:	2204      	movs	r2, #4
20000174:	569a      	ldrsb	r2, [r3, r2]
20000176:	1c55      	adds	r5, r2, #1
20000178:	d00d      	beq.n	20000196 <mutex_try_enter+0x42>
2000017a:	4282      	cmp	r2, r0
2000017c:	d00e      	beq.n	2000019c <mutex_try_enter+0x48>
2000017e:	2900      	cmp	r1, #0
20000180:	d013      	beq.n	200001aa <mutex_try_enter+0x56>
20000182:	600a      	str	r2, [r1, #0]
20000184:	2000      	movs	r0, #0
20000186:	681b      	ldr	r3, [r3, #0]
20000188:	f3bf 8f5f 	dmb	sy
2000018c:	2200      	movs	r2, #0
2000018e:	601a      	str	r2, [r3, #0]
20000190:	f384 8810 	msr	PRIMASK, r4
20000194:	bd30      	pop	{r4, r5, pc}
20000196:	7118      	strb	r0, [r3, #4]
20000198:	2001      	movs	r0, #1
2000019a:	e7f4      	b.n	20000186 <mutex_try_enter+0x32>
2000019c:	7958      	ldrb	r0, [r3, #5]
2000019e:	2801      	cmp	r0, #1
200001a0:	d9ed      	bls.n	2000017e <mutex_try_enter+0x2a>
200001a2:	3801      	subs	r0, #1
200001a4:	7158      	strb	r0, [r3, #5]
200001a6:	2001      	movs	r0, #1
200001a8:	e7ed      	b.n	20000186 <mutex_try_enter+0x32>
200001aa:	2000      	movs	r0, #0
200001ac:	e7eb      	b.n	20000186 <mutex_try_enter+0x32>
	...

200001b0 <mutex_exit>:
200001b0:	b510      	push	{r4, lr}
200001b2:	6802      	ldr	r2, [r0, #0]
200001b4:	f3ef 8110 	mrs	r1, PRIMASK
200001b8:	b672      	cpsid	i
200001ba:	6813      	ldr	r3, [r2, #0]
200001bc:	2b00      	cmp	r3, #0
200001be:	d0fc      	beq.n	200001ba <mutex_exit+0xa>
200001c0:	f3bf 8f5f 	dmb	sy
200001c4:	2304      	movs	r3, #4
200001c6:	56c3      	ldrsb	r3, [r0, r3]
200001c8:	3301      	adds	r3, #1
200001ca:	d00d      	beq.n	200001e8 <mutex_exit+0x38>
200001cc:	7943      	ldrb	r3, [r0, #5]
200001ce:	2b00      	cmp	r3, #0
200001d0:	d110      	bne.n	200001f4 <mutex_exit+0x44>
200001d2:	33ff      	adds	r3, #255	; 0xff
200001d4:	7103      	strb	r3, [r0, #4]
200001d6:	6803      	ldr	r3, [r0, #0]
200001d8:	f3bf 8f5f 	dmb	sy
200001dc:	2200      	movs	r2, #0
200001de:	601a      	str	r2, [r3, #0]
200001e0:	f381 8810 	msr	PRIMASK, r1
200001e4:	bf40      	sev
200001e6:	bd10      	pop	{r4, pc}
200001e8:	4b12      	ldr	r3, [pc, #72]	; (20000234 <mutex_exit+0x84>)
200001ea:	4a13      	ldr	r2, [pc, #76]	; (20000238 <mutex_exit+0x88>)
200001ec:	2163      	movs	r1, #99	; 0x63
200001ee:	4813      	ldr	r0, [pc, #76]	; (2000023c <mutex_exit+0x8c>)
200001f0:	f000 f82a 	bl	20000248 <____assert_func_veneer>
200001f4:	3301      	adds	r3, #1
200001f6:	b2db      	uxtb	r3, r3
200001f8:	7143      	strb	r3, [r0, #5]
200001fa:	2b00      	cmp	r3, #0
200001fc:	d009      	beq.n	20000212 <mutex_exit+0x62>
200001fe:	2bff      	cmp	r3, #255	; 0xff
20000200:	d00d      	beq.n	2000021e <mutex_exit+0x6e>
20000202:	6803      	ldr	r3, [r0, #0]
20000204:	f3bf 8f5f 	dmb	sy
20000208:	2200      	movs	r2, #0
2000020a:	601a      	str	r2, [r3, #0]
2000020c:	f381 8810 	msr	PRIMASK, r1
20000210:	e7e9      	b.n	200001e6 <mutex_exit+0x36>
20000212:	4b0b      	ldr	r3, [pc, #44]	; (20000240 <mutex_exit+0x90>)
20000214:	4a08      	ldr	r2, [pc, #32]	; (20000238 <mutex_exit+0x88>)
20000216:	2169      	movs	r1, #105	; 0x69
20000218:	4808      	ldr	r0, [pc, #32]	; (2000023c <mutex_exit+0x8c>)
2000021a:	f000 f815 	bl	20000248 <____assert_func_veneer>
2000021e:	7103      	strb	r3, [r0, #4]
20000220:	6803      	ldr	r3, [r0, #0]
20000222:	f3bf 8f5f 	dmb	sy
20000226:	2200      	movs	r2, #0
20000228:	601a      	str	r2, [r3, #0]
2000022a:	f381 8810 	msr	PRIMASK, r1
2000022e:	bf40      	sev
20000230:	e7d9      	b.n	200001e6 <mutex_exit+0x36>
20000232:	46c0      	nop			; (mov r8, r8)
20000234:	10005b34 	.word	0x10005b34
20000238:	10005b88 	.word	0x10005b88
2000023c:	10005ac4 	.word	0x10005ac4
20000240:	10005b58 	.word	0x10005b58

20000244 <__aeabi_idiv0>:
20000244:	4770      	bx	lr
20000246:	46c0      	nop			; (mov r8, r8)

20000248 <____assert_func_veneer>:
20000248:	b401      	push	{r0}
2000024a:	4802      	ldr	r0, [pc, #8]	; (20000254 <____assert_func_veneer+0xc>)
2000024c:	4684      	mov	ip, r0
2000024e:	bc01      	pop	{r0}
20000250:	4760      	bx	ip
20000252:	bf00      	nop
20000254:	10002329 	.word	0x10002329

20000258 <data_gpio>:
20000258:	00000008 00000009 0000000a 0000000b     ................
20000268:	0000000c 0000000d 0000000e 0000000f     ................

20000278 <i2c_bus_0>:
20000278:	07001200                                ....

2000027c <ioport_gpio>:
2000027c:	00000000 00000001 00000005 00000014     ................
2000028c:	0000001a 00000000 00000000 00000000     ................

2000029c <oled0>:
2000029c:	20000278 0000003c                       x.. <...

200002a4 <pak_memory>:
200002a4:	c001046a 1900c025 8109ffff 4e49414d     j...%.......MAIN
200002b4:	20202020 57800290 003910cd 25c00000         ...W..9....%
200002c4:	014b0614 06c501a7 067a0670 06ad06a8     ..K.....p.z.....
200002d4:	068506a3 068f068a 069e0662 069406be     ........b.......
200002e4:	06f706fc 067506b2 ffffff99 ffffffff     ......u.........
200002f4:	ffffffff ffffffff ffffffff ffffffff     ................
20000304:	ffffffff ffffffff ffffffff ffffffff     ................
20000314:	ffffffff ffffffff ffffffff ffffffff     ................
20000324:	ffffffff ffffffff ffffffff ffffffff     ................
20000334:	ffffffff ffffffff ffffffff ffffffff     ................
20000344:	ffffffff ffffffff ffffffff ffffffff     ................
20000354:	ffffffff ffffffff ffffffff ffffffff     ................
20000364:	ffffffff ffffffff 0000ffff 00340000     ..............4.
20000374:	00000000 ff00ff00 ffffffff ffffffff     ................
20000384:	a0afc7ff 172f5f97 ff02050b 02ffffff     ....._/.........
20000394:	ffffffff ffffffff ffffffff ffffffff     ................
200003a4:	ffffff00 4f4305ff 07534d4d ff07022b     ......COMMS.+...
200003b4:	04ffbd02 ef04ff82 ff0302ff 08ffe905     ................
200003c4:	8d0904b6 10c30b04 0c10d30b 290c1001     ...............)
200003d4:	534c0410 54055445 24474952 45465805     ..LSET.TRIG$.XFE
200003e4:	5805464f 534f5046 50465805 58055455     OF.XFPOS.XFPUT.X
200003f4:	4e4f434c 444c5805 58055349 5455504c     LCON.XLDIS.XLPUT
20000404:	52504c06 06544e49 45474658 58062454     .LPRINT.XFGET$.X
20000414:	45504f46 4c58064e 24544547 4c4d5806     FOPEN.XLGET$.XML
20000424:	0644414f 45525458 58065643 4e455354     OAD.XTRECV.XTSEN
20000434:	494c0744 5455504e 46580724 534f4c43     D.LINPUT$.XFCLOS
20000444:	4b070045 4b077811 4b071512 4b07c116     E..K.x.K...K...K
20000454:	4b073c1f 4b07b524 4b07d23d 4b07863e     .<.K$..K=..K>..K
20000464:	47dec954 3c4bde3c 02bd01c6 ea00cebd     T..G<.K<........
20000474:	00fc673f 7221f7b8 384bdf38 390c47df     ?g....!r8.K8.G.9
20000484:	01cee4df 86eadf16 7ce89702 eadee800     ...........|....
20000494:	00a6e6df 5c162027 deeadf3a 2500a1e4     ....' .\:......%
200004a4:	5a1322ea 3c081227 e6de00a6 a1e6df08     .".Z'..<........
200004b4:	d7223800 390ded27 c086e8d6 007f390c     .8".'..9.....9..
200004c4:	007f39b0 2704c5b6 b1007f03 a6b500ce     .9.....'........
200004d4:	c4fc8400 048a1b03 088500a7 08622526     ............&%b.
200004e4:	7cd60700 0fbc00fd cc7cd75f 20fd0e05     ...|...._.|.... 
200004f4:	6305cc54 cc5220fd 20fd1b05 c103cc4c     T..c. R.... L...
20000504:	364820fd 2600106b 528d3c4d 7b482538     . H6k..&M<.R8%H{
20000514:	46261501 1740720f 86170872 72019701     ..&F.r@.r......r
20000524:	20860301 00b61197 861097b3 b61b9710     ... ............
20000534:	052a6d21 841b0172 861c977f 7111973a     !m*.r.......:..q
20000544:	11dc17bf b6001062 01845421 11860527     ....b...!T..'...
20000554:	717903bd 320c03fe c2c6390e f64ff920     ..yq...2.9.. .O.
20000564:	623f0200 94de0a25 c08c03ee 39012625     ..?b%.......%&.9
20000574:	0227c2c1 390de6c6 b500ce3c 2700046b     ..'....9<...k..'
20000584:	2702c50f b1007d08 0d380627 b1007f39     ...'.}..'.8.9...
20000594:	c500fb61 8d022701 390c3803 6bb500ce     a....'...8.9...k
200005a4:	5a270010 0301720e 845421b6 6b182701     ..'Z.r...!T..'.k
200005b4:	0a270004 26b6007d b1007d05 016bf626     ..'.}..&.}..&.k.
200005c4:	86042600 b66d8d13 00b76e21 4f0896b4     .&....m.!n.....O
200005d4:	fc09dd5f 0bdd6f21 b1b000b6 c826b000     _...!o........&.
200005e4:	26b4007d 40720ff6 17f77117 11d720c6     }..&..r@.q... ..
200005f4:	974f1bd7 1c974a01 6117bf71 046b00ef     ..O..J..q..a..k.
20000604:	0f212600 bc00ce3c 20fd02ec fd04ec54     .&!.<...... T...
20000614:	06ec5220 ec4c20fd 4820fd08 7cd700ec      R... L... H...|
20000624:	00f76138 06bc00b6 b500ce39 8d00fb61     8a......9...a...
20000634:	395b3fb4 2711207b 8d1636fb 52217d1a     .?[9{ .'.6...}!R
20000644:	10d60b27 1b44bfc4 20321097 10407207     '.....D...2 .r@.
20000654:	1b7fc433 b6391397 1b275121 17270380     3.....9.!Q'...'.
20000664:	7d17274a 02265221 1b4f7fc4 b8fc2654     J'.}!R&...O.T&..
20000674:	46465121 86398084 394f3980 408411dc     !QFF..9..9O9...@
20000684:	d38d6426 275221f6 51217d0f 10980627     &d...!R'.}!Q'...
20000694:	56268084 08201296 80851298 7f844c26     ..&V.. .....&L..
200006a4:	c55421f6 81102701 7f042611 813bb100     .!T..'...&....;.
200006b4:	b7042613 f63bb100 01c4b500 358d2726     .&....;.....&'.5
200006c4:	0226ff81 21b62f8d f61a2754 70c1b000     ..&../.!T'.....p
200006d4:	00b71323 270285b2 03017203 05270185     #......'.r....'.
200006e4:	03bd1386 02c63b79 03c60220 8dff8637     ....y;.. ...7...
200006f4:	018d3204 2e00ce3b 7fc182e6 81eb0924     .2..;.......$...
20000704:	7fc4826c 3900a73a 2e00ce0f a63a81e6     l...:..9......:.
20000714:	7fc45c00 f6af00f7 f75ab000 c10eb000     .\........Z.....
20000724:	f6172210 1227b200 3609265a 03bd1186     ."....'.Z&.6....
20000734:	03203279 7f03fe71 ff81b200 8d363c39     y2 .q.......9<6.
20000744:	f62b2531 01c55421 007d0527 c51e26b1     1%+.!T..'.}..&..
20000754:	7b052702 15260304 052704c5 2603027b     .'.{..&...'.{..&
20000764:	11207b0c 03bd0727 5f383279 38325f39     .{ .'...y28_9_28
20000774:	00ce390d 00046bb5 007d1427 6b1a26b6     .9...k..'.}..&.k
20000784:	03260010 7b4802bd 06261501 e7c6390c     ..&...H{..&..9..
20000794:	03bd1620 20c2c66e b6007f0f 026bcec6      ...n.. ......k.
200007a4:	7d052700 e427b000 8d3c390d b61725c5     .'.}..'..9<..%..
200007b4:	1127b000 264d04bd 4d04bd05 385f0326     ..'...M&...M&._8
200007c4:	20c1c639 0d385f01 71217d39 217a0327     9.. ._8.9}!q'.z!
200007d4:	be00fe71 0896006e 09dd5f4f 0bdd71dc     q...n...O_...q..
200007e4:	27b4007d b4007a03 26bb007d bb007c29     }..'.z..}..&)|..
200007f4:	042a1596 b600b743 74107b0e 05ce1026     ..*.C....{.t&...
20000804:	3c3c3c4f c200fe34 007f006e 007a3bbb     O<<<4...n....;z.
20000814:	cd05bd74 6ddef420 df090327 34383b6d     t... ..m'...m;84
20000824:	ec303c36 ee03ed05 ce00e607 62c1b500     6<0............b
20000834:	5bc12227 13c13827 0dc13e27 0fc10425     '".['8..'>..%...
20000844:	23fe2323 ec3a3ae7 05ed3000 00c307ec     ##.#.::..0......
20000854:	3b07ed01 2700106b 016d30e9 bd37e427     ...;k..'.0m.'.7.
20000864:	2033e102 00106bdd 1c8dd827 046b0520     ..3 .k..'... .k.
20000874:	cceb2700 d120e805 2700046b 15017bc5     .'.... .k..'.{..
20000884:	bd37c027 da206e03 26a4007d 7d4f3716     '.7..n .}..&.7O}
20000894:	20c68002 7dfd265a 20c6c002 4afd265a     ... Z&.}... Z&.J
200008a4:	3933ed26 ce5021f6 a63ac600 2203c100     &.39.!P...:...."
200008b4:	b7808a02 4f166d21 c4052a5c 0505057f     ....!m.O\*......
200008c4:	5421b618 846c21f6 f6062601 007f6b21     ..!T.!l..&..!k..
200008d4:	793f4fb1 3f8d01cc 217f1879 217c086e     .O?y...?y..!n.|!
200008e4:	2471936e f62609f9 21fd71d3 21b65f6f     n.q$..&..q.!o_.!
200008f4:	5321bb52 2751217d 2f4a4c01 cb10c602     R.!S}!Q'.LJ/....
20000904:	b300f724 00bf390c 3c47ded0 c63c4bde     $....9....G<.K<.
20000914:	bd6f8d00 df386807 47df384b d000bf39     ..o..h8.K8.G9...
20000924:	c63742d6 335b8d04 ceb6087e 0820b407     .B7...[3~..... .
20000934:	20c709ce 3c0bce03 3cd000bf 422004c6     ... ...<...<.. B
20000944:	20bd0bce cd0bce37 0bce3220 ce2d20f9     ... 7... 2... -.
20000954:	28201d0c 20400ece 4a0ece23 0ece1e20     .. (..@ #..J ...
20000964:	ce192045 1420540e 204f0ece 590ece0f     E ...T ...O ...Y
20000974:	3f370a20 203f3346 3b0ece39 3cd000bf      .7?F3? 9..;...<
20000984:	f13c10c6 1827ba00 a302bd37 f7331425     ..<...'.7...%.3.
20000994:	01ceba00 00ec3a87 02ee41dd 02251a3f     .....:...A..?.%.
200009a4:	c6373938 bd02bd01 c68d3733 d000be33     897.....37..3...
200009b4:	0ece390d cec5205e c020360e ddd000bf     .9..^ ...6 .....
200009c4:	38e2dfe0 3c0800e6 3af200ce 02e63a3a     ...8...<...:::..
200009d4:	ffc100ee aa8d0227 dee0dc3c a28d39e2     ....'...<....9..
200009e4:	14c600ad 00bf9c20 20f78dd0 36073719     .... ...... .7.6
200009f4:	8e8d1cc6 39330632 868d10c6 370d0ebd     ....2.39.......7
20000a04:	18c63607 ffffec20 ffffffff ffffffff     .6.. ...........
20000a14:	ffffffff ffffffff ffffffff ffffffff     ................
20000a24:	ffffffff ffffffff ffffffff ffffffff     ................
20000a34:	ffffffff ffffffff ffffffff ffffffff     ................
20000a44:	ffffffff ffffffff ffffffff ffffffff     ................
20000a54:	ffffffff ffffffff ffffffff ffffffff     ................
20000a64:	ffffffff ffffffff ffffffff ffffffff     ................
20000a74:	ffffffff ffffffff ffffffff ffffffff     ................
20000a84:	ffffffff ffffffff ffffffff ffffffff     ................
20000a94:	ffffffff ffffffff ffffffff ffffffff     ................
20000aa4:	ffffffff ffffffff ffffffff ffffffff     ................
20000ab4:	ffffffff ffffffff ffffffff ffffffff     ................
20000ac4:	ffffffff ffffffff ffffffff ffffffff     ................
20000ad4:	ffffffff ffffffff ffffffff ffffffff     ................
20000ae4:	ffffffff ffffffff ffffffff ffffffff     ................
20000af4:	ffffffff ffffffff ffffffff ffffffff     ................
20000b04:	ffffffff ffffffff ffffffff ffffffff     ................
20000b14:	ffffffff ffffffff ffffffff ffffffff     ................
20000b24:	ffffffff ffffffff ffffffff ffffffff     ................
20000b34:	ffffffff ffffffff ffffffff ffffffff     ................
20000b44:	ffffffff ffffffff ffffffff ffffffff     ................
20000b54:	ffffffff ffffffff ffffffff ffffffff     ................
20000b64:	ffffffff ffffffff ffffffff ffffffff     ................
20000b74:	ffffffff ffffffff ffffffff ffffffff     ................
20000b84:	ffffffff ffffffff ffffffff ffffffff     ................
20000b94:	ffffffff ffffffff ffffffff ffffffff     ................
20000ba4:	ffffffff ffffffff ffffffff ffffffff     ................
20000bb4:	ffffffff ffffffff ffffffff ffffffff     ................
20000bc4:	ffffffff ffffffff ffffffff ffffffff     ................
20000bd4:	ffffffff ffffffff ffffffff ffffffff     ................
20000be4:	ffffffff ffffffff ffffffff ffffffff     ................
20000bf4:	ffffffff ffffffff ffffffff ffffffff     ................
20000c04:	ffffffff ffffffff ffffffff ffffffff     ................
20000c14:	ffffffff ffffffff ffffffff ffffffff     ................
20000c24:	ffffffff ffffffff ffffffff ffffffff     ................
20000c34:	ffffffff ffffffff ffffffff ffffffff     ................
20000c44:	ffffffff ffffffff ffffffff ffffffff     ................
20000c54:	ffffffff ffffffff ffffffff ffffffff     ................
20000c64:	ffffffff ffffffff ffffffff ffffffff     ................
20000c74:	ffffffff ffffffff ffffffff ffffffff     ................
20000c84:	ffffffff ffffffff ffffffff ffffffff     ................
20000c94:	ffffffff ffffffff ffffffff ffffffff     ................
20000ca4:	ffffffff ffffffff ffffffff ffffffff     ................
20000cb4:	ffffffff ffffffff ffffffff ffffffff     ................
20000cc4:	ffffffff ffffffff ffffffff ffffffff     ................
20000cd4:	ffffffff ffffffff ffffffff ffffffff     ................
20000ce4:	ffffffff ffffffff ffffffff ffffffff     ................
20000cf4:	ffffffff ffffffff ffffffff ffffffff     ................
20000d04:	ffffffff ffffffff ffffffff ffffffff     ................
20000d14:	ffffffff ffffffff ffffffff ffffffff     ................
20000d24:	ffffffff ffffffff ffffffff ffffffff     ................
20000d34:	ffffffff ffffffff ffffffff ffffffff     ................
20000d44:	ffffffff ffffffff ffffffff ffffffff     ................
20000d54:	ffffffff ffffffff ffffffff ffffffff     ................
20000d64:	ffffffff ffffffff ffffffff ffffffff     ................
20000d74:	ffffffff ffffffff ffffffff ffffffff     ................
20000d84:	ffffffff ffffffff ffffffff ffffffff     ................
20000d94:	ffffffff ffffffff ffffffff ffffffff     ................
20000da4:	ffffffff ffffffff ffffffff ffffffff     ................
20000db4:	ffffffff ffffffff ffffffff ffffffff     ................
20000dc4:	ffffffff ffffffff ffffffff ffffffff     ................
20000dd4:	ffffffff ffffffff ffffffff ffffffff     ................
20000de4:	ffffffff ffffffff ffffffff ffffffff     ................
20000df4:	ffffffff ffffffff ffffffff ffffffff     ................
20000e04:	ffffffff ffffffff ffffffff ffffffff     ................
20000e14:	ffffffff ffffffff ffffffff ffffffff     ................
20000e24:	ffffffff ffffffff ffffffff ffffffff     ................
20000e34:	ffffffff ffffffff ffffffff ffffffff     ................
20000e44:	ffffffff ffffffff ffffffff ffffffff     ................
20000e54:	ffffffff ffffffff ffffffff ffffffff     ................
20000e64:	ffffffff ffffffff ffffffff ffffffff     ................
20000e74:	ffffffff ffffffff ffffffff ffffffff     ................
20000e84:	ffffffff ffffffff ffffffff ffffffff     ................
20000e94:	ffffffff ffffffff ffffffff ffffffff     ................
20000ea4:	ffffffff ffffffff ffffffff ffffffff     ................
20000eb4:	ffffffff ffffffff ffffffff ffffffff     ................
20000ec4:	ffffffff ffffffff ffffffff ffffffff     ................
20000ed4:	ffffffff ffffffff ffffffff ffffffff     ................
20000ee4:	ffffffff ffffffff ffffffff ffffffff     ................
20000ef4:	ffffffff ffffffff ffffffff ffffffff     ................
20000f04:	ffffffff ffffffff ffffffff ffffffff     ................
20000f14:	ffffffff ffffffff ffffffff ffffffff     ................
20000f24:	ffffffff ffffffff ffffffff ffffffff     ................
20000f34:	ffffffff ffffffff ffffffff ffffffff     ................
20000f44:	ffffffff ffffffff ffffffff ffffffff     ................
20000f54:	ffffffff ffffffff ffffffff ffffffff     ................
20000f64:	ffffffff ffffffff ffffffff ffffffff     ................
20000f74:	ffffffff ffffffff ffffffff ffffffff     ................
20000f84:	ffffffff ffffffff ffffffff ffffffff     ................
20000f94:	ffffffff ffffffff ffffffff ffffffff     ................
20000fa4:	ffffffff ffffffff ffffffff ffffffff     ................
20000fb4:	ffffffff ffffffff ffffffff ffffffff     ................
20000fc4:	ffffffff ffffffff ffffffff ffffffff     ................
20000fd4:	ffffffff ffffffff ffffffff ffffffff     ................
20000fe4:	ffffffff ffffffff ffffffff ffffffff     ................
20000ff4:	ffffffff ffffffff ffffffff ffffffff     ................
20001004:	ffffffff ffffffff ffffffff ffffffff     ................
20001014:	ffffffff ffffffff ffffffff ffffffff     ................
20001024:	ffffffff ffffffff ffffffff ffffffff     ................
20001034:	ffffffff ffffffff ffffffff ffffffff     ................
20001044:	ffffffff ffffffff ffffffff ffffffff     ................
20001054:	ffffffff ffffffff ffffffff ffffffff     ................
20001064:	ffffffff ffffffff ffffffff ffffffff     ................
20001074:	ffffffff ffffffff ffffffff ffffffff     ................
20001084:	ffffffff ffffffff ffffffff ffffffff     ................
20001094:	ffffffff ffffffff ffffffff ffffffff     ................
200010a4:	ffffffff ffffffff ffffffff ffffffff     ................
200010b4:	ffffffff ffffffff ffffffff ffffffff     ................
200010c4:	ffffffff ffffffff ffffffff ffffffff     ................
200010d4:	ffffffff ffffffff ffffffff ffffffff     ................
200010e4:	ffffffff ffffffff ffffffff ffffffff     ................
200010f4:	ffffffff ffffffff ffffffff ffffffff     ................
20001104:	ffffffff ffffffff ffffffff ffffffff     ................
20001114:	ffffffff ffffffff ffffffff ffffffff     ................
20001124:	ffffffff ffffffff ffffffff ffffffff     ................
20001134:	ffffffff ffffffff ffffffff ffffffff     ................
20001144:	ffffffff ffffffff ffffffff ffffffff     ................
20001154:	ffffffff ffffffff ffffffff ffffffff     ................
20001164:	ffffffff ffffffff ffffffff ffffffff     ................
20001174:	ffffffff ffffffff ffffffff ffffffff     ................
20001184:	ffffffff ffffffff ffffffff ffffffff     ................
20001194:	ffffffff ffffffff ffffffff ffffffff     ................
200011a4:	ffffffff ffffffff ffffffff ffffffff     ................
200011b4:	ffffffff ffffffff ffffffff ffffffff     ................
200011c4:	ffffffff ffffffff ffffffff ffffffff     ................
200011d4:	ffffffff ffffffff ffffffff ffffffff     ................
200011e4:	ffffffff ffffffff ffffffff ffffffff     ................
200011f4:	ffffffff ffffffff ffffffff ffffffff     ................
20001204:	ffffffff ffffffff ffffffff ffffffff     ................
20001214:	ffffffff ffffffff ffffffff ffffffff     ................
20001224:	ffffffff ffffffff ffffffff ffffffff     ................
20001234:	ffffffff ffffffff ffffffff ffffffff     ................
20001244:	ffffffff ffffffff ffffffff ffffffff     ................
20001254:	ffffffff ffffffff ffffffff ffffffff     ................
20001264:	ffffffff ffffffff ffffffff ffffffff     ................
20001274:	ffffffff ffffffff ffffffff ffffffff     ................
20001284:	ffffffff ffffffff ffffffff ffffffff     ................
20001294:	ffffffff ffffffff ffffffff ffffffff     ................
200012a4:	ffffffff ffffffff ffffffff ffffffff     ................
200012b4:	ffffffff ffffffff ffffffff ffffffff     ................
200012c4:	ffffffff ffffffff ffffffff ffffffff     ................
200012d4:	ffffffff ffffffff ffffffff ffffffff     ................
200012e4:	ffffffff ffffffff ffffffff ffffffff     ................
200012f4:	ffffffff 8f0089d2 08000600 0c000a00     ................
20001304:	10000e00 14001200 18001600 1c001a00     ................
20001314:	20001e00 24002200 28002600 2c002a00     ... .".$.&.(.*.,
20001324:	f200f000 f800f500 fe00fb00 04010101     ................
20001334:	0a010701 10010d01 87011301 8f018b01     ................
20001344:	97019301 9f019b01 b001a301 b801b301     ................
20001354:	0402c801 0f020802 2a021202 37023102     ...........*.1.7
20001364:	43023d02 96026c02 bf02a502 d302cb02     .=.C.l..........
20001374:	fa02e202 1003ff02 21031e03 4b032603     ...........!.&.K
20001384:	6f036a03 f903f103 1104fd03 28041804     .j.o...........(
20001394:	4f043b04 5d045a04 69046104 7d047404     .;.O.Z.].a.i.t.}
200013a4:	ac049004 c004b804 d804ca04 f504df04     ................
200013b4:	ff04fa04 26051705 2e052b05 3b053305     .......&.+...3.;
200013c4:	4b054405 57055005 a5057105 c905b905     .D.K.P.W.q......
200013d4:	1406ed05 4c064706 63065906 71066e06     .....G.L.Y.c.n.q
200013e4:	7b067606 86067e06 90068b06 9a069506     .v.{.~..........
200013f4:	a4069f06 ae06a906 bf06b306 c906c206     ................
20001404:	d506cf06 eb06d806 f806f306 0207fd06     ................
20001414:	2c070e07 3f044207 00098700 00010001     ...,.B.?........
20001424:	02000000 1a010a0d 00000000 010a0d02     ................
20001434:	0000001a ce070300 00cc9ff9 cc41dd08     ..............A.
20001444:	6d3f8721 653fffc6 fc71f9ce 02ed5420     !.?m..?e..q. T..
20001454:	ed5220fc 4c20fc04 20fc06ed 0708ed48     . R... L... H...
20001464:	018600a7 867321b7 7421b77e fdb6ffcc     .....!s.~.!t....
20001474:	21b67521 f71bc64f 27114f21 21b74f15     !u.!O...!O.'.O.!
20001484:	dd1dc672 0000ce41 3f5021cc 9efebd6d     r...A....!P?m...
20001494:	febd0320 7221f6e7 20860527 0c6df9fd      .....!r'.. ..m.
200014a4:	00193239 001e0007 0053002f 0074006c     92....../.S.l.t.
200014b4:	02830079 0922047c 07010104 fffa0102     y...|.".........
200014c4:	01000902 00000100 0d020000 001a010a     ................
200014d4:	02000000 1a010a0d 00000000 00000703     ................
200014e4:	ffffffff 003200ff 006e004b 022c0196     ......2.K.n...,.
200014f4:	09b00458 25c01260 21502180 21522151     X...`..%.!P!Q!R!
20001504:	21542153 21572156 215c2159 2162215f     S!T!V!W!Y!\!_!b!
20001514:	21682165 00552158 00010700 00000000     e!h!X!U.........
20001524:	7f2900bf a5deee00 00a6f2df 0f26ee97     ..)...........&.
20001534:	41dd1dc6 cc0a00ce 6d3f5021 c69efe7e     ...A....!P?m~...
20001544:	2e0f81cd 7a2e8d1d f926ee00 de9efebd     .......z..&.....
20001554:	0908c6a5 265a006f 39a5dffa 0220f7c6     ....o.Z&...9.. .
20001564:	00bee0c6 36390d29 5aeed64f 4200c358     ....).96O..ZX..B
20001574:	3200ee18 c1eed639 c149220d c6472508     ...29...."I..%G.
20001584:	81188d02 8dd52202 2700a7de 3c08360c     .....".....'.6.<
20001594:	a7382a8d 264a3200 8d5f39f4 19264d1f     .*8..2J&.9_..M&.
200015a4:	f2de3736 16158d3c 0818128d 00be0626     67..<.......&...
200015b4:	90007e29 33f2df38 a4261132 df08f2de     )~..8..32.&.....
200015c4:	3900a6f2 01c106c0 ce8d1e26 ec8df497     ...9....&.......
200015d4:	00cef597 ec364f2e 32f49300 08080727     .....O6....2'...
200015e4:	250a814c 14205ff1 8df0d75a 8d2026ad     L..%._ .Z....& .
200015f4:	cef0d6cb 373a6000 331000e6 3a0000ce     .....`:7...3...:
20001604:	2505008c 00a10801 068d0522 7e3900a7     ...%....".....9~
20001614:	007ea500 bd5f37b0 463f72fb 2900be33     ..~..7_..r?F3..)
20001624:	007f390d 2900bf27 00b70186 c6373c2b     .9..'..)....+<7.
20001634:	2700b602 bd5c0126 d925bcfa 0a8d3833     ...'&.\...%.38..
20001644:	262700b6 027e5f04 4d1739e8 b6361b27     ..'&._~..9.M'.6.
20001654:	04275821 4a01264c 327121b7 3c0800e6     !X'.L&.J.!q2...<
20001664:	b301bd36 264a3832 007f39f3 271ac128     6...28J&.9..(..'
20001674:	270dc114 6921f110 21b60b26 4a062768     ...'..!i&..!h'.J
20001684:	21f62427 6521ce6a 07271ac1 c16221ce     '$.!j.!e..'..!b.
20001694:	7c14260d 00a62800 363c0c27 078d01e6     .&.|.(..'.<6....
200016a4:	4a083832 b639f426 18275721 b12b00b6     28.J&.9.!W'...+.
200016b4:	10235721 2628007d 0dc6370b 2533ac8d     !W#.}.(&.7....3%
200016c4:	28007f37 37fdbd17 265d1224 5821f60c     7..(...7$.]&..!X
200016d4:	21f6f327 c6ee2671 5e017ec0 275721b6     '..!q&...~.^.!W'
200016e4:	007d4f17 b60d2628 09c12b00 078a0626     .O}.(&...+..&...
200016f4:	0127ff81 2b00b74c 27007f39 972900bf     ..'.L..+9..'..).
20001704:	09274ded 4a01264c 007ff397 65275df2     .M'.L&.J.....]'e
20001714:	6a22fec1 02c6373c 24bcfabd 5e017e03     .."j<7.....$.~.^
20001724:	7121f75f 3833ecd7 5f1303bd 72fbbd36     _.!q..38..._6..r
20001734:	7f395f32 00bf2700 bd02c629 7b25bcfa     2_9..'..).....%{
20001744:	00a6a5de 7121f75f edd7ecd7 274dcdc6     ...._.!q......M'
20001754:	2202816a 6d162666 ec5e2601 04271802     j.."f&.m.&^...'.
20001764:	09012608 7cf2dd18 0808ed00 26016d08     .&.....|.....m.&
20001774:	2602ee48 b8fabd06 8c0d205f 3e22fe00     H..&...._ ....">
20001784:	8821ce18 161303bd 3741dd4f 4193a5dc     ..!.....O.A7...A
20001794:	21cea5dd 336d3f88 df09a5de c600e7a5     ...!.?m3........
200017a4:	72fbbd02 007d1124 7df427b0 ef276bf9     ...r$.}..'.}.k'.
200017b4:	c66bf97f 0c0420ce 7ee0c639 f7c65e01     ..k.. ..9..~.^..
200017c4:	f2dcf920 21f7ec97 007f3971 dff5d72c      ......!q9..,...
200017d4:	ead75ff6 d7ebd75f 91ea96f4 8d4727f5     ._.._........'G.
200017e4:	a4fdbde1 275d1d24 04037e03 f127ed96     ....$.]'.~....'.
200017f4:	267121b6 27ec96ec ec007a2d 21b7ff86     .!q&...'-z.....!
20001804:	16de2071 deea007c 0800e7f6 b28df6df     q ..|...........
20001814:	bd5921ce 0b27d103 ceeb007c 03bd5c21     .!Y...'.|...!\..
20001824:	7cb126d1 21b62c00 7f5a275f eadc2d00     .&.|.,.!_'Z..-..
20001834:	f6de4f16 93f6df18 18f6ddf6 274deadc     .O............M'
20001844:	f100e635 2a266021 c15f21f6 7a1e2601     5...!`&*.!_..&.z
20001854:	363cea00 0322f491 4af4007a 41dd4f16     ..<6..".z..J.O.A
20001864:	0833323c 38326d3f 202d007c 6121f606     <23.?m28|.- ..!a
20001874:	4a0800e7 007dc820 7d0a262c 05272d00     ...J .}.,&.}.-'.
20001884:	037ef6df 39eadc1d f49700a6 ea911827     ..~....9....'...
20001894:	de3c1322 264a09f6 3800a606 093901a1     ".<...J&...8..9.
200018a4:	a33800ec 394c3901 de2900bf 4d00eca5     ..8..9L9..)....M
200018b4:	02c11c27 00f71c26 e6080827 083c3600     '...&...'....6<.
200018c4:	387101bd e60f2532 7e4a3a00 cdc68d02     ..q82%...:J~....
200018d4:	f7c6390d 017e390d 00b2875e 006a0041     .9...9~.^...A.j.
200018e4:	0086007e 00ac0096 00f800b7 011c01fb     ~...............
200018f4:	0146013d 0159014a 0161015c 016c0167     =.F.J.Y.\.a.g.l.
20001904:	0174016f 0181017b 0190018a 01b401ab     o.t.{...........
20001914:	01f601dd 020b02fe 0223020f 0231022c     ..........#.,.1.
20001924:	0243023f 02620246 02720267 027d0277     ?.C.F.b.g.r.w.}.
20001934:	02850280 02ce02bf 02f502eb 030503fa     ................
20001944:	032b0314 035d0333 036d0368 03b20375     ..+.3.].h.m.u...
20001954:	03c503c0 04f203cc 040a0400 91200415     .............. .
20001964:	09d907a4 07010104 fffa0102 01000902     ................
20001974:	00000100 0d020000 001a010a 02000000     ................
20001984:	1a010a0d 00000000 ffff0703 ffffffff     ................
20001994:	00000000 1b00cc00 21ce41dd 1e22cc50     .........A.!P.".
200019a4:	00bf6d3f f3007f2b eed7f3d6 cec501bd     ?m..+...........
200019b4:	01bd8821 3c183cd0 f3d7eed6 bd9c21ce     !....<.<.....!..
200019c4:	183cd001 f700e63c 6f3f3100 2073250b     ..<.<....1?o.%s 
200019d4:	3c38007e 00e00fc6 863100f0 3f022020     ~.8<......1.  .?
200019e4:	fb265a10 eed7f3d6 d6c501bd 2708c1f3     .Z&............'
200019f4:	2605c104 256f3f0f 38202b73 38202d73     ...&.?o%s+ 8s- 8
20001a04:	0e200073 73256f3f 7336202b 3031202d     s. .?o%s+ 6s- 10
20001a14:	eed60073 08ccf3d7 3f143f00 2604c148     s........?.?H..&
20001a24:	c501bd05 03c18220 f3d60c26 c6022a5a     .... ...&...Z*..
20001a34:	7ef3d70e d6374500 3307c1f3 017e0324     ...~.E7....3$.~.
20001a44:	270dc16b 7f017e03 8b3100b6 3f63d602     k..'.~....1...c?
20001a54:	f00ec614 20863100 103f0220 86fb265a     .....1.  .?.Z&..
20001a64:	c1f3d608 c1042707 86022608 63d6360c     .....'...&...6.c
20001a74:	7bd6143f 40caeed7 86334a3f 8616100f     ?..{...@?J3.....
20001a84:	87217f80 d6371c3f 334a3fee 3b2701c1     ..!.?.7..?J3..';
20001a94:	25bd02bd f39618b3 26180781 c141d612     ...%.......&..A.
20001aa4:	4da52702 fb810427 21b79e24 181c2057     .'.M'...$..!W ..
20001ab4:	26180881 c141d60b b78d2702 0b205821     ...&..A..'..!X .
20001ac4:	a72900fe d602e701 7e00e741 06c14500     ..).....A..~.E..
20001ad4:	01860426 05c10620 ff860826 7e9f02bd     &... ...&......~
20001ae4:	01c14500 ce4f2326 00f65021 2208c1f3     .E..&#O.!P....."
20001af4:	01c63a05 00fe0520 dd03c629 38183c41     .:.. ...)...A<.8
20001b04:	18badec3 007e6d3f 2702c145 b8007e03     ....?m~.E..'.~..
20001b14:	8d4a05ce ad10270b bdf52400 f0206cff     ..J..'...$...l .
20001b24:	3f0010cc 390c5a50 c15cf3d6 5f01260f     ...?PZ.9..\..&._
20001b34:	ff39f3d7 006f2f00 07c1f3d6 21ce0d24     ..9../o.....$..!
20001b44:	00a63a50 fc9102bd 7f392700 07c1ec00     P:.......'9.....
20001b54:	21ce1326 2700e657 00fe4f25 7a3f082f     &..!W..'%O../.?z
20001b64:	2000e709 2608c171 5821ce05 21cee720     ... q..&..!X ..!
20001b74:	3a3a3a3e ff2900ff 00e62d00 04ce5526     >:::..)..-..&U..
20001b84:	d74b208d 2d00feec 2d00ff08 04ce00a6     . K....-...-....
20001b94:	277f8187 fe222539 00e62f00 e705cb37     ...'9%"../..7...
20001ba4:	083a3300 a73c8616 a7248600 4f080801     .3:...<...$....O
20001bb4:	863a7c3f 2000a73e 25218118 b021ce0b     ?|:.>.. ..!%..!.
20001bc4:	00e701c6 062001a7 5f9204ce 03bd168d     ...... ...._....
20001bd4:	5aecd667 058dad2a 2f00fe18 7f03ce39     g..Z*....../9...
20001be4:	02c6f396 204c43d7 d63a0802 00e63a43     .....CL ..:.C:..
20001bf4:	39f6264a ffe68d36 09322700 5f00ee09     J&.96....'2...._
20001c04:	00cee220 3af3d600 ce00a636 333a5021      ......:6...!P:3
20001c14:	2a3c00eb 04201603 5f012411 3900e738     ..<*.. ..$._8..9
20001c24:	d741d75f 8821cef0 8721f64f 3a3c2227     _.A...!.O.!.'"<:
20001c34:	8d38f6df d719251c 41007cf0 0e24f69c     ..8..%...|.A..$.
20001c44:	250e8d08 24f69c0b 7c390d02 f0964100     ...%...$..9|.A..
20001c54:	ead75f39 00a6f4d7 08262481 24f69c08     9_.......$&....$
20001c64:	ead75ce8 e12403c1 e425308d f4963637     .\....$..0%.76..
20001c74:	007d0ac6 c60227ea 274d3d10 c9203803     ..}..'...=M'.8 .
20001c84:	3332f4d7 c125f49b 5c08f497 2c8100a6     ..23..%....\...,
20001c94:	f69c0427 d60cce25 00a639f4 09253081     '...%....9...0%.
20001ca4:	32c68b36 30800325 ea007d39 390d0226     6..2%..09}..&..9
20001cb4:	13254181 10226681 08234681 08256181     .A%..f"..F#..a%.
20001cc4:	390c5780 390c3780 00a6390d 007f4297     .W.9.7.9.9...B..
20001cd4:	fe3c0841 00e62f00 3a00a71b 3f381808     A.<../.....:..8?
20001ce4:	f203396d 55414204 061c0444 49524150     m9...BAUD...PARI
20001cf4:	35045954 54494204 04390453 504f5453     TY.5.BITS.9.STOP
20001d04:	48043d04 04444e41 5250086a 434f544f     .=.HAND.j.PROTOC
20001d14:	7c044c4f 48434504 0500004f 54444957     OL.|.ECHO...WIDT
20001d24:	07000048 454d4954 0054554f 45520400     H...TIMEOUT...RE
20001d34:	00004c4f 4f455204 04000046 4e525452     OL...REOF...RTRN
20001d44:	54040000 004c4f45 45540400 0000464f     ...TEOL...TEOF..
20001d54:	52545404 3035024e 03353702 03303131     .TTRN.50.75.110.
20001d64:	03303531 03303033 04303036 30303231     150.300.600.1200
20001d74:	30343204 38340430 39043030 04303036     .2400.4800.9600.
20001d84:	454e4f4e 44444f03 45564504 414d044e     NONE.ODD.EVEN.MA
20001d94:	53054b52 45434150 38013701 32013101     RK.SPACE.7.8.1.2
20001da4:	4e4f4e04 4f580345 5452034e 4f580753     .NONE.XON.RTS.XO
20001db4:	54522b4e 54440353 4f580752 54442b4e     N+RTS.DTR.XON+DT
20001dc4:	54520752 54442b53 4c410352 4f4e044c     R.RTS+DTR.ALL.NO
20001dd4:	5806454e 45444f4d 5350054d 044e4f49     NE.XMODEM.PSION.
20001de4:	54534f48 434f4c05 3c054c41 3e4c4544     HOST.LOCAL.<DEL>
20001df4:	4e4f4e04 4e3c0545 053e4c55 484f533c     .NONE.<NUL>.<SOH
20001e04:	533c053e 053e5854 5854453c 453c053e     >.<STX>.<ETX>.<E
20001e14:	053e544f 514e453c 413c053e 053e4b43     OT>.<ENQ>.<ACK>.
20001e24:	4c45423c 423c043e 3c043e53 043e5448     <BEL>.<BS>.<HT>.
20001e34:	3e464c3c 54563c04 463c043e 3c043e46     <LF>.<VT>.<FF>.<
20001e44:	043e5243 3e4f533c 49533c04 443c053e     CR>.<SO>.<SI>.<D
20001e54:	053e454c 3143443c 443c053e 053e3243     LE>.<DC1>.<DC2>.
20001e64:	3343443c 443c053e 053e3443 4b414e3c     <DC3>.<DC4>.<NAK
20001e74:	533c053e 053e4e59 4254453c 433c053e     >.<SYN>.<ETB>.<C
20001e84:	043e4e41 3e4d453c 55533c05 3c053e42     AN>.<EM>.<SUB>.<
20001e94:	3e435345 53463c04 473c043e 3c043e53     ESC>.<FS>.<GS>.<
20001ea4:	043e5352 3e53553c 50533c04 5845043e     RS>.<US>.<SP>.EX
20001eb4:	93055449 41424107 4e4f444e 45049705     IT...ABANDON...E
20001ec4:	05544944 415304cb 1c064556 414f4c04     DIT...SAVE...LOA
20001ed4:	03d10544 06524944 52450585 06455341     D...DIR...ERASE.
20001ee4:	45520575 05544553 00cc009e cc41dd1b     u.RESET.......A.
20001ef4:	6d3f5021 7e38390c 22ce9efe 20eb8d1e     !P?m.98~..."... 
20001f04:	0e6f3ff5 45534552 48542054 45532045     .?o.RESET THE SE
20001f14:	0f505554 41524150 4554454d 203a5352     TUP.PARAMETERS: 
20001f24:	3f4e2f59 247d3f00 0a00ce54 00bebc20     Y/N?.?}$T... ...
20001f34:	42007e2b 8d6905ce 8d422579 3f6d8d7e     +~.B..i.y%B.~.m?
20001f44:	4d4d2524 1bc10426 6f3f2f27 564e490c     $%MM&...'/?o.INV
20001f54:	44494c41 54455320 0f105055 73657270     ALID SETUP..pres
20001f64:	70732073 20656361 0079656b 483f463f     s space key.?F?H
20001f74:	032720c1 0cf7265a 3f7d8d39 ce390c5e     . '.Z&..9.}?^.9.
20001f84:	2e8d6205 338df725 41dd6b8d 253f1e8d     .b..%..3.k.A..?%
20001f94:	618d5525 1424613f e923b637 b7018636     %U.a?a$.7.#.6...
20001fa4:	088de923 b732233f 0d33e923 21ce84c6     #...?#2.#.3....!
20001fb4:	217f3987 0800cc87 4f39683f dd8721f6     .9.!....?h9O.!..
20001fc4:	f702cb41 21ce8721 21cc3c88 386d3f8a     A...!..!.<.!.?m8
20001fd4:	9b3a41cc 3900eda2 8d7605ce 8d9e25d5     .A:....9..v..%..
20001fe4:	3fc98dda 39f02423 8d7005ce 8d8e25c5     ...?#$.9..p..%..
20001ff4:	3f41ddbb 1b00cc7b 0c5021ce 1b00cc39     ..A?{....!P.9...
20002004:	21ce41dd 1e22cc50 21ce6d3f 00fe6154     .A.!P.".?m.!Ta..
20002014:	8655217f 5021b709 21b70286 21b74a51     .!U...!P...!QJ.!
20002024:	5321b752 21f70dc6 f70ac688 0c868921     R.!S...!....!...
20002034:	f97f103f 87217f6b fbbd01c6 9efebd72     ?...k.!.....r...
20002044:	276bf97d 97077e03 fabd05c6 7e0324bc     }.k'.~.......$.~
20002054:	007f9707 0e6f3ff3 ba21ce00 e6d001bd     .....?o...!.....
20002064:	dd4f0800 ce3c3741 21f68a21 38183a87     ..O.A7<.!..!.:.8
20002074:	fb336d3f 21f78721 f3007c87 03c1f3d6     ?m3.!..!.|......
20002084:	21ce1222 8721f68a a72c863a 87217c00     "..!..!.:.,..|!.
20002094:	a120c720 f68a21ce 113f8721 7c8821ce      . ..!..!.?..!.|
200020a4:	217c8721 373c5f87 c600a63a 7121f70a     !.|!._<7:.....!q
200020b4:	2437fdbd 40265d0a 267121f6 334b20f3     ..7$.]&@.!q&. K3
200020c4:	21f15c38 7adf2587 217d5321 86c32c53     8\.!.%.z!S}!S,..
200020d4:	5321b701 7d52217a b62c5221 21b70186     ..!Sz!R}!R,....!
200020e4:	51217a52 2c51217d b70286a9 217a5121     Rz!Q}!Q,....!Qz!
200020f4:	50217d50 02209c2c 463f3832 bd1e22ce     P}!P,. .28?F."..
20002104:	01c68705 7e72fbbd 6f3f9efe 5645440c     ......r~..?o.DEV
20002114:	20454349 20544f4e 44414552 700f1059     ICE NOT READY..p
20002124:	73736572 61707320 6b206563 3f007965     ress space key.?
20002134:	c1483f46 5ac12720 bc20f726 4d003d92     F?H. '.Z&. ..=.M
20002144:	4a004000 5d005000 76006500 bf008600     .@.J.P.].e.v....
20002154:	dc00d100 e600e300 2e01f100 69015e01     .............^.i
20002164:	7d017a01 9e019401 ab01a401 b901ae01     .z.}............
20002174:	e201d101 f801e501 15021202 23021c02     ...............#
20002184:	2c022702 66023502 77026c02 95027b02     .'.,.5.f.l.w.{..
20002194:	7103a002 86037f03 96038f03 a4039d03     ...q............
200021a4:	4f05af03 60055905 6e056705 7c057405     ...O.Y.`.g.n.t.|
200021b4:	95058405 cc05c705 d205cf05 76061d06     ...............v
200021c4:	d0068606 db06d806 e306de06 ed06e806     ................
200021d4:	4e07fa06 a2079d07 0c0ba507 ffffd504     ...N............
200021e4:	ffffffff ffffffff 0000ffff ffffffff     ................
200021f4:	ffffffff 0e08081c 06050605 33133f37     ............7?.3
20002204:	123f203f fabd04c6 7e0325bc 00beee00     ? ?......%.~....
20002214:	27e7c10a 27c2c1ef 463f37e3 5f6bf97f     ...'...'.7?F..k_
20002224:	fc72fbbd 20fd0000 0200fc5a bd5c20fd     ..r.... Z.... \.
20002234:	f97d2803 fc25276c 00f30400 6d091808     .(}.l'%........m
20002244:	7f072700 bd4fe600 f9fe9d02 053f3c6d     .'....O.....m<?.
20002254:	df0800fe 38419341 043f0227 27cec133     ....A.A8'.?.3..'
20002264:	7f203f02 bf396cf9 0c860a00 10cc103f     .? ..l9.....?...
20002274:	7f62dd80 007f0c00 1902bd0d 276cf97d     ..b.........}.l'
20002284:	6df9fe2a 00ff1626 0001cc08 3f0600fd     *..m&..........?
20002294:	ffce2501 00ee6df9 0c20006f fd053f3c     .%...m..o. .<?..
200022a4:	00fd0600 00ee3808 ce0400ff 00ec5a20     .....8...... Z..
200022b4:	ec0000fd 0200fd02 ed3e03cc c203cc00     ..........>.....
200022c4:	04c602ed 24bcfabd 30007e03 dcf502bd     .......$.~.0....
200022d4:	7f143f62 fdbde600 5d0e24a4 c1c10d27     b?.......$.]'...
200022e4:	007e0327 97ff8630 3f6a8de6 7be4274b     '.~.0.....j?K'.{
200022f4:	df271120 82c1483f 83c1d927 483f0e26      .'.?H..'...&.?H
20002304:	cf2782c1 c6f7265a 30007ece 6821ce17     ..'.Z&...~.0..!h
20002314:	25e002bd 270d81be 208d5f05 21ceb520     ...%...'._.  ..!
20002324:	2700e662 3701a60d 5a33128d 02a60427     b..'...7..3Z'...
20002334:	217d0a8d bd9c2756 9720e101 37fdbd37     ..}!V'.... .7..7
20002344:	275d0624 30007ef8 08265d33 2756217d     $.]'.~.03]&.}!V'
20002354:	c301bd03 66274d39 e65921ce 5a282700     ....9M'f.!Y..'(Z
20002364:	007d2127 a10d270d 7f532701 02a10d00     '!}..'...'S.....
20002374:	13204d27 052601a1 200d00f7 2702a141     'M ...&.... A..'
20002384:	a104203d ce382701 00e65c21 01a10b27     = ...'8.!\..'...
20002394:	275a2c27 2702a104 5f21ce25 25e002bd     ',Z'...'%.!_...%
200023a4:	2707811d 27088116 27098157 221f8153     ...'...'W..'S.."
200023b4:	5e86364f 8b324a8d 7e452040 7d3982fe     O6.^.J2.@ E~..9}
200023c4:	0e266df9 275721f6 2210c109 bd6cd605     .m&..!W'..."..l.
200023d4:	b74f9402 00cc0c00 cc41dd10 21ce7020     ..O.......A. p.!
200023e4:	866d3f88 86103f12 8d103f0f 6cf97d0a     .?m..?...?...}.l
200023f4:	7e4f0427 ce399d02 20cc8821 39713f10     '.O~..9.!.. .?q9
20002404:	810c00f6 7d562708 07276cf9 02bd3736     .....'V}.l'.67..
20002414:	ce32339d a73a8821 00f75c00 24fac10c     .32.!.:..\.....$
20002424:	57217d9e 21f10527 17942457 05220f80     .}!W'..!W$....".
20002434:	204f10ca 7d1fc60e 07266cf9 546ad637     ..O ...}.l&.7.jT
20002444:	3733308d 8821ce16 0f00cc3a 20cc41dd     .037..!.:....A. 
20002454:	866d3f80 32103f13 143f80c6 fc275d39     .?m..?.2..?.9]'.
20002464:	0c00f75a 276cf97d 0800fec2 0800ff09     Z...}.l'........
20002474:	f9f7b920 69f97d69 d639fb26 363e26e6      ...i}.i&.9..&>6
20002484:	bc0800fe 28260600 fe41df3c 00cc6df9     ......&(<.A..m..
20002494:	24023f40 0800fe0a 0800ff09 fe30007e     @?.$........~.0.
200024a4:	053f6df9 fe0600fd 00ee6df9 380400ff     .m?......m.....8
200024b4:	0800ff08 00f31809 a7321804 00e63900     ..........2..9..
200024c4:	275a0927 2601a108 0c02a602 2601a139     '.Z'...&....9..&
200024d4:	8d390dfa 0e00ce26 017d08c6 b6fb2b80     ..9.&.....}..+..
200024e4:	00a78101 f2265a08 08c6118d 017d00a6     .....Z&.......}.
200024f4:	b7fb2b80 5a088101 8639f226 80017d48     .+.....Z&.9.H}..
20002504:	01b7fb2b f38d3980 c60e00ce 7d00a608     +....9.........}
20002514:	fb2b8001 088101b7 39f2265a 7100037d     ..+.....Z&.9}..q
20002524:	d64f7b4f 86032a15 7a973924 322f8d36     O{O..*..$9.z6./2
20002534:	40c62b27 01205a37 044f3637 080a2418     '+.@7Z .76O..$..
20002544:	037d0320 40037d40 8df72609 03273211      .}.@}.@.&...2'.
20002554:	d6177adb d705cb7a 2654337a 05c639db     .z..z...z3T&.9..
20002564:	48481596 265a0424 207d39fa 361426c4     ..HH$.Z&.9} .&.6
20002574:	19817a96 5a321326 48370a27 33fc265a     .z..&.2Z'.7HZ&.3
20002584:	3901245c 5d7b8072 321e8139 04c1f526     \$.9r.{]9..2&...
20002594:	05c10927 1072ed26 72395f7b 395f7b20     '...&.r.{_9r {_9
200025a4:	167bfd71 2a7b007d c220b118 01750726     q.{.}.{*.. .&.u.
200025b4:	7b02727b c320b15f 40750726 7b02727b     {r.{_. .&.u@{r.{
200025c4:	5d218d5f e63a1c27 447b9600 61c10a25     _.!]'.:...{D%..a
200025d4:	7ac10625 e0cb0222 062608c1 022a7b96     %..z".....&..{*.
200025e4:	39177fc6 094504ce 48487b96 2b480f2b     ...9..E..{HH+.H+
200025f4:	487b960a fe710929 8d092063 721e8d20     ..{H).q.c .. ..r
20002604:	198d6301 807b0c86 8a092763 63017b02     .c....{.c'...{.c
20002614:	018a0226 2b80017d 8001b7fb 24c63739     &...}..+....97.$
20002624:	7a39333a 646a7076 6c72780d 71772066     :39zvpjd.xrlf wq
20002634:	7579656b 0863696f 62686e74 676d7300     keyuoic.tnhb.smg
20002644:	83820061 2e010605 29383532 2a2d2b0d     a.......258).+-*
20002654:	3633202f 31302539 08283734 3e22243a     / 369%0147(.:$">
20002664:	3d2c3b00 8382003c 1a010605 040a1016     .;,=<...........
20002674:	0c12180d 11172006 1519050b 0803090f     ..... ..........
20002684:	02080e14 070d1300 83820001 3f010605     ...............?
20002694:	1e3f5f7f 5b7b3f0d 603f2021 7e3f1f40     ._?..?{[! ?`@.?~
200026a4:	081d275e 1c265d7d 235c7c00 8382001b     ^'..}]&..|\#....
200026b4:	a7010605 004e0001 002e0029 003f0031     ......N.)...1.?.
200026c4:	00460043 0052004c 005a0055 006a005d     C.F.L.R.U.Z.].j.
200026d4:	0073006d 008a0086 00990096 009f009c     m.s.............
200026e4:	00a900a4 00b600af 00c500c2 00d300cb     ................
200026f4:	00db00d8 00e700e0 00ef00ec 010501f9     ................
20002704:	0133012c 0160015a 01740168 018e0185     ,.3.Z.`.h.t.....
20002714:	01bf019b 01e201de 02f601f2 02160210     ................
20002724:	022a0223 023d0231 0284025a 028c0287     #.*.1.=.Z.......
20002734:	02950290 02a30298 02ae02a6 02bc02b8     ................
20002744:	02c202bf 02ca02c7 02d402cf 03f802d9     ................
20002754:	7407042b 00ee08a4 00000000 00000000     +..t............
	...
2000276c:	ffffffff ffffffff ffffffff ffffffff     ................
2000277c:	ffffffff ffffffff ffffffff ffffffff     ................
2000278c:	ffffffff ffffffff ffffffff ffffffff     ................
2000279c:	ffffffff ffffffff ffffffff ffffffff     ................
200027ac:	ffffffff ffffffff ffffffff ffffffff     ................
200027bc:	ffffffff ffffffff ffffffff ffffffff     ................
200027cc:	ffffffff ffffffff ffffffff ffffffff     ................
200027dc:	ffffffff ffffffff ffffffff ffffffff     ................
200027ec:	ffffffff ffffffff ffffffff ffffffff     ................
200027fc:	ffffffff ffffffff ffffffff ffffffff     ................
2000280c:	ffffffff ffffffff ffffffff ffffffff     ................
2000281c:	ffffffff ffffffff ffffffff ffffffff     ................
2000282c:	ffffffff ffffffff ffffffff ffffffff     ................
2000283c:	ffffffff ffffffff ffffffff ffffffff     ................
2000284c:	ffffffff ffffffff ffffffff ffffffff     ................
2000285c:	ffffffff ffffffff ffffffff ffffffff     ................
2000286c:	ffffffff 04ffffff 09060305 c30a0807     ................
2000287c:	810a0803 80c40080 0606000b 09090909     ................
2000288c:	09090909 05080904 810a0882 80c10001     ................
2000289c:	0c090c0b 05050500 08050505 82050804     ................
200028ac:	00000905 03be0083 0605c080 8003c100     ................
200028bc:	82050804 0b810a08 001b101b 0d040905     ................
200028cc:	060d0518 80030000 0508070a 03be0084     ................
200028dc:	0003c180 83050200 8003c100 1983c700     ................
200028ec:	1b0a0500 0a130e0a 08c21514 83000009     ................
200028fc:	8003be00 000605c0 078003c1 0b840508     ................
2000290c:	0d150d15 0a0a0600 010a0a0d 0142012a     ............*.B.
2000291c:	01900169 012001b1 014d0135 019b0174     i..... .5.M.t...
2000292c:	02fd01f8 02120207 0267024f 0261025c     ........O.g.\.a.
2000293c:	029f029b 028f02be 02a502aa 008a0257     ............W...
2000294c:	00000000 e6000000 390ac106 0820028d     ...........9.. .
2000295c:	c45c04e6 05e63907 078411a6 0d012711     ..\..9.......'..
2000296c:	21ce3c39 fd00ec51 02ecf001 e6f201fd     9<.!Q...........
2000297c:	f401f704 ed01c64f 5c02a700 fe6104e7     ....O......\..a.
2000298c:	9efebd03 b73523b6 bd5ff701 2538bcfa     .....#5..._...8%
2000299c:	237f0f09 4a237f35 058d390e 03bd1820     ...#5.#J.9.. ...
200029ac:	6c0ee7f7 8d083903 8d390902 3904e7a3     ...l.9....9....9
200029bc:	5f4f428d 01c604ed b672fbbd 23b7f701     .BO_......r....#
200029cc:	4a23b735 fc5121ce 00edf001 edf201fc     5.#J.!Q.........
200029dc:	f401f602 fe7e04e7 7ee7c69e 0aec9cff     ......~....~....
200029ec:	18c6e8dd 08ee05eb 10c62b20 00c62120     ........ +.. !..
200029fc:	1b2004eb 20066f5f f703bd05 0fe7066c     .. ._o. ....l...
20002a0c:	b0098637 323d5021 7121b71b 3708c639     7...!P=2..!q9..7
20002a1c:	e8dd5f4f f501bf33 373c373c 498d1686     O_..3...<7<7...I
20002a2c:	458d1086 418d0286 7321b633 00cc45dd     ...E...A3.!s.E..
20002a3c:	cee6dd02 8d5f4500 dfe8de4d 468d38e6     .....E_.M....8.F
20002a4c:	21b6e6dd 32378d73 dc38348d 830c27e8     ...!s.72.48..'..
20002a5c:	e8dd0100 8d0800a6 86f02025 860a8d10     ........% ......
20002a6c:	96068d03 96028de6 37fdbde7 275d4a24     ...........7$J]'
20002a7c:	26c2c1f8 f501bef4 7e0000ce 10815202     ...&.......~.R..
20002a8c:	e58de726 41dde320 09e6de3c 2b38e6df     &... ..A<.....8+
20002a9c:	e841d627 1743d700 0700ce3c 26091b57     '.A...C.<...W..&
20002aac:	018438fb 564743d6 d8595746 57465643     .8...CGVFWY.CVFW
20002abc:	98008959 ce200842 270fe639 7121f605     Y...B. .9..'..!q
20002acc:	fdbd1427 c1f124a4 e7ee26c2 f501fc0e     '....$...&......
20002adc:	fd0400c3 01bef501 3907c6f5 083906c6     ...........9..9.
20002aec:	c30ced18 33180f00 192000e7 5ff501bf     .......3.. ...._
20002afc:	8d0ced4f 261681c4 81be8dfa 8df42610     O......&.....&..
20002b0c:	260281b8 8d538dee 261081b0 81aa8d06     ...&..S....&....
20002b1c:	360d2703 8c180cec c3260601 3905c632     .'.6......&.2..9
20002b2c:	e6dd0cec 1000ce3c 03bd5f4f e6dd3837     ....<...O_..78..
20002b3c:	8d36878d 93321684 ece226e6 7321b110     ..6...2..&....!s
20002b4c:	54549a26 128d3954 00e601ee 8d183708     &.TTT9.......7..
20002b5c:	3301ed09 ee3a5839 00ce3c00 fa8d3900     ...39X:..<...9..
20002b6c:	ffc1036f 848d0a26 3a1801ce ea8d00e6     o...&......:....
20002b7c:	5800e637 3ac601ce e6df00ee 3abc01ce     7..X...:.......:
20002b8c:	3a3300ee d34f00e6 edcf8de6 4fb78d01     ..3:..O........O
20002b9c:	132bc0c5 8dd801ce c4f220bc 6d00e77f     ..+...... .....m
20002bac:	c6ba2603 c5bb20ff cef02740 3fc4d001     .&... ..@'.....?
20002bbc:	0425a38d d520908d e34f8c8d 2001ed01     ..%... ...O.... 
20002bcc:	ce5b8dcc c63c6705 e6938d00 0c4d260e     ..[..g<......&M.
20002bdc:	ce4b8d39 c63c6705 8dee2001 203e2510     9.K..g<.. ...%> 
20002bec:	ecdd3cf6 2538e18d 20ecdc34 ee007f06     .<....8%4.. ....
20002bfc:	8def007f de262510 20eedcf0 6705ce30     .....%&.... 0..g
20002c0c:	256c8d3c 0800ff17 ed0000ce bd02c60a     <.l%............
20002c1c:	0ee60f04 bec1b927 12e60226 205f390d     ....'...&....9_ 
20002c2c:	cefb8d5b cc3c4705 05ce0401 dfecdd76     [....G<.....v...
20002c3c:	0000ceea 14c60e6f c6af02bd 2700a6c4     ....o..........'
20002c4c:	8dffc6db ecd625ca 0200830c e8dd41dd     .....%.......A..
20002c5c:	0b23ec93 c68804bd dc0ee7dc dc41ddec     ..#...........A.
20002c6c:	1200ceea 00f66d3f dcb1260e cc390ce8     ....?m...&....9.
20002c7c:	088d0102 0802e64f 390c0808 00e1a5de     ....O......9....
20002c8c:	cdc60a27 04bd3738 390d3388 c606275d     '...87...3.9]'..
20002c9c:	2601a1f7 0b2539ef 8c1841dd 0423fe00     ...&.9%..A....#.
20002cac:	390ddcc6 4193a5dc a5df0918 180800e7     ...9...A........
20002cbc:	3f7605ce 0c25396d 08c6a5de 5a006f09     ..v?m9%......o.Z
20002ccc:	a5dffa26 ffffff39 ffffffff ffffffff     &...9...........
20002cdc:	ffffffff ffffffff ffffffff ffffffff     ................
20002cec:	ffffffff ffffffff ffffffff ffffffff     ................
20002cfc:	ffffffff ffffffff ffffffff ffffffff     ................
20002d0c:	ffffffff ffffffff ffffffff ffffffff     ................
20002d1c:	ffffffff ffffffff ffffffff ffffffff     ................
20002d2c:	ffffffff ffffffff ffffffff ffffffff     ................
20002d3c:	ffffffff ffffffff ffffffff ffffffff     ................
20002d4c:	ffffffff ffffffff ffffffff ffffffff     ................
20002d5c:	ffffffff ffffffff ffffffff ffffffff     ................
20002d6c:	ffffffff ffffffff ffffffff ffffffff     ................
20002d7c:	ffffffff ffffffff ffffffff ffffffff     ................
20002d8c:	ffffffff ffffffff ffffffff ffffffff     ................
20002d9c:	ffffffff ffffffff ffffffff ffffffff     ................
20002dac:	ffffffff ffffffff ffffffff ffffffff     ................
20002dbc:	ffffffff ffffffff ffffffff ffffffff     ................
20002dcc:	ffffffff ffffffff 4f07ffff 4f074f2f     ...........O/O.O
20002ddc:	4f07a730 4f079a32 4f075334 4f07803c     0..O2..O4S.O<..O
20002dec:	4f071a39 4f07cd3a 4f078e37 4f070f36     9..O:..O7..O6..O
20002dfc:	07ff812e 07350868 08c90782 083d0814     ....h.5.......=.
20002e0c:	07d7086a 07b00777 079b07aa 076407af     j...w.........d.
20002e1c:	95f9f665 0a2202c1 1c860427 20860e20     e.....".'... .. 
20002e2c:	04c10a20 18860427 14860220 352016cb      ...'... ..... 5
20002e3c:	201410cc 0000cc30 00cc2b20 cc262002     ... 0... +... &.
20002e4c:	21200404 200604cc 0804cc1c 04cc1720     .. !... .... ...
20002e5c:	cc12200a 0d200c04 200e04cc 1008cc08     . .... .... ....
20002e6c:	0ccc0320 a406ce12 3c00ee3a 24138d16      .......:..<...$
20002e7c:	f6393801 3637a306 068d24c6 8d32f325     .89...76.$..%.2.
20002e8c:	06f1331d f71627a3 06cea306 bd3c3a7b     .3...'......{:<.
20002e9c:	253858fb dd00ec08 3f02ee41 ffff391a     .X8%....A..?.9..
20002eac:	ffffffff ffffffff ffffffff ffffffff     ................
20002ebc:	ffffffff ffffffff ffffffff ffffffff     ................
20002ecc:	ffffffff ffffffff ffffffff ffffffff     ................
20002edc:	ffffffff ffffffff ffffffff ffffffff     ................
20002eec:	ffffffff ffffffff ffffffff ffffffff     ................
20002efc:	ffffffff ffffffff ffffffff ffffffff     ................
20002f0c:	ffffffff ffffffff ffffffff ffffffff     ................
20002f1c:	ffffffff ffffffff ffffffff ffffffff     ................
20002f2c:	ffffffff ffffffff ffffffff ffffffff     ................
20002f3c:	ffffffff ffffffff ffffffff ffffffff     ................
20002f4c:	ffffffff ffffffff ffffffff ffffffff     ................
20002f5c:	ffffffff ffffffff ffffffff ffffffff     ................
20002f6c:	ffffffff ffffffff ffffffff ffffffff     ................
20002f7c:	ffffffff ffffffff ffffffff ffffffff     ................
20002f8c:	ffffffff ffffffff ffffffff ffffffff     ................
20002f9c:	ffffffff ffffffff ffffffff ffffffff     ................
20002fac:	ffffffff ffffffff ffffffff ffffffff     ................
20002fbc:	ffffffff ffffffff ffffffff ffffffff     ................
20002fcc:	ffffffff ffffffff ffffffff ffffffff     ................
20002fdc:	ffffffff ffffffff ffffffff ffffffff     ................
20002fec:	ffffffff ffffffff ffffffff ffffffff     ................
20002ffc:	ffffffff ffffffff ffffffff ffffffff     ................
2000300c:	ffffffff ffffffff ffffffff ffffffff     ................
2000301c:	ffffffff ffffffff ffffffff ffffffff     ................
2000302c:	ffffffff ffffffff ffffffff ffffffff     ................
2000303c:	ffffffff ffffffff ffffffff 003186ff     ..............1.
2000304c:	01bc016b 01c001be 01c401c2 01c801c6     k...............
2000305c:	01cc01ca 01d001ce 01d401d2 01d801d6     ................
2000306c:	01dc01da 01e001de 01e401e2 01e801e6     ................
2000307c:	01ec01ea 021902ee 0223021e 02390233     ..........#.3.9.
2000308c:	0250023d 026d026a 027e0279 02880283     =.P.j.m.y.~.....
2000309c:	02ab028d 031b03c7 032a0327 0374032d     ........'.*.-.t.
200030ac:	0385037f 03950388 03d7039e 040c04dc     ................
200030bc:	0426041a 0446042e 0475045d 04af0485     ..&...F.].u.....
200030cc:	04ba04b7 04d504c1 04e304dc 050605ea     ................
200030dc:	05180513 06620538 067f067b 06870683     ....8.b.{.......
200030ec:	068f068b 06970693 069f069b 06a606a4     ................
200030fc:	06aa06a8 06ae06ac 06b206b0 06b606b4     ................
2000310c:	06ba06b8 06be06bc 07c306c0 07250717     ..............%.
2000311c:	07390734 b941073c cec40066 274d2a00     4.9.<.A.f....*M'
2000312c:	00e64a0b 00e63a08 f2203a08 5d0800e6     .J...:...: ....]
2000313c:	a65a0c27 3c370800 3338103f 00e6f120     '.Z...7<?.83 ...
2000314c:	113f084f 4e050039 3a656d61 460e0c01     O.?.9..Name:...F
2000315c:	20454c49 20544f4e 4e554f46 0a0c0144     ILE NOT FOUND...
2000316c:	64616f4c 2e676e69 0c012e2e 6365520c     Loading......Rec
2000317c:	69766965 2e2e676e 0a0c012e 646e6553     eiving......Send
2000318c:	2e676e69 0f012e2e 4f524605 03003a4d     ing......FROM:..
2000319c:	013a4f54 45440b0f 4554454c 4e2f5920     TO:...DELETE Y/N
200031ac:	080c013f 454d4954 54554f20 530e0c01     ?...TIME OUT...S
200031bc:	45565245 41462052 52554c49 0f0f0145     ERVER FAILURE...
200031cc:	73657270 70732073 20656361 0179656b     press space key.
200031dc:	41420d0c 52502044 4445434f 31455255     ..BAD PROCEDURE1
200031ec:	000100c3 01010001 4f420424 ffff544f     ........$.BOOT..
200031fc:	c11df87e 86f926bd d5ffbd01 103f0f86     ~....&........?.
2000320c:	217f0720 3f0c8687 bd008610 80ccd5ff      ..!...?........
2000321c:	c11c3f20 86382701 86103f0c d5ffbd02      ?...'8..?......
2000322c:	25c700bd d100bdcb 8d8721ce 55fdbd53     ...%.....!..S..U
2000323c:	20cec125 053f3c00 fece41dd ec02ed27     %.. .<?..A..'...
2000324c:	023f3800 2427fece fdbd3707 390d3339     .8?...'$.7..93.9
2000325c:	e30020fc fd00ed02 298d0500 908d0427     . .........)'...
2000326c:	00fe0a20 5f03a605 13241b3f b30500fc      ......_?.$.....
2000327c:	41dd0020 b30220fc 20ce0500 39043f00      ..A. ..... .?.9
2000328c:	084f00e6 3702c639 4f33308d 55fdbd3c     ..O.9..7.03O<..U
2000329c:	83132538 41dd0200 083c00ec 386d3f08     8%.....A..<..?m8
200032ac:	01c6006f f8f6e120 26bec1bf 3900e602     o... ......&...9
200032bc:	00ce088d 7ec98d00 01cc43fd ceeedd04     .......~.C......
200032cc:	f0df27fe edf6dc39 26ba8d00 ce390c3e     .'..9......&>.9.
200032dc:	cc3c18fe fdbd0302 df0808de 3a00e6f2     ..<............:
200032ec:	016df7c6 046d2526 02ec2126 05ecf4dd     ..m.&%m.&!......
200032fc:	bc8df6dd c28d1525 8df2de3c 55fdbd83     ....%...<......U
2000330c:	ec082538 23f49300 0df7c6bc 00d87b39     8%.....#....9{..
2000331c:	00080016 00230011 00380035 0045003d     ......#.5.8.=.E.
2000332c:	005c0052 006f0062 0084007a 00a5008f     R.\.b.o.z.......
2000333c:	00ca00be 00d700cf 01ee00e7 01f40a15     ................
2000334c:	4604019f 8d454c49 0100ce67 084f00e6     ...FILE.g.....O.
2000335c:	2543fdbd 33008655 339200bd f4de02e7     ..C%U..3...3....
2000336c:	fecc41df 8d08382a bdf2dc45 032555fd     .A..*8..E....U%.
2000337c:	3900007f 00cc6c8d defdbd03 01ec3333     ...9.l......33..
2000338c:	04ec5726 07ec5326 4d260281 c3f4dd4f     &W..&S....&MO...
2000339c:	f2dd0300 06a603e6 0800c318 36373c18     .............<76
200033ac:	2600007d e900bda2 7e38c7c6 6d3fe6fd     }..&......8~..?m
200033bc:	dd0401cc 27feceee 8d39f0df 80fdbd25     .......'..9.%...
200033cc:	00007d38 0186ad26 00cc098d 00007c01     8}..&........|..
200033dc:	ce3dfd7e 00ed27fe 86f7c639 0000b701     ~.=..'..9.......
200033ec:	1838c920 3c18fece 3c9a00ce dd393c18      .8....<...<.<9.
200033fc:	c6f0dfee 00007dc4 bec6b126 018ceede     .....}..&.......
2000340c:	18a82204 da8d390c 25d1fdbd 38e08df8     ."...9.....%...8
2000341c:	bf8d0286 de18083c 0841dfee f0def2df     ....<.....A.....
2000342c:	f2dc6d3f 4ffdbd38 007cda24 ce390d00     ?m..8..O$.|...9.
2000343c:	ce3cf8fd cc3c9a00 fdbd0100 4d02ecde     ..<...<........M
2000344c:	8f8d9726 8638a98d cc888d03 fdbd0200     &.....8.........
2000345c:	c1082455 8dd326ee 395f4fd1 01cc848d     U$...&...O_9....
2000346c:	defdbd02 03270aec a698007e ccf3970c     ......'.~.......
2000347c:	41dd0800 ce180808 006fc500 6d3f1808     ...A......o...?m
2000348c:	ce040dcc 3f3c29fe dc253853 a1082e86     .....)<?S8%.....
2000349c:	ccfb2600 01a33030 01ecce26 c82603a3     .&..00..&.....&.
200034ac:	0486f6df 00bdf3d6 0800cc92 dcae00bd     ................
200034bc:	def093f6 fdbd3cf0 0c253855 bd3c086f     .....<..U8%.o.<.
200034cc:	381818fe 3838513f a100bd39 3880fdbd     ...8?Q889......8
200034dc:	18febd38 270000f6 c605e706 3907e7ff     8......'.......9
200034ec:	2600d9b8 10000900 22001800 30002b00     ...&.......".+.0
200034fc:	60003900 6b006500 7d007500 8d008100     .9.`.e.k.u.}....
2000350c:	93009000 a4009d00 b500a800 e500c800     ................
2000351c:	ef00ea00 fa00f300 21010e01 43012801     ...........!.(.C
2000352c:	6c016601 7f017601 8c018901 94019101     .f.l.v..........
2000353c:	8301e61d 52544605 00004e41 e694de00     .....FTRAN......
2000354c:	59595300 25e8c659 c1383901 ce7d26ee     .SYYY..%.98..&}.
2000355c:	018627fe 00cc00a7 3dfd7e01 3c18fece     .'.......~.=...<
2000356c:	bd0300cc 02ecdefd f7c6f2dd 865b264d     ............M&[.
2000357c:	2604a102 00c31855 18f0dd05 3a00e637     ...&U.......7..:
2000358c:	2601a133 df080845 d6f0def4 c180caf3     3..&E...........
2000359c:	2a6b2781 252f3f6b 323f1632 3f0100cc     .'k*k?/%2.?2...?
200035ac:	bd9a8d34 fece4001 313f3c27 2e3f9c25     4....@..'<?1%.?.
200035bc:	d700e638 a70286f6 6821b600 fece1126     8.........!h&...
200035cc:	f6d64f27 4ffdbd5c 390ddc24 08e7fd7e     'O..\..O$..9~...
200035dc:	a6eb275d 6921b100 21b62126 26018168     ]'....!i&!.!h..&
200035ec:	f6007a15 4ff7d75a 3c3c41dd 3f083818     .z..Z..O.A<<.8.?
200035fc:	f7d6386d 21b6da20 5a00a76a 83c6d120     m8.. ..!j..Z ...
2000360c:	c725243f 638df6dd d60900bd 2601c1f3     ?$%....c.......&
2000361c:	3f5f3f0c 3fb42563 8df6dd5f cc558d4e     .?_?c%.?_...N.U.
2000362c:	eedd0301 8627fece 0800a702 d64fecdf     ......'.......O.
2000363c:	25623f97 0600fe97 3f0800f6 dc8d2560     .?b%.......?`%..
2000364c:	7e0326f6 eede1b00 0423f69c eedcf6de     .&.~......#.....
2000365c:	f6ddee93 deeedd18 5e3f3cec eedc0d8d     .........<?^....
2000366c:	00c30938 4ffdbd01 3f39b524 0600ff5c     8......O$.9?\...
2000367c:	390800f7 00ce348d bd2a8d00 222543fd     ...9.4....*..C%"
2000368c:	00cc288d d600ed01 de02e7f3 dd168df4     .(..............
2000369c:	0300c341 feccecdd 8d6d3f2a 55fdbd0d     A.......*?m....U
200036ac:	fd7e0724 4f00e6e6 01cc3908 dceedd04     $.~....O.9......
200036bc:	27feceec ae39f0df 0017006f 0026001c     ...'..9.o.....&.
200036cc:	00300029 00730070 0092008b 00d50099     ).0.p.s.........
200036dc:	010201f1 01100105 013a0132 0143013d     ........2.:.=.C.
200036ec:	01630148 016f016a 01ff137e 5446058a     H.c.j.o.~.....FT
200036fc:	004e4152 00e60000 cc39084f eedd0301     RAN.....O.9.....
2000370c:	feceecdc 39f0df28 00cef18d bde78d00     ....(..9........
2000371c:	372543fd 00cce58d d600ed00 de02e7f3     .C%7............
2000372c:	ddd38df4 0300c341 feccecdd 8d6d3f2b     ....A.......+?m.
2000373c:	55fdbdca b6391525 00a76121 64205a08     ...U%.9.!a...Z d
2000374c:	d627fece 3f00e7f6 7e4c2437 fecee6fd     ..'....?7$L~....
2000375c:	00cc3c18 defdbd03 f2dd02ec 264df7c6     .<............M&
2000376c:	a1028671 186b2604 dd0500c3 e63718f6     q....&k.......7.
2000377c:	a1333a00 085b2601 def4df08 caf3d6f6     .:3..&[.........
2000378c:	2781c180 3c4f2a4f 2538283f 252f3f3d     ...'O*O<?(8%=?/%
2000379c:	323f1642 bd1b00bd 275d5101 b6f6d7fa     B.?2.....Q]'....
200037ac:	9c275f21 a699275d 6021b100 21b68e26     !_'.]'....!`&..!
200037bc:	2601815f f6007a82 4ff7d75a 3c3c41dd     _..&.z..Z..O.A<<
200037cc:	3f083818 f7d6386d ebc1da20 293f0426     .8.?m8.. ...&.?)
200037dc:	390da924 f2d783c6 3625243f f6def2d6     $..9....?$%6....
200037ec:	3325233f 00bd4f8d 28fece1b 41dd00ec     ?#%3.O.....(...A
200037fc:	f1d702e6 f6def2d6 7525253f f1d6378d     ........?%%u.7..
2000380c:	082681c1 cc2bfece 0c8d0400 088d308d     ..&...+......0..
2000381c:	eac1fa20 390dce27 eeddf0df 3f97d64f      ...'..9....O..?
2000382c:	fe382562 00f60600 25603f08 dcf0de2e     b%8......?`%....
2000383c:	25613fee ff5c3f26 00f70600 00bd3908     .?a%&?\......9..
2000384c:	03fecc0e 01a700e7 3c0200cc 3855fdbd     ...........<..U8
2000385c:	eec12424 007d1e27 371527f3 36e923b6     $$..'.}..'.7.#.6
2000386c:	23b70186 def2d6e9 32233ff6 33e923b7     ...#.....?#2.#.3
2000387c:	e7fd7e38 b2390c38 00150092 001e0016     8~..8.9.........
2000388c:	003e0023 00540045 0062005f 00a80069     #.>.E.T._.b.i...
2000389c:	00fa00ab 011801fd 013a0137 014e014b     ........7.:.K.N.
200038ac:	01600152 01fb0f85 54460551 054e4152     R.`.....Q.FTRAN.
200038bc:	53415245 062f0045 45505041 7100444e     ERASE./.APPEND.q
200038cc:	133f0f00 cc0600ce 503f0110 123f3c37     ..?.......?P7<?.
200038dc:	5a33380e 006e2527 00cc0f8d 3f343f01     .83Z'%n......?4?
200038ec:	c1fc242a 201326ee 3af2ce31 02242f3f     *$...&. 1..:?/$.
200038fc:	3f163938 00e63932 390d084f dd0301cc     89.?29..O..9....
2000390c:	ceecdcee f0df28fe 3af2ce39 382f3f3c     .....(..9..:<?/8
2000391c:	eac1af24 283fe426 cd8de125 8d3af2ce     $...&.?(%.....:.
2000392c:	f702c0d5 41dd8721 21cc0808 866d3f88     ....!..A...!.?m.
2000393c:	d5ffbd05 3f2080cc 2701c11c bd0386be     ...... ?...'....
2000394c:	00ced5ff bdaf8d00 482543fd 00ccae8d     .........C%H....
2000395c:	6f00ed00 21ce3c02 dd9b8d87 0300c341     ...o.<.!....A...
2000396c:	3818ecdd 0300c318 908d6d3f 2455fdbd     ...8....?m....U$
2000397c:	26bdc10b bd01861f b320d5ff cc5300bd     ...&...... ...S.
2000398c:	00e703fe 00cc01a7 fdbd3c02 23243855     .........<..U8$#
2000399c:	1e27eec1 5627c2c1 c1c10886 09860227     ..'...'V....'...
200039ac:	86d5ffbd d5ffbd0a 20c1483f 265a0427     ........?H. '.Z&
200039bc:	5d390cf7 f6d7c627 275f21b6 23275d26     ..9]'....!_'&]'#
200039cc:	21b100a6 b62f2660 01815f21 007a2326     ...!`&/.!_..&#z.
200039dc:	f7d75af6 3c41dd4f 0838183c d6386d3f     .Z..O.A<<.8.?m8.
200039ec:	ceda20f7 f6d627fe 373f00e7 fd7e8e24     . ...'....?7$.~.
200039fc:	6121b6e7 5a0800a7 a688c320 0c001300     ..!a...Z .......
20003a0c:	1c001500 5b004100 74006100 97008900     .....A.[.a.t....
20003a1c:	9f009a00 cf00c400 e200d400 fd00f800     ................
20003a2c:	46013b01 5601c60b 58452007 53545349     .;.F...V. EXISTS
20003a3c:	52544605 3f0f4e41 3f0c8613 3af2ce10     .FTRAN.?...?...:
20003a4c:	113f2d8d 8d0000ce 86113f26 d5ffbd07     .-?.....&?......
20003a5c:	36077d3f 0632123f bd06240e 21244e01     ?}.6?.2..$...N$!
20003a6c:	01cc390d dceedd03 28feceec e639f0df     .9.........(..9.
20003a7c:	39084f00 f2ce83c6 24243f3a 26eac1b9     .O.9....:?$$...&
20003a8c:	3af2cedf 02c0e98d dd8721f7 cc080841     ...:.....!..A...
20003a9c:	6d3f8821 ffbd0586 2080ccd5 01c11c3f     !.?m....... ?...
20003aac:	0386bf27 ced5ffbd c38d0800 2543fdbd     '.............C%
20003abc:	ccaf8d70 00ed0000 02e701c6 8721ce3c     p...........<.!.
20003acc:	41ddad8d dd0300c3 183818ec 3f0300c3     ...A......8....?
20003adc:	3a00bd6d 2455fdbd c1018611 860627bd     m..:..U$.....'..
20003aec:	26dbc10b d5ffbd3c feceaa20 dd00ec28     ...&<... ...(...
20003afc:	ce83c641 253f3af2 5f8d7925 cc2bfece     A....:?%%y._..+.
20003b0c:	3c8d0400 cc3a00bd 00e703fe 00cc01a7     ...<..:.........
20003b1c:	fdbd3c02 05243855 4626eec1 20218d39     .<..U8$...&F9.! 
20003b2c:	27c2c1e3 c108864e 860227c1 d5ffbd09     ...'N....'......
20003b3c:	ffbd0a86 c1483fd5 5a042720 390cf726     .....?H. '.Z&..9
20003b4c:	eeddf0df 3f97d64f de172562 3ff2d6f6     ....O..?b%.....?
20003b5c:	de0f2560 3feedcf0 3f072561 d7f6df5c     `%.....?a%.?\...
20003b6c:	b63739f2 8636e923 e923b701 b732088d     .97.#.6...#...2.
20003b7c:	7e33e923 83c6e7fd 3f3af2ce 41983923     #.3~......:?#9.A
20003b8c:	16001700 26001d00 42003400 5a004f00     .......&.4.B.O.Z
20003b9c:	7d006f00 85008000 ad00aa00 c300be00     .o.}............
20003bac:	d500cc00 eb00dd00 0b010601 51014c01     .............L.Q
20003bbc:	7901580e 58452007 53545349 52544605     .X.y. EXISTS.FTR
20003bcc:	5c3f4e41 f2d7f4df 3af2ce39 243f83c6     AN?\....9..:..?$
20003bdc:	94def625 595300e6 e8c65959 5f3fea25     %.....SYYY..%.?_
20003bec:	e425633f f6dd5f3f f2ced88d e600bd3a     ?c%.?_......:...
20003bfc:	21f702c0 0841dd87 8821cc08 0f866d3f     ...!..A...!.?m..
20003c0c:	0686103f ccd5ffbd 1c3f2080 b82701c1     ?........ ?...'.
20003c1c:	cceb00bd 01bd0400 8d462558 8650256d     ........X%F.m%P.
20003c2c:	d5ffbd07 103f0e86 ead76d8d ceecdf3a     ......?..m..:...
20003c3c:	00eb0000 8d8721f7 dc41dd61 cc6d3fec     .....!..a.A..?m.
20003c4c:	41dd2800 153f518d 21b7ea96 c1dfc487     .(.A.Q?....!....
20003c5c:	c1122759 8604264e cea5200c 204f0000     Y'..N&... ....O 
20003c6c:	26bdc1e5 cc388d0a 01bd0100 86432458     ...&..8.....X$C.
20003c7c:	27c1c108 bd098602 0a86d5ff 3fd5ffbd     ...'...........?
20003c8c:	2720c148 f7265a04 01bd390c e701c648     H. '.Z&..9..H...
20003c9c:	0100cc00 ce3dfd7e 00e68721 8639084f     ....~.=.!...O.9.
20003cac:	d5ffbd04 8d0800ce 43fdbdf1 bf8d0324     ...........C$...
20003cbc:	01cc3938 ceeedd03 028627fe df0800a7     89.......'......
20003ccc:	97d64fec 4125623f f2d6f4de 3925603f     .O..?b%A....?`%9
20003cdc:	b627f6dc f69ceede f6de0423 ee93eedc     ..'.....#.......
20003cec:	dd18f6dd 3cecdeee 00bd5e3f 38eedc0e     .......<?^.....8
20003cfc:	0100c309 244ffdbd bb007eb9 dd0401cc     ......O$.~......
20003d0c:	ceecdcee f0df27fe e7fd7e39 ed27fece     .....'..9~....'.
20003d1c:	e701c600 00bd3c02 c341dde3 ecdd0300     .....<....A.....
20003d2c:	c3183818 6d3f0300 fd7ed28d 00f9b155     .8....?m..~.U...
20003d3c:	00160019 003a0037 005d0051 006e0063     ....7.:.Q.].c.n.
20003d4c:	00b7007c 00c900c4 00e100d7 00f100ee     |...............
20003d5c:	010401f6 01410137 01500146 01590156     ....7.A.F.P.V.Y.
20003d6c:	14770163 077b01ee 49584520 05535453     c.w...{. EXISTS.
20003d7c:	41525446 8721ce4e 084f00e6 3af2ce39     FTRAN.!...O.9..:
20003d8c:	f8252f3f cc323f16 343f0100 00e694de     ?/%..?2...?4....
20003d9c:	59595953 e425e8c6 8d3af2ce f702c0db     SYYY..%...:.....
20003dac:	41dd8721 21cc0808 866d3f88 86103f0f     !..A...!.?m..?..
20003dbc:	d5ffbd06 3f2080cc 2701c11c cc6f8dbf     ...... ?...'..o.
20003dcc:	00bd0400 bd4825fe 4725e500 ffbd0786     .....%H...%G....
20003ddc:	3f0e86d5 d79e8d10 ecdf3aea eb0000ce     ...?.....:......
20003dec:	8721f700 41dd928d 6d3fecdc dd2800cc     ..!....A..?m..(.
20003dfc:	0e00bd41 ea96153f c48721b7 2759c1df     A...?....!....Y'
20003e0c:	264ec141 200c8604 0000cea4 c1e5204f     A.N&... ....O ..
20003e1c:	862f27bd 27c1c108 bd098602 0a86d5ff     .'/....'........
20003e2c:	3fd5ffbd 2720c148 f7265a04 0486390c     ...?H. '.Z&..9..
20003e3c:	ced5ffbd 00bd0800 43fdbd11 d38d0324     ...........C$...
20003e4c:	ea8d3938 8d0100cc 3939241c 01c60a8d     89.......$99....
20003e5c:	00cc00e7 3dfd7e01 dd0401cc ceecdcee     .....~.=........
20003e6c:	f0df27fe 27fece39 026f00ed 0e00bd3c     .'..9..'..o.<...
20003e7c:	00c341dd 18ecdd03 00c31838 8d6d3f03     .A......8....?m.
20003e8c:	55fd7ed7 3c27fece 3725313f e6382e3f     .~.U..'<?1%7?.8.
20003e9c:	86f6d700 b600a702 37276821 33275d08     ........!h'7.]'3
20003eac:	21b100a6 b6292669 01816821 007a1d26     ...!i&).!h..&.z.
20003ebc:	f7d75af6 3c41dd4f 0838183c d6386d3f     .Z..O.A<<.8.?m8.
20003ecc:	38da20f7 8427eec1 b6e7fd7e 00a76a21     . .8..'.~...!j..
20003edc:	cec9205a d64f27fe fdbd5cf6 7ea5244f     Z ...'O..\..O$.~
20003eec:	b8a3ac00 17001800 4b003200 61005c00     .........2.K.\.a
20003efc:	76006800 b5008b00 ca00ba00 d000cd00     .h.v............
20003f0c:	ef00d300 ff00f900 1b010701 62011e01     ...............b
20003f1c:	74016d01 46137901 20072201 53495845     .m.t.y.F.". EXIS
20003f2c:	46055354 4e415254 dd0401cc ceecdcee     TS.FTRAN........
20003f3c:	f0df27fe 8721ce39 084f00e6 27fece39     .'..9.!...O.9..'
20003f4c:	026f00ed 8721ce3c 41ddee8d dd0300c3     ..o.<.!....A....
20003f5c:	183818ec 3f0300c3 7ecd8d6d bdc155fd     ..8....?m..~.U..
20003f6c:	390d7527 ffbd0486 0800ced5 fdbdca8d     'u.9............
20003f7c:	38012443 87217f39 103f0c86 ffbd0686     C$.89.!...?.....
20003f8c:	2080ccd5 01c11c3f d88dea27 8d0400cc     ... ?...'.......
20003f9c:	bdcb25ac dc250301 ffbd0786 3f0e86d5     .%....%........?
20003fac:	d7928d10 ecdf3aea eb0000ce 8721f700     .....:........!.
20003fbc:	dd1e00bd 3fecdc41 2800cc6d 00bd41dd     ....A..?m..(.A..
20003fcc:	96153f1b 8721b7ea 59c1dfc4 4ec10927     .?....!....Y'..N
20003fdc:	00cea627 8dea2000 0100cc8b 252300bd     '.... ........#%
20003fec:	1ef2fe93 38053f3c f4dd00e3 f2dd00ec     ....<?.8........
20003ffc:	df28fece a6f2def6 f2df0800 9c2b274d     ..(.........M'+.
2000400c:	f61a24f4 0c276821 266921b1 2701c107     .$..!h'..!i&...'
2000401c:	6a21b6e4 00a7f6de 20f6df08 0e00bdd8     ..!j....... ....
2000402c:	00e701c6 7e0100cc fece3dfd a7028627     .......~.=..'...
2000403c:	83f6dc00 fdbd27fe 39b5244f 1400e884     .....'..O$.9....
2000404c:	24001600 4d004200 55005000 7a006500     ...$.B.M.P.U.e.z
2000405c:	8f008100 a5009700 c800c300 0401d700     ................
2000406c:	11010e01 1d011a01 8800550c 8d4b00ce     .........U....K.
2000407c:	ad10270b bdf52400 f0206cff 3f0110cc     .'...$...l ....?
2000408c:	390c5a50 208300ce 8800ce03 242018c6     PZ.9... ...... $
2000409c:	00ce08c6 7f1d2032 0cc66cf9 208900ce     ....2 ...l..... 
200040ac:	ce1cc613 0c20a001 06ce08c6 c605209a     ...... ...... ..
200040bc:	e606ce10 08d8ff7e 4e415254 54494d53     ....~...TRANSMIT
200040cc:	52071800 49454345 1d004556 54455305     ...RECEIVE...SET
200040dc:	24005055 52455404 042b004d 4f545541     UP.$.TERM.+.AUTO
200040ec:	43073c00 55545041 35004552 4f4f4204     .<.CAPTURE.5.BOO
200040fc:	00430054 1200092a 0c000100 1e001900     T.C.*...........
2000410c:	2c002700 38003100 46003f00 54004900     .'.,.1.8.?.F.I.T
2000411c:	66005e00 74006d00 85007e00 b608ca04     .^.f.m.t.~......
2000412c:	ff0000ff 0000ffff ffffff00 01ffffff     ................
2000413c:	248dff20 0d9df9be 0f6f3f39 73657270      ..$....9?o.pres
2000414c:	70732073 20656361 0079656b 483f463f     s space key.?F?H
2000415c:	032720c1 0cf7265a f6360737 03c195f9     . '.Z&..7.6.....
2000416c:	02c60525 5f012406 72fbbd37 5d162433     %....$._7..r3$.]
2000417c:	f97d1327 7ff1276b bd5f6bf9 463f72fb     '.}.k'...k_..r?F
2000418c:	0dcec638 32463f39 fe393306 053f6df9     8...9?F2.39..m?.
2000419c:	f9fe41dd 3900ee6d 530c6f3f 6e697661     .A..m..9?o.Savin
200041ac:	ce390067 08204d01 206201ce 6a01ce03     g.9..M ...b ...j
200041bc:	3c9df9bf 2558fbbd e900cc39 47ce41dd     ...<..X%9....A.G
200041cc:	251a3f72 06ce392d ce142077 25203403     r?.%-9..w ...4 %
200041dc:	202702ce 5706ce20 05ce1b20 3c1620f1     ..'  ..W .... .<
200041ec:	2558fbbd e900cc0d 4bce41dd 251a3fee     ..X%.....A.K.?.%
200041fc:	ff7e3901 e88d3c9c 3700ad38 b48d3607     .9~..<..8..7.6..
2000420c:	39330632 20f2ffbd fffffff2 ffffffff     2.39... ........
2000421c:	ffffffff ffffffff ffffffff ffffffff     ................
2000422c:	ffffffff ffffffff ffffffff ffffffff     ................
2000423c:	ffffffff ffffffff ffffffff ffffffff     ................
2000424c:	ffffffff ffffffff ffffffff ffffffff     ................
2000425c:	ffffffff ffffffff ffffffff ffffffff     ................
2000426c:	ffffffff ffffffff ffffffff ffffffff     ................
2000427c:	ffffffff ffffffff ffffffff ffffffff     ................
2000428c:	ffffffff ffffffff ffffffff ffffffff     ................
2000429c:	ffffffff ffffffff ffffffff ffffffff     ................
200042ac:	ffffffff ffffffff ffffffff ffffffff     ................
200042bc:	ffffffff ffffffff ffffffff ffffffff     ................
200042cc:	ffffffff ffffffff ffffffff ffffffff     ................
200042dc:	ffffffff ffffffff ffffffff ffffffff     ................
200042ec:	ffffffff ffffffff ffffffff ffffffff     ................
200042fc:	ffffffff ffffffff ffffffff ffffffff     ................
2000430c:	ffffffff ffffffff ffffffff ffffffff     ................
2000431c:	ffffffff ffffffff ffffffff ffffffff     ................
2000432c:	ffffffff ffffffff ffffffff ffffffff     ................
2000433c:	ffffffff ffffffff ffffffff ffffffff     ................
2000434c:	ffffffff ffffffff ffffffff ffffffff     ................
2000435c:	ffffffff ffffffff ffffffff ffffffff     ................
2000436c:	ffffffff ffffffff ffffffff ffffffff     ................
2000437c:	ffffffff ffffffff ffffffff ffffffff     ................
2000438c:	ffffffff ffffffff ffffffff ffffffff     ................
2000439c:	ffffffff ffffffff ffffffff ffffffff     ................
200043ac:	ffffffff ffffffff ffffffff ffffffff     ................
200043bc:	ffffffff ffffffff ffffffff ffffffff     ................
200043cc:	ffffffff ffffffff ffffffff ffffffff     ................
200043dc:	ffffffff ffffffff ffffffff ffffffff     ................
200043ec:	ffffffff ffffffff ffffffff ffffffff     ................
200043fc:	ffffffff ffffffff ffffffff ffffffff     ................
2000440c:	ffffffff ffffffff ffffffff ffffffff     ................
2000441c:	ffffffff ffffffff ffffffff ffffffff     ................
2000442c:	ffffffff ffffffff ffffffff ffffffff     ................
2000443c:	ffffffff ffffffff ffffffff ffffffff     ................
2000444c:	ffffffff ffffffff ffffffff ffffffff     ................
2000445c:	ffffffff ffffffff ffffffff ffffffff     ................
2000446c:	ffffffff ffffffff ffffffff ffffffff     ................
2000447c:	ffffffff ffffffff ffffffff ffffffff     ................
2000448c:	ffffffff ffffffff ffffffff ffffffff     ................
2000449c:	ffffffff ffffffff ffffffff ffffffff     ................
200044ac:	ffffffff ffffffff ffffffff ffffffff     ................
200044bc:	ffffffff ffffffff ffffffff ffffffff     ................
200044cc:	ffffffff ffffffff ffffffff ffffffff     ................
200044dc:	ffffffff ffffffff ffffffff ffffffff     ................
200044ec:	ffffffff ffffffff ffffffff ffffffff     ................
200044fc:	ffffffff ffffffff ffffffff ffffffff     ................
2000450c:	ffffffff ffffffff ffffffff ffffffff     ................
2000451c:	ffffffff ffffffff ffffffff ffffffff     ................
2000452c:	ffffffff ffffffff ffffffff ffffffff     ................
2000453c:	ffffffff ffffffff ffffffff ffffffff     ................
2000454c:	ffffffff ffffffff ffffffff ffffffff     ................
2000455c:	ffffffff ffffffff ffffffff ffffffff     ................
2000456c:	ffffffff ffffffff ffffffff ffffffff     ................
2000457c:	ffffffff ffffffff ffffffff ffffffff     ................
2000458c:	ffffffff ffffffff ffffffff ffffffff     ................
2000459c:	ffffffff ffffffff ffffffff ffffffff     ................
200045ac:	ffffffff ffffffff ffffffff ffffffff     ................
200045bc:	ffffffff ffffffff ffffffff ffffffff     ................
200045cc:	ffffffff ffffffff ffffffff ffffffff     ................
200045dc:	ffffffff ffffffff ffffffff ffffffff     ................
200045ec:	ffffffff ffffffff ffffffff ffffffff     ................
200045fc:	ffffffff ffffffff ffffffff ffffffff     ................
2000460c:	ffffffff ffffffff ffffffff ffffffff     ................
2000461c:	ffffffff ffffffff ffffffff ffffffff     ................
2000462c:	ffffffff ffffffff ffffffff ffffffff     ................
2000463c:	ffffffff ffffffff ffffffff ffffffff     ................
2000464c:	ffffffff ffffffff ffffffff ffffffff     ................
2000465c:	ffffffff ffffffff ffffffff ffffffff     ................
2000466c:	ffffffff ffffffff ffffffff ffffffff     ................
2000467c:	ffffffff ffffffff ffffffff ffffffff     ................
2000468c:	ffffffff ffffffff ffffffff ffffffff     ................
2000469c:	ffffffff ffffffff ffffffff ffffffff     ................
200046ac:	ffffffff ffffffff ffffffff ffffffff     ................
200046bc:	ffffffff ffffffff ffffffff ffffffff     ................
200046cc:	ffffffff ffffffff ffffffff ffffffff     ................
200046dc:	ffffffff ffffffff ffffffff ffffffff     ................
200046ec:	ffffffff ffffffff ffffffff ffffffff     ................
200046fc:	ffffffff ffffffff ffffffff ffffffff     ................
2000470c:	ffffffff ffffffff ffffffff ffffffff     ................
2000471c:	ffffffff ffffffff ffffffff ffffffff     ................
2000472c:	ffffffff ffffffff ffffffff ffffffff     ................
2000473c:	ffffffff ffffffff ffffffff ffffffff     ................
2000474c:	ffffffff ffffffff ffffffff ffffffff     ................
2000475c:	ffffffff ffffffff ffffffff ffffffff     ................
2000476c:	ffffffff ffffffff ffffffff ffffffff     ................
2000477c:	ffffffff ffffffff ffffffff ffffffff     ................
2000478c:	ffffffff ffffffff ffffffff ffffffff     ................
2000479c:	ffffffff ffffffff ffffffff ffffffff     ................
200047ac:	ffffffff ffffffff ffffffff ffffffff     ................
200047bc:	ffffffff ffffffff ffffffff ffffffff     ................
200047cc:	ffffffff ffffffff ffffffff ffffffff     ................
200047dc:	ffffffff ffffffff ffffffff ffffffff     ................
200047ec:	ffffffff ffffffff ffffffff ffffffff     ................
200047fc:	ffffffff ffffffff ffffffff ffffffff     ................
2000480c:	ffffffff ffffffff ffffffff ffffffff     ................
2000481c:	ffffffff ffffffff ffffffff ffffffff     ................
2000482c:	ffffffff ffffffff ffffffff ffffffff     ................
2000483c:	ffffffff ffffffff ffffffff ffffffff     ................
2000484c:	ffffffff ffffffff ffffffff ffffffff     ................
2000485c:	ffffffff ffffffff ffffffff ffffffff     ................
2000486c:	ffffffff ffffffff ffffffff ffffffff     ................
2000487c:	ffffffff ffffffff ffffffff ffffffff     ................
2000488c:	ffffffff ffffffff ffffffff ffffffff     ................
2000489c:	ffffffff ffffffff ffffffff ffffffff     ................
200048ac:	ffffffff ffffffff ffffffff ffffffff     ................
200048bc:	ffffffff ffffffff ffffffff ffffffff     ................
200048cc:	ffffffff ffffffff ffffffff ffffffff     ................
200048dc:	ffffffff ffffffff ffffffff ffffffff     ................
200048ec:	ffffffff ffffffff ffffffff ffffffff     ................
200048fc:	ffffffff ffffffff ffffffff ffffffff     ................
2000490c:	ffffffff ffffffff ffffffff ffffffff     ................
2000491c:	ffffffff ffffffff ffffffff ffffffff     ................
2000492c:	ffffffff ffffffff ffffffff ffffffff     ................
2000493c:	ffffffff ffffffff ffffffff ffffffff     ................
2000494c:	ffffffff ffffffff ffffffff ffffffff     ................
2000495c:	ffffffff ffffffff ffffffff ffffffff     ................
2000496c:	ffffffff ffffffff ffffffff ffffffff     ................
2000497c:	ffffffff ffffffff ffffffff ffffffff     ................
2000498c:	ffffffff ffffffff ffffffff ffffffff     ................
2000499c:	ffffffff ffffffff ffffffff ffffffff     ................
200049ac:	ffffffff ffffffff ffffffff ffffffff     ................
200049bc:	ffffffff ffffffff ffffffff ffffffff     ................
200049cc:	ffffffff ffffffff ffffffff ffffffff     ................
200049dc:	ffffffff 6124ffff 15001700 4a003c00     ......$a.....<.J
200049ec:	58005300 6c005c00 84007300 8e008900     .S.X.\.l.s......
200049fc:	95009100 a7009a00 b100ac00 bb00b600     ................
20004a0c:	c600c100 e500d300 9c03900c e694deff     ................
20004a1c:	59595300 39e8c659 4e455304 45520444     .SYYY..9.SEND.RE
20004a2c:	53045643 04455641 454c4946 50094100     CV.SAVE.FILE.A.P
20004a3c:	45434f52 45525544 05004300 53415245     ROCEDURE.C..ERAS
20004a4c:	06490245 45505041 5a00444e 00aa0000     E.I.APPEND.Z....
20004a5c:	00a300b3 49414d9d aff8ff4e 8d1b00ce     .....MAIN.......
20004a6c:	be032607 390cb4f8 3f0110cc 390c5a50     .&.....9...?PZ.9
20004a7c:	bfacf87f 00ccb4f8 9ef8fd4d 8d0c00ce     ........M.......
20004a8c:	6e00eed8 4d00cc00 201100ce 82ffbd0c     ...n...M... ....
20004a9c:	ccb2f8fd 00ce0000 acf87f16 bf9ef8fd     ................
20004aac:	00bdb4f8 6e04ee4d 01ce5f00 c61520d8     ....M..n._... ..
20004abc:	8c01ce02 06c60520 867c03ce c6062001     .... .....|.. ..
20004acc:	3903ce04 b1f8b74f ffacf8f7 728dadf8     ...9O..........r
20004adc:	ff7e0324 acf8f64e 082403c1 8c9ef8fe     $.~.N.....$.....
20004aec:	0c264d00 c15521f6 bd052602 3a20fbff     .M&..!U..&.... :
20004afc:	a65421ce 28ffb700 2755217d 00fe6106     .!T....(}!U'.a..
20004b0c:	c6b5fdbd acf8b604 06250381 2655217d     ..........%.}!U&
20004b1c:	f9bd5c01 8d0924d3 27c2c174 29ff7e16     .\...$..t..'.~.)
20004b2c:	fe1cff7f 00adadf8 0825638d fdbd463f     .........c%.?F..
20004b3c:	0d042099 fe83febd 008c9ef8 7e8f274d     . ..........M'.~
20004b4c:	f8ce4eff a0f8f6a3 0a2602c0 27b1f87d     .N........&.}..'
20004b5c:	4900ce05 21f704c6 41dd4f87 3f8821cc     ...I...!.O.A.!.?
20004b6c:	0800cc6d 3faff8fe 7f212568 41cc82f8     m......?h%!....A
20004b7c:	fda29b3a f64fa1f8 d0278721 02cb41dd     :.....O.!.'..A..
20004b8c:	cea0f8f7 f8cc8821 0c6d3fa3 b6360739     ....!....?m.9.6.
20004b9c:	21b728ff 39063254 3fa0f8ce c109242f     .(.!T2.9...?/$..
20004bac:	bd4026ea 16206d02 3f323f16 00008c36     .&@..m ..?2?6...
20004bbc:	00ce0c27 5c00bd2f 00ad2927 0f8d2525     '.../..\')..%%..
20004bcc:	3fa0f8ce 211c252f 323f16f5 fec2ff7e     ...?/%.!..?2~...
20004bdc:	008c9ef8 7e03274d 21b68fff 3f042655     ....M'.~...!U&.?
20004bec:	39000c6f 253f02bd 6f3f3c2a 73250e10     o..9..?%*<?o..%s
20004bfc:	49584520 0f535453 454c4544 59204554      EXISTS.DELETE Y
20004c0c:	003f4e2f db247d3f f8ce83c6 25233fa0     /N?.?}$......?#%
20004c1c:	c10520d2 32260dea f8ceb58d fef2dfa0     . ....&2........
20004c2c:	008c9ef8 4f5a2700 c641dd5f 0620ce04     .....'ZO_.A... .
20004c3c:	0f25023f 4f0620fe c600ed5f eedf3a04     ?.%.. .O_....:..
20004c4c:	37c7ff7e 3f0620ce ce393306 c63ca0f8     ~..7. .?.39...<.
20004c5c:	38243f83 a0f8ce39 23252f3f cc323f16     .?$89...?/%#.?2.
20004c6c:	343f0100 450c6f3f 69736172 3f00676e     ..?4?o.Erasing.?
20004c7c:	c1fc242a 0c0826ee a0f8ce39 0d39283f     *$...&..9...?(9.
20004c8c:	82ffbd39 d338183c 0941dd41 24419c08     9...<.8.A.A...A$
20004c9c:	2700e61d 2420c1f7 0c6f3ff3 20444142     ...'.. $.?o.BAD 
20004cac:	434f5250 52554445 7e001045 007f30ff     PROCEDURE..~.0..
20004cbc:	82ffbd00 c10800e6 5d1e273a 5f4ff626     ........:'.]&.O_
20004ccc:	00cc41dd 84f8fe03 7625023f cc82ffbd     .A......?.%v....
20004cdc:	00ed3a3f 007c026f 82ffbd00 ffbd3c18     ?:..o.|......<..
20004cec:	c318388f 41dd0400 83c6f2de 3b25253f     .8.....A....?%%;
20004cfc:	fd82ffbd 00cc1aff 18ffce04 1225613f     ............?a%.
20004d0c:	7d82ffbd 06268b00 d318eedd 613f18ee     ...}..&.......?a
20004d1c:	b6371924 ee97e923 23b70186 a0f8cee9     $.7.#......#....
20004d2c:	233f83c6 23b7ee96 370d33e9 007d3607     ..?#...#.3.7.6}.
20004d3c:	4f0c2700 cc41dd5f f8fe0300 32043f84     .'.O_.A......?.2
20004d4c:	ff7e3306 ce01bd4f c6a0f8ce 25243f83     .3~.O........?$%
20004d5c:	0100bd34 5f3f2f25 2925633f 8c185f3f     4...%/?_?c%)?_..
20004d6c:	26180000 0c6f3f13 454a424f 4f205443     ...&.?o.OBJECT O
20004d7c:	10594c4e 30ff7e00 5c3feedd f721ffff     NLY..~.0..?\..!.
20004d8c:	ff7e23ff 4fff7ed1 cece01bd 2f3fa0f8     .#~..~.O......?/
20004d9c:	3f161325 0100bd32 00cc0b25 7f343f01     %..?2...%....?4.
20004dac:	ff7e8721 4fff7ecc 6c005f7f 2c002000     !.~..~.O._.l. .,
20004dbc:	3e003500 43004100 47004500 51004e00     .5.>.A.C.E.G.N.Q
20004dcc:	65005800 6b006800 71006e00 7d007a00     .X.e.h.k.n.q.z.}
20004ddc:	85008200 8b008800 91008e00 97009400     ................
20004dec:	a6009f00 b600ad00 bd00ba00 c700c000     ................
20004dfc:	d100ca00 e000d400 f500ea00 0701fa00     ................
20004e0c:	15011201 23011801 2c012901 34012f01     .......#.).,./.4
20004e1c:	3a013701 46014101 60015901 75016801     .7.:.A.F.Y.`.h.u
20004e2c:	84017b01 98018d01 aa01a701 c101b501     .{..............
20004e3c:	c701c401 d901cc01 0f02ff01 17021402     ................
20004e4c:	40023502 6e024a02 a0027602 a602a302     .5.@.J.n.v......
20004e5c:	c102ba02 ce02cb02 e502d302 ee02e802     ................
20004e6c:	1203f502 2f032303 3a033703 46033d03     .....#./.7.:.=.F
20004e7c:	71036a03 77037403 7d037a03 8a038003     .j.q.t.w.z.}....
20004e8c:	9a039703 cd077cad f8bce8de fe4124b2     .....|.......$A.
20004e9c:	00ee84f8 18e8d318 dd8821cc a65c5fe6     .........!..._\.
20004eac:	3c142700 00a7e6de 38e6df08 25fec108     .'.<.......8...%
20004ebc:	3ae8deed de03205c e8df3ae8 bc5f175a     ...:\ ...:..Z._.
20004ecc:	0125b2f8 f4007f5c b7f5007f 390c8721     ..%.\.......!..9
20004edc:	200200cc 8821cef0 ff7ffec6 dff5d724     ... ..!.....$...
20004eec:	ead75ff6 d7ebd75f 91ea96f4 b65727f5     ._.._........'W.
20004efc:	264a5521 8e02bd08 007e1c24 bbfcbdd3     !UJ&....$.~.....
20004f0c:	275d1324 26cec1ea f4974f08 20eb974c     $.]'...&.O..L.. 
20004f1c:	ff7e0d32 007c164f e7f6deea f6df0800     2.~.O.|.........
20004f2c:	bd5921ce 1b276e02 ceeb007c 02bd5c21     .!Y..n'.|...!\..
20004f3c:	b6b1266e 264a5521 b780860a 02bd1dff     n&..!UJ&........
20004f4c:	7c18258e 218d24ff eadc9a25 d0163736     .%.|.$.!%...67..
20004f5c:	8821cef4 333f04bd 37390c32 5d330b8d     ..!...?32.97..3]
20004f6c:	ea960526 0d390c5c 5f21b639 ff7f5627     &...\.9.9.!_'V..
20004f7c:	16eadc25 18f6de4f f693f6df dc18f6dd     %...O...........
20004f8c:	4df490ea 00e63027 266021f1 5f21f625     ...M'0...!`&%.!_
20004f9c:	192601c1 3cea007a f49b4a36 41dd4f16     ..&.z..<6J...O.A
20004fac:	0833323c 38326d3f 2025ff7c 6121f606     <23.?m28|.% ..!a
20004fbc:	4a0800e7 ff7dcd20 7d092624 042725ff     ...J .}.$&.}.%'.
20004fcc:	390df6df 21ce390c f8fe3c88 3800ad9e     ...9.9.!.<.....8
20004fdc:	264d5e25 1a275d1d 3f2d02bd 4d450c6f     %^M&.]'...-?o.EM
20004fec:	20595450 434f5250 52554445 7e001045     PTY PROCEDURE..~
20004ffc:	f49030ff 01803637 e6081223 273ac100     .0..76..#.....:'
2000500c:	f6264a38 23fbc133 37fbc602 3703cb33     8J&.3..#...73..7
2000501c:	ce41dd4f 21cc8821 cc6d3f8b 21fd3a3f     O.A.!..!.?m.?:.!
2000502c:	8a217f88 21ce1320 f8fe3c88 3800ad9e     ..!. ..!.<.....8
2000503c:	027e0324 37f49027 5c373336 253502bd     $.~.'..7637\..5%
2000504c:	4f37336d 21ce41dd 3feedc88 33eede6d     m37O.A.!...?m..3
2000505c:	08006f3a 4d32eedf 6c8dcc27 d338183c     :o....2M'..l<.8.
2000506c:	04008341 080841dd 419c0808 00e61f24     A....A.....A$...
2000507c:	20c1f727 3d8df324 420c6f3f 50204441     '.. $..=?o.BAD P
2000508c:	45434f52 45525544 ff7e0010 8fffbd30     ROCEDURE..~.0...
2000509c:	8d4fffbd 04008333 f2de02ed 253f83c6     ..O.3.........?%
200050ac:	248d0d25 0725613f 5f0c0b8d 8d380420     %..$?a%...._ .8.
200050bc:	ff7e0d04 20ce374f 33063f06 088d3739     ..~.O7. .?.397..
200050cc:	4f0620ce 39023f33 3f0620ce fe41dd05     . .O3?.9. .?..A.
200050dc:	fe390620 00ad9ef8 f4901925 a78721ce      .9.....%....!..
200050ec:	06263700 ce05265d 373f26ff 4d042532     .7&.]&...&?72%.M
200050fc:	7e5fe127 00a64fff 1827f497 1322ea91     '._~.O....'...".
2000510c:	09f6de3c a606264a 01a13800 00ec0939     <...J&...8..9...
2000511c:	3901a338 ffb6394c bd15261c ff7c8407     8..9L9...&....|.
2000512c:	b780861c f75f1dff fff71fff 20fff71e     ......_........ 
2000513c:	c11dfff6 8d022680 0207ce0e 3a1dff7c     .....&......|..:
2000514c:	275d00e6 7f390ceb 0a86f000 f197ec97     ..]'..9.........
2000515c:	2620ffb6 d715c606 d60920f0 5c0d26f0     .. &..... ...&.\
2000516c:	06c6f0d7 24f904bd f9037e03 07bd0ac6     .......$.~......
2000517c:	9907bd93 c1c11324 c0c1f727 037e0327     ....$...'...'.~.
2000518c:	ec007af9 037eca26 2604c1f7 bd06c624     .z..&.~....&$...
2000519c:	0324f904 3ff9037e 52100c6f 69656365     ..$.~..?o..Recei
200051ac:	4f206576 463f004b 5f38483f 037e390d     ve OK.?F?H8_.9~.
200051bc:	2601c1bc 25328dbc 8decd704 dbef252c     ...&..2%....,%..
200051cc:	ea265cec fff1ecd6 7f23261e 0186f000     .\&......&#.....
200051dc:	b620ffb7 3f361eff 75440c6f 63696c70     .. ...6?o.Duplic
200051ec:	20657461 20007625 7e0ac671 f15a9707     ate %v. q..~..Z.
200051fc:	50261eff cef0007f 8d3c0207 0a2438ec     ..&P......<..8$.
2000520c:	3a27c1c1 3627c0c1 00e77720 f0d7f0db     ..':..'6 w......
2000521c:	83078c08 1709e426 101000e6 ff7c2026     ....&.......& |.
2000522c:	b701861e ffb620ff 6f3f361e 6365520c     ..... ...6?o.Rec
2000523c:	65766965 76252064 fff75f00 ff7f391d     eived %v._...9..
2000524c:	f0007f20 ffb6463f 3f364c1e 72450c6f      ...?F...L6?o.Er
2000525c:	20726f72 25206e69 02c60076 249707bd     ror in %v......$
2000526c:	27c1c1f9 26c0c1f5 f1007a18 f0d61127     ...'...&.z..'...
2000527c:	15c60a27 24f904bd f9037e03 c6c8027e     '......$.~..~...
2000528c:	ff7c38c1 b007bd1e 4fff7e0d 4a5521b6     .8|......~.O.!UJ
2000529c:	057e0326 011accf0 208821b7 8721ce09     &.~......!. ..!.
200052ac:	a70d863a 21ce5c01 17373c88 e616274d     :....\.!.<7.M'..
200052bc:	363c0800 24b704bd 32383207 7e200d38     ..<6...$.2828. ~
200052cc:	264a3832 7d3833ea 71265521 ecdf3a3c     28J&.38}!U&q<:..
200052dc:	cc3c0938 41dd1000 ce7020cc 3f3c8020     8.<....A. p. .<?
200052ec:	20cc386d 38713f10 ec9c085f 00a64724     m8. .?q8_...$G..
200052fc:	0c242081 04260981 04202086 d220378d     . $...&..  ..7 .
2000530c:	8020ce3c 3800a73a 2510c15c b77e86dc     <. .:..8\..%..~.
2000531c:	218d8f20 24ec9c08 8100a625 81f52420      ..!...$%... $..
2000532c:	08f12709 1624ec9c 098100a6 20810427     .'....$.....'.. 
2000533c:	2009f125 86373c9d 33103f11 c1390c38     %.. .<7..?.38.9.
2000534c:	c114271a f110270d 0b266921 276821b6     .'...'..!i&..!h'
2000535c:	23274a06 ce6a21f6 1ac16521 21ce0727     .J'#.!j.!e..'..!
2000536c:	260dc162 2700a613 e6363c0e 32098d01     b..&...'.<6....2
2000537c:	08042538 39f2264a 4a5521b6 067e0326     8%..J&.9.!UJ&.~.
2000538c:	fcbd173d 5d08244e 3f37f827 390d3346     =...N$.]'.7?F3.9
2000539c:	97d60186 5b25623f f621fffe 603f23ff     ....?b%[..!..#?`
200053ac:	44205125 fa008337 0724eedd eedd5f4f     %Q D7.....$.O_..
200053bc:	31032033 ce4ffac6 3c378821 33385e3f     3 .1..O.!.7<?^83
200053cc:	2600a637 000d6203 f5265a08 3f361032     7..&.b...Z&.2.6?
200053dc:	373c325c 1e04bd16 01861725 623f97d6     \2<7....%.....?b
200053ec:	38330f25 0b25603f b826eedc 200404bd     %.38?`%...&.... 
200053fc:	7e313802 0a204fff 21f62e3f 1504bd87     .81~.O .?..!....
2000540c:	21ce1125 24313f87 26eec1ef 0404bd05     %..!.?1$...&....
2000541c:	7e0d0120 f8bf4fff 1cff7fb4 c6acf87f      ..~.O..........
2000542c:	55217d04 bd5c0126 0124d3f9 f704c639     .}!U&.\...$.9...
2000543c:	ffbdacf8 b2f8fd82 c10000bd f7122702     .............'..
2000544c:	bd1617ff 01241504 17ffb639 274d0625     ......$.9...%.M'
2000545c:	0404bde7 bd4fff7e f75f8407 f75c1fff     ....~.O..._...\.
2000546c:	3bc61eff bd9307bd 06249907 f727c1c1     ...;......$...'.
2000547c:	15c1390d 390cf126 a66521ce 3c0e2700     .9..&..9.!e..'.<
2000548c:	8d01e636 25383240 264a083a 6a06bdf2     6...@28%:.J&...j
2000549c:	04c63125 25f904bd bd0ac655 07bd9307     %1.....%U.......
200054ac:	c1082497 c1f727c1 c11826c0 3fef2606     .$...'...&...&.?
200054bc:	53100c6f 20646e65 3f004b4f 0c483f46     o..Send OK.?F?H.
200054cc:	204fff7e ff7d1729 3609261c 8d1cff7c     ~.O ).}..&.6|...
200054dc:	1a253286 ce1ffff6 a73a0207 fff75c00     .2%.......:..\..
200054ec:	2680c11f 250b8d07 1fff7f05 7e0d390c     ...&...%.....9.~
200054fc:	ffb64fff 6f3f361e 6e65530c 676e6964     .O...6?o.Sending
2000550c:	00762520 ecd70ac6 c11ffff6 ce092780      %v..........'..
2000551c:	6f3a0207 f3205c00 04bd01c6 f66725f9     ..:o.\ ......%g.
2000552c:	04bd1eff c65f25f9 1efff0ff 25f904bd     .....%_........%
2000553c:	4f80c655 370207ce 081b00e6 04bd3c36     U..O...7....6<..
2000554c:	333238f9 265a4125 04bd16ee c63725f9     .823%AZ&.....%7.
2000555c:	9307bd0a 249907bd 27c1c123 26c0c1f7     .......$#..'...&
2000556c:	ec007a26 ffb62127 6f3f361e 7365520c     &z..'!...6?o.Res
2000557c:	69646e65 2520676e 9c200076 022706c1     ending %v. ...'.
2000558c:	ff7cdf20 7e390c1e ffffb007 ffffffff      .|...9~........
2000559c:	ffffffff ffffffff ffffffff ffffffff     ................
200055ac:	ffffffff ffffffff ffffffff ffffffff     ................
200055bc:	ffffffff ffffffff ffffffff ffffffff     ................
200055cc:	ffffffff ffffffff ffffffff ffffffff     ................
200055dc:	ffffffff ffffffff ffffffff ffffffff     ................
200055ec:	ffffffff ffffffff ffffffff ffffffff     ................
200055fc:	ffffffff ffffffff ffffffff ffffffff     ................
2000560c:	ffffffff ffffffff ffffffff 430c6f3f     ............?o.C
2000561c:	656e6e6f 6e697463 f7390067 8d397121     onnecting.9.!q9.
2000562c:	b6c0c6fa 0c277121 24bbfcbd f1275d09     ....!q'....$.]'.
2000563c:	33463f37 3916390d 1effb637 0c6f3f36     7?F3.9.97...6?o.
2000564c:	69614610 2064656c 25206e69 463f0076     .Failed in %v.?F
2000565c:	0d33483f 007a6339 00030083 00380008     ?H3.9cz.......8.
2000566c:	006e0053 00760073 009c008b 00b400a7     S.n.s.v.........
2000567c:	00bc00b7 01e700cd 012f0121 01430134     ........!./.4.C.
2000568c:	01680151 01ab01a3 020302b5 02090206     Q.h.............
2000569c:	024c022b 026c0260 0294028f 029c0297     +.L.`.l.........
200056ac:	02a302a0 02a902a6 02b502b2 02dd02c9     ................
200056bc:	02e702e2 02f702ea 030803ff 0327030d     ..............'.
200056cc:	0349033f 0364034c 03700368 0397038a     ?.I.L.d.h.p.....
200056dc:	039f039c 03b703b3 03d503bf 03f203ed     ................
200056ec:	03fb03f5 040204fe 042d040b 05fb04f7     ..........-.....
200056fc:	05140511 0565054e 0576056c 058c0586     ....N.e.l.v.....
2000570c:	0592058f 05a00595 05ab05a8 05b105ae     ................
2000571c:	05bc05b8 05ca05c2 05d005cd 05d805d4     ................
2000572c:	06e005dd 060d0606 06170614 063f0639     ............9.?.
2000573c:	064d0645 06570650 06680662 0681066b     E.M.P.W.b.h.k...
2000574c:	06930688 069b0698 06a506a2 06b706ad     ................
2000575c:	06ca06c3 06df06cd 070007fb 0db207a1     ................
2000576c:	ffb102aa ffffffff ffffffff ffffffff     ................
2000577c:	ffffffff ffffffff ffffffff ffffffff     ................
2000578c:	ffffffff ffffffff ffffffff ffffffff     ................
2000579c:	ffffffff ffffffff ffffffff ffffffff     ................
200057ac:	ffffffff ffffffff 081cffff 06050e08     ................
200057bc:	43070605 55545041 86384552 bf103f0c     ...CAPTURE8..?..
200057cc:	f9fe0000 1808266d 5225013f bd6df9ff     ....m&..?.%R..m.
200057dc:	f9fcfa00 0420836d cc41dd37 20ce0400     ....m. .7.A.... 
200057ec:	fe6d3f06 00ee6df9 330620ff ce4f5a5a     .?m..m... .3ZZO.
200057fc:	713f0820 fe2101bd 00ff5220 c000ce02      .?q..!. R......
2000580c:	ce5220ff e64f4f00 41dd5c00 3fc822cc     . R..OO..\.A.".?
2000581c:	018fcc6d 86e023fd a300b703 203f4d3f     m....#......?M? 
2000582c:	38a0017e 303c3634 03ed05ec 00e607ee     ~..846<0........
2000583c:	162750c1 172724c1 3ae723fe 3000ec3a     .P'..$'..#.::..0
2000584c:	07ec05ed ed0100c3 06323b07 cc6a017e     .........;2.~.j.
2000585c:	eb20f100 390deac6 200901cc 0109cc03     .. ....9... ....
2000586c:	f9fe3736 053f3c6d ee38e6dd 09323300     67..m<?...8..32.
2000587c:	e6de3c08 df090c27 00a138e6 00e7f226     .<..'....8..&...
2000588c:	3938ee20 00ce268d 7d08c63f fb2b8001      .89.&..?..}..+.
2000589c:	a78101b6 265a0800 c6118df2 7d00a608     ......Z&.......}
200058ac:	fb2b8001 088101b7 39f2265a 017d4886     ..+.....Z&.9.H}.
200058bc:	b7fb2b80 8d398001 3f00cef3 00a608c6     .+....9....?....
200058cc:	2b80017d 8101b7fb f2265a08 0000be39     }..+.....Z&.9...
200058dc:	ff0200fe f9fc5220 0420836d 00ce41dd     .... R..m. ..A..
200058ec:	0620cc04 5f4f6d3f 00f641dd fe03cb4f     .. .?mO_.A..O...
200058fc:	ee3c6df9 006d3a00 385c0126 00bd043f     .m<..:m.&.\8?...
2000590c:	feb48df5 1e276df9 264d053f 2201c119     .....m'.?.M&..."
2000591c:	fe092515 00ee6df9 0a26006d 3f6df9fe     .%...m..m.&...m?
2000592c:	fd5f4f00 01ce6df9 0110ccd9 275a503f     .O_..m......?PZ'
2000593c:	2400ad09 6cffbdce 390cc920 52455404     ...$...l ..9.TER
2000594c:	04a0024d 54494445 53045700 02455641     M...EDIT.W.SAVE.
2000595c:	52540868 4d534e41 80025449 454c4305     h.TRANSMIT...CLE
2000596c:	02025241 6df9fe00 6f3f3027 454c430e     AR.....m'0?o.CLE
2000597c:	43205241 55545041 420f4552 45464655     AR CAPTURE.BUFFE
2000598c:	59203a52 003f4e2f 0d247d3f f9fe5f4f     R: Y/N?.?}$.O_..
2000599c:	fd05276d 003f6df9 0e3f390c 420c6f3f     m'...m?..9?.?o.B
200059ac:	45464655 53492052 504d4520 0a0d5954     UFFER IS EMPTY..
200059bc:	73657270 70732073 20656361 0079656b     press space key.
200059cc:	20c1483f 265a0327 fe390cf7 ca276df9     ?H. '.Z&..9..m'.
200059dc:	e8dd5f4f ffceeadd 00ce3ce7 3c18c68d     O_.......<.....<
200059ec:	fe7cff7e b2276df9 e8dd5f4f ffceeadd     ~.|..m'.O_......
200059fc:	00ce3ce7 5521f6a6 e12602c1 c6e106ce     .<....!U..&.....
20005a0c:	7fdc2010 f97c6cf9 e7ffce6c ce0cc63c     . ...l|.l...<...
20005a1c:	cb208900 32006837 60005d00 6d006a00     .. .7h.2.].`.j.m
20005a2c:	79007000 92008100 9b009800 be00a100     .p.y............
20005a3c:	ed00ea00 24010001 6b015701 74016e01     .......$.W.k.n.t
20005a4c:	88017c01 9c018d01 b101a101 c101ba01     .|..............
20005a5c:	d301c401 e501de01 f701ec01 0302ff01     ................
20005a6c:	31022c02 74026902 7e027802 8c028102     .,.1.i.t.x.~....
20005a7c:	9a029002 a402a102 ad02a702 fffffa4e     ............N...

20005a8c <rx_pio>:
20005a8c:	50200000                                .. P

20005a90 <striped_spin_lock_num>:
20005a90:	00000010                                ....

20005a94 <default_alarm_pool>:
20005a94:	20005aac 00000000 20005b68 20005cc8     .Z. ....h[. .\. 
	...

20005aac <default_alarm_pool_heap>:
20005aac:	20005cd8 00000000 00000000 00000010     .\. ............

20005abc <irq_handler_chain_slots>:
20005abc:	00000000 	.word	0x00000000
20005ac0:	00010000 	.word	0x00010000
	...
20005acc:	00020000 	.word	0x00020000
	...
20005ad8:	00030000 	.word	0x00030000
	...
20005ae4:	00ff0000 	.word	0x00ff0000
20005ae8:	00000000 	.word	0x00000000

20005aec <irq_handler_chain_first_slot>:
20005aec:	b500      	push	{lr}
20005aee:	6848      	ldr	r0, [r1, #4]
20005af0:	3101      	adds	r1, #1
20005af2:	468e      	mov	lr, r1
20005af4:	4700      	bx	r0

20005af6 <irq_handler_chain_remove_tail>:
20005af6:	4670      	mov	r0, lr
20005af8:	3809      	subs	r0, #9
20005afa:	4901      	ldr	r1, [pc, #4]	; (20005b00 <irq_handler_chain_remove_tail+0xa>)
20005afc:	4788      	blx	r1
20005afe:	bd00      	pop	{pc}
20005b00:	100028c1 	.word	0x100028c1
	...

20005b10 <aeabi_bits_funcs>:
20005b10:	00003350 	.word	0x00003350
20005b14:	0000334c 	.word	0x0000334c
20005b18:	00003354 	.word	0x00003354
20005b1c:	00003352 	.word	0x00003352

20005b20 <aeabi_bits_funcs_end>:
20005b20:	0000534d 	.word	0x0000534d
20005b24:	0000434d 	.word	0x0000434d
20005b28:	00003453 	.word	0x00003453
20005b2c:	00003443 	.word	0x00003443

20005b30 <stdio_uart>:
20005b30:	10004e81 00000000 10004ef5 00000000     .N.......N......
20005b40:	00000100                                ....

20005b44 <malloc_mutex>:
	...

20005b4c <print_mutex>:
	...

20005b54 <__mutex_array_end>:
20005b54:	10004bd9 	.word	0x10004bd9
20005b58:	10003c51 	.word	0x10003c51
20005b5c:	1000435d 	.word	0x1000435d
20005b60:	10004aa9 	.word	0x10004aa9

20005b64 <__frame_dummy_init_array_entry>:
20005b64:	10000339                                9...
